; Listing generated by Microsoft (R) Optimizing Compiler Version 16.00.30319.01 

	TITLE	C:\Users\Dominik\Google Drive\TLD\Script\Plugin_Renaissance\Source\trng.cpp
	.686P
	.XMM
	include listing.inc
	.model	flat

INCLUDELIB OLDNAMES

PUBLIC	??$_Pow_int@M@@YAMMH@Z				; _Pow_int<float>
PUBLIC	?pow@@YAMMH@Z					; pow
PUBLIC	_sqrtf
PUBLIC	?sqrt@@YAMM@Z					; sqrt
PUBLIC	?enumSAVT@@3UStrEnumSAVT@@A			; enumSAVT
PUBLIC	?enumPHASE@@3UStrEnumPHASE@@A			; enumPHASE
PUBLIC	?enumFWEAP@@3UStrEnumFWEAP@@A			; enumFWEAP
PUBLIC	?enumFSLOT@@3UStrEnumFSLOT@@A			; enumFSLOT
PUBLIC	?enumCOLF@@3UStrEnumCOLF@@A			; enumCOLF
PUBLIC	?enumDENV@@3UStrEnumDENV@@A			; enumDENV
PUBLIC	?enumFC@@3UStrEnumFC@@A				; enumFC
PUBLIC	?enumSMAIN@@3UStrEnumSMAIN@@A			; enumSMAIN
PUBLIC	?enumWTF@@3UStrEnumWTF@@A			; enumWTF
PUBLIC	?enumAPPC@@3UStrEnumAPPC@@A			; enumAPPC
PUBLIC	?enumCPU@@3UStrEnumCPU@@A			; enumCPU
PUBLIC	?enumFIND@@3UStrEnumFIND@@A			; enumFIND
PUBLIC	?enumCTRET@@3UStrEnumCTRET@@A			; enumCTRET
PUBLIC	?enumFLH@@3UStrEnumFLH@@A			; enumFLH
PUBLIC	?enumCBEET@@3UStrEnumCBEET@@A			; enumCBEET
PUBLIC	?enumJOINT@@3UStrEnumJOINT@@A			; enumJOINT
PUBLIC	?enumFITEM@@3UStrEnumFITEM@@A			; enumFITEM
PUBLIC	?enumWSKIN@@3UStrEnumWSKIN@@A			; enumWSKIN
PUBLIC	?enumSC@@3UStrEnumSC@@A				; enumSC
PUBLIC	?enumSCANF@@3UStrEnumSCANF@@A			; enumSCANF
PUBLIC	?enumGET@@3UStrEnumGET@@A			; enumGET
PUBLIC	?enumFTS@@3UStrEnumFTS@@A			; enumFTS
PUBLIC	?enumSRET@@3UStrEnumSRET@@A			; enumSRET
PUBLIC	?enumTRET@@3UStrEnumTRET@@A			; enumTRET
PUBLIC	?enumFROOM@@3UStrEnumFROOM@@A			; enumFROOM
PUBLIC	?enumKCOMBO@@3UStrEnumKCOMBO@@A			; enumKCOMBO
PUBLIC	?enumSLOPE@@3UStrEnumSLOPE@@A			; enumSLOPE
PUBLIC	?enumCB@@3UStrEnumCB@@A				; enumCB
PUBLIC	?enumCOMBO@@3UStrEnumCOMBO@@A			; enumCOMBO
PUBLIC	?GET@@3UStrGetLocator@@A			; GET
PUBLIC	?enumFAN@@3UStrEnumFAN@@A			; enumFAN
PUBLIC	?enumPCOMBO@@3UStrEnumPCOMBO@@A			; enumPCOMBO
PUBLIC	?enumEDGX@@3UStrEnumEDGX@@A			; enumEDGX
PUBLIC	?enumCMD@@3UStrEnumCMD@@A			; enumCMD
PUBLIC	?enumMEMT@@3UStrEnumMEMT@@A			; enumMEMT
PUBLIC	?Trng@@3UStrTrngInfos@@A			; Trng
PUBLIC	?BufferLog@@3PADA				; BufferLog
PUBLIC	?enumSLOT@@3UStrEnumSLOT@@A			; enumSLOT
PUBLIC	?enumPRET@@3UStrEnumPRET@@A			; enumPRET
PUBLIC	?FLOOR@@3UStrFloorAnalyse@@A			; FLOOR
PUBLIC	?enumEX16@@3UStrEnumEX16@@A			; enumEX16
PUBLIC	?enumSKIP@@3UStrEnumSKIP@@A			; enumSKIP
PUBLIC	?enumHOLD@@3UStrEnumHOLD@@A			; enumHOLD
PUBLIC	?enumCBT@@3UStrEnumCBT@@A			; enumCBT
PUBLIC	?enumFT@@3UStrEnumFT@@A				; enumFT
PUBLIC	?enumFL2@@3UStrEnumFL2@@A			; enumFL2
PUBLIC	?enumRIB@@3UStrEnumRIB@@A			; enumRIB
PUBLIC	?FIND@@3UStrFind@@A				; FIND
PUBLIC	?enumFL@@3UStrEnumFL@@A				; enumFL
PUBLIC	?LOF@@3UStrLOFData@@A				; LOF
PUBLIC	?enumLLF@@3UStrEnumLLF@@A			; enumLLF
PUBLIC	?enumSLEV@@3UStrEnumSLEV@@A			; enumSLEV
PUBLIC	?COLLIDE@@3UStrCollisionLast@@A			; COLLIDE
PUBLIC	?enumIRET@@3UStrEnumIRET@@A			; enumIRET
PUBLIC	?enumSRV@@3UStrEnumSRV@@A			; enumSRV
PUBLIC	?enumMESH@@3UStrEnumMESH@@A			; enumMESH
PUBLIC	?enumSTRING@@3UStrEnumSTRING@@A			; enumSTRING
PUBLIC	?enumDGX@@3UStrEnumDGX@@A			; enumDGX
PUBLIC	?enumD3D@@3UStrEnumD3D@@A			; enumD3D
PUBLIC	?enumSSLOT@@3UStrEnumSSLOT@@A			; enumSSLOT
PUBLIC	?enumORIENT@@3UStrEnumORIENT@@A			; enumORIENT
PUBLIC	?enumFIL@@3UStrEnumFIL@@A			; enumFIL
PUBLIC	?enumENV@@3UStrEnumENV@@A			; enumENV
PUBLIC	?enumADD@@3UStrEnumADD@@A			; enumADD
PUBLIC	?enumCONV@@3UStrEnumCONV@@A			; enumCONV
PUBLIC	??_C@_0CM@HFDDJGMI@ERROR?3?5missing?5animation?5number?5@ ; `string'
PUBLIC	??_C@_0FE@OBHJENKO@ERROR?3?5cann?8t?5find?5the?5ngle?5stat@ ; `string'
PUBLIC	??_C@_0DK@IAPOPOKF@ERROR?3?5static?5ngle?5index?5?$DN?5?$CFd?5is@ ; `string'
PUBLIC	??_C@_0EK@GFPCLJHC@ERROR?3?5GetAlignedOrient?$CI?$CJ?3?5no?5al@ ; `string'
PUBLIC	??_C@_0CC@BEHLMMOJ@ERROR?3?5cann?8t?5locate?5plugin?3?5?$CC?$CFs@ ; `string'
PUBLIC	??_C@_0GN@CMHLICFP@WARNING?3?5in?5AddNGToken?$CI?$CJ?3?5Size?5o@ ; `string'
PUBLIC	??_C@_0DP@MGGJAMLA@ERROR?3?5the?5tomb4?5index?5?$CFd?5doesn?8@ ; `string'
PUBLIC	??_C@_02JDPG@rb?$AA@				; `string'
PUBLIC	??_C@_0FC@LGLKDBFF@ERROR?3?5failed?5check?5of?5alignment@ ; `string'
PUBLIC	??_C@_0EH@DLBKKJCI@ERROR?5it?5has?5not?5been?5set?5the?5ID@ ; `string'
PUBLIC	??_C@_0EN@EBIKAGHH@INTERNAL?5ERROR?3?5not?5found?5the?5Co@ ; `string'
PUBLIC	??_C@_0FK@GKKFMDDI@ERROR?3?5required?5conversion?5from?5@ ; `string'
PUBLIC	??_C@_0DJ@ECJKDKJD@WARNING?3?5unknown?5CONV_?5value?5?$CI?$CFd@ ; `string'
PUBLIC	??_C@_0EM@KFPEOBDF@ERROR?3?5Get?$CIGET_ITEM?$CJ?5invalid?5ite@ ; `string'
PUBLIC	??_C@_0EO@LBHMNKCM@ERROR?3?5Get?$CIGET_STATIC?$CJ?5Invalid?5r@ ; `string'
PUBLIC	??_C@_0FA@OLEPCMLI@ERROR?3?5Get?$CIGET_STATIC?$CJ?5Invalid?5s@ ; `string'
PUBLIC	??_C@_0EH@KLJPBKDN@ERROR?3?5Get?$CIGET_ROOM?$CJ?5invalid?5ind@ ; `string'
PUBLIC	??_C@_0P@MLPNHJIJ@Get?$CI?$CJ?5function?$AA@	; `string'
PUBLIC	??_C@_0FA@KOJKINJA@ERROR?3?5Get?$CIGET_COLL_BOX?$CJ?5invalid@ ; `string'
PUBLIC	??_C@_0FN@HCAHGEMN@ERROR?3?5Get?$CIGET_STATIC_COLL?1?1VIEW@ ; `string'
PUBLIC	??_C@_0FO@LCPLCGCJ@ERROR?3?5Get?$CIGET_STATIC_COLL?1VIEW_@ ; `string'
PUBLIC	??_C@_0FE@CGMNPFNF@ERROR?3?5Get?$CIGET_DOOR_OF_ROOM?$CJ?5inv@ ; `string'
PUBLIC	??_C@_0EI@CNKPJEBI@ERROR?3?5not?5found?5my?5PARAMETERS?5o@ ; `string'
PUBLIC	??_C@_0EA@IEIDMNEG@WARNING?3?5not?5found?5my?5CUSTOMIZE?5@ ; `string'
PUBLIC	??_C@_0FM@KHLDPOBM@ERROR?3?5Get?$CIGET_BIG_NUMBER?$CJ?5inval@ ; `string'
PUBLIC	??_C@_0EK@GOOBMJEN@ERROR?3?5Get?$CIGET_AI_ITEM?$CJ?5invalid?5@ ; `string'
PUBLIC	??_C@_0EN@IINEOOAJ@ERROR?3?5Get?$CIGET_LIGHT?$CJ?5invalid?5ro@ ; `string'
PUBLIC	??_C@_0FB@NIKDIKMG@ERROR?3?5Get?$CIGET_LIGHT?$CJ?5invalid?5Se@ ; `string'
PUBLIC	??_C@_0EK@DFOFGCKG@ERROR?3?5Get?$CIGET_CAMERA?$CJ?0?5invalid?5@ ; `string'
PUBLIC	??_C@_0EO@OCOFIECI@ERROR?3?5Get?$CIGET_CAMERA_FLY?$CJ?0?5inva@ ; `string'
PUBLIC	??_C@_0EN@GIKIANME@ERROR?3?5Get?$CIGET_SLOT?$CJ?5Invalid?5ind@ ; `string'
PUBLIC	??_C@_0DI@DEBNJFPA@ERROR?3?5unknown?5meaning?5of?5GET_?5c@ ; `string'
PUBLIC	??_C@_0DO@KCFEDCDJ@ERROR?3?5in?5Get?$CIFIND_STATICS_SECTO@ ; `string'
PUBLIC	??_C@_0DO@HKNFJDMA@ERROR?3?5in?5Get?$CIFIND_STATICS_NEARB@ ; `string'
PUBLIC	??_C@_0DM@HFEHHMNJ@ERROR?3?5in?5Get?$CIFIND_ITEMS_NEARBY?0@ ; `string'
PUBLIC	??_C@_0DM@KNMGNNCA@ERROR?3?5in?5Get?$CIFIND_ITEMS_SECTOR?0@ ; `string'
EXTRN	__imp__vsprintf:PROC
EXTRN	__imp__MessageBoxA@16:PROC
EXTRN	__imp__strcmpi:PROC
EXTRN	__imp__malloc:PROC
EXTRN	__imp__realloc:PROC
EXTRN	__imp__fseek:PROC
EXTRN	__imp__ftell:PROC
EXTRN	__imp___stat64i32:PROC
EXTRN	__imp__free:PROC
EXTRN	__imp__fclose:PROC
EXTRN	__imp__fopen:PROC
EXTRN	__imp__fread:PROC
?enumSAVT@@3UStrEnumSAVT@@A DB 0cH DUP (?)		; enumSAVT
?enumPHASE@@3UStrEnumPHASE@@A DB 028H DUP (?)		; enumPHASE
?enumFWEAP@@3UStrEnumFWEAP@@A DB 014H DUP (?)		; enumFWEAP
?enumFSLOT@@3UStrEnumFSLOT@@A DB 034H DUP (?)		; enumFSLOT
?enumCOLF@@3UStrEnumCOLF@@A DQ 01H DUP (?)		; enumCOLF
?enumDENV@@3UStrEnumDENV@@A DB 010H DUP (?)		; enumDENV
?enumFC@@3UStrEnumFC@@A DB 020H DUP (?)			; enumFC
?enumSMAIN@@3UStrEnumSMAIN@@A DB 014H DUP (?)		; enumSMAIN
?enumWTF@@3UStrEnumWTF@@A DB 024H DUP (?)		; enumWTF
?enumAPPC@@3UStrEnumAPPC@@A DB 03cH DUP (?)		; enumAPPC
?enumCPU@@3UStrEnumCPU@@A DB 010H DUP (?)		; enumCPU
?enumFIND@@3UStrEnumFIND@@A DB 044H DUP (?)		; enumFIND
?enumCTRET@@3UStrEnumCTRET@@A DB 020H DUP (?)		; enumCTRET
?enumFLH@@3UStrEnumFLH@@A DB 014H DUP (?)		; enumFLH
?enumCBEET@@3UStrEnumCBEET@@A DB 0cH DUP (?)		; enumCBEET
?enumJOINT@@3UStrEnumJOINT@@A DB 038H DUP (?)		; enumJOINT
?enumFITEM@@3UStrEnumFITEM@@A DB 040H DUP (?)		; enumFITEM
?enumWSKIN@@3UStrEnumWSKIN@@A DB 014H DUP (?)		; enumWSKIN
?enumSC@@3UStrEnumSC@@A DB 01cH DUP (?)			; enumSC
?enumSCANF@@3UStrEnumSCANF@@A DB 020H DUP (?)		; enumSCANF
?enumGET@@3UStrEnumGET@@A DB 074H DUP (?)		; enumGET
?enumFTS@@3UStrEnumFTS@@A DB 014H DUP (?)		; enumFTS
?enumSRET@@3UStrEnumSRET@@A DB 0cH DUP (?)		; enumSRET
?enumTRET@@3UStrEnumTRET@@A DB 010H DUP (?)		; enumTRET
?enumFROOM@@3UStrEnumFROOM@@A DB 034H DUP (?)		; enumFROOM
?enumKCOMBO@@3UStrEnumKCOMBO@@A DB 040H DUP (?)		; enumKCOMBO
?enumSLOPE@@3UStrEnumSLOPE@@A DB 014H DUP (?)		; enumSLOPE
?enumCB@@3UStrEnumCB@@A DB 0dcH DUP (?)			; enumCB
?enumCOMBO@@3UStrEnumCOMBO@@A DB 040H DUP (?)		; enumCOMBO
?GET@@3UStrGetLocator@@A DB 0254H DUP (?)		; GET
?enumFAN@@3UStrEnumFAN@@A DB 064H DUP (?)		; enumFAN
?enumPCOMBO@@3UStrEnumPCOMBO@@A DB 040H DUP (?)		; enumPCOMBO
?enumEDGX@@3UStrEnumEDGX@@A DB 020H DUP (?)		; enumEDGX
?enumCMD@@3UStrEnumCMD@@A DB 058H DUP (?)		; enumCMD
?enumMEMT@@3UStrEnumMEMT@@A DB 018H DUP (?)		; enumMEMT
?Trng@@3UStrTrngInfos@@A DB 034H DUP (?)		; Trng
?BufferLog@@3PADA DB 01000H DUP (?)			; BufferLog
?enumSLOT@@3UStrEnumSLOT@@A DB 0824H DUP (?)		; enumSLOT
?enumPRET@@3UStrEnumPRET@@A DB 0cH DUP (?)		; enumPRET
?FLOOR@@3UStrFloorAnalyse@@A DB 04bH DUP (?)		; FLOOR
	ALIGN	4

?enumEX16@@3UStrEnumEX16@@A DB 040H DUP (?)		; enumEX16
?enumSKIP@@3UStrEnumSKIP@@A DB 02cH DUP (?)		; enumSKIP
?enumHOLD@@3UStrEnumHOLD@@A DB 044H DUP (?)		; enumHOLD
?enumCBT@@3UStrEnumCBT@@A DB 01cH DUP (?)		; enumCBT
?enumFT@@3UStrEnumFT@@A DB 020H DUP (?)			; enumFT
?enumFL2@@3UStrEnumFL2@@A DB 01cH DUP (?)		; enumFL2
?enumRIB@@3UStrEnumRIB@@A DB 034H DUP (?)		; enumRIB
?FIND@@3UStrFind@@A DB 014aeH DUP (?)			; FIND
	ALIGN	4

?enumFL@@3UStrEnumFL@@A DB 01cH DUP (?)			; enumFL
?LOF@@3UStrLOFData@@A DB 036H DUP (?)			; LOF
	ALIGN	4

?enumLLF@@3UStrEnumLLF@@A DB 014H DUP (?)		; enumLLF
?enumSLEV@@3UStrEnumSLEV@@A DB 040H DUP (?)		; enumSLEV
?COLLIDE@@3UStrCollisionLast@@A DB 03cH DUP (?)		; COLLIDE
?enumIRET@@3UStrEnumIRET@@A DB 0cH DUP (?)		; enumIRET
?enumSRV@@3UStrEnumSRV@@A DB 0f4H DUP (?)		; enumSRV
?enumMESH@@3UStrEnumMESH@@A DB 03cH DUP (?)		; enumMESH
?enumSTRING@@3UStrEnumSTRING@@A DB 030H DUP (?)		; enumSTRING
?enumDGX@@3UStrEnumDGX@@A DB 040H DUP (?)		; enumDGX
?enumD3D@@3UStrEnumD3D@@A DB 018H DUP (?)		; enumD3D
?enumSSLOT@@3UStrEnumSSLOT@@A DB 0284H DUP (?)		; enumSSLOT
?enumORIENT@@3UStrEnumORIENT@@A DB 020H DUP (?)		; enumORIENT
?enumFIL@@3UStrEnumFIL@@A DB 018H DUP (?)		; enumFIL
?enumENV@@3UStrEnumENV@@A DB 014cH DUP (?)		; enumENV
?enumADD@@3UStrEnumADD@@A DB 020H DUP (?)		; enumADD
?enumCONV@@3UStrEnumCONV@@A DB 030H DUP (?)		; enumCONV
;	COMDAT ??_C@_0DM@KNMGNNCA@ERROR?3?5in?5Get?$CIFIND_ITEMS_SECTOR?0@
CONST	SEGMENT
??_C@_0DM@KNMGNNCA@ERROR?3?5in?5Get?$CIFIND_ITEMS_SECTOR?0@ DB 'ERROR: in'
	DB	' Get(FIND_ITEMS_SECTOR,): missing valid room index', 00H ; `string'
CONST	ENDS
;	COMDAT ??_C@_0DM@HFEHHMNJ@ERROR?3?5in?5Get?$CIFIND_ITEMS_NEARBY?0@
CONST	SEGMENT
??_C@_0DM@HFEHHMNJ@ERROR?3?5in?5Get?$CIFIND_ITEMS_NEARBY?0@ DB 'ERROR: in'
	DB	' Get(FIND_ITEMS_NEARBY,): missing valid room index', 00H ; `string'
CONST	ENDS
;	COMDAT ??_C@_0DO@HKNFJDMA@ERROR?3?5in?5Get?$CIFIND_STATICS_NEARB@
CONST	SEGMENT
??_C@_0DO@HKNFJDMA@ERROR?3?5in?5Get?$CIFIND_STATICS_NEARB@ DB 'ERROR: in '
	DB	'Get(FIND_STATICS_NEARBY,): missing valid room index', 00H ; `string'
CONST	ENDS
;	COMDAT ??_C@_0DO@KCFEDCDJ@ERROR?3?5in?5Get?$CIFIND_STATICS_SECTO@
CONST	SEGMENT
??_C@_0DO@KCFEDCDJ@ERROR?3?5in?5Get?$CIFIND_STATICS_SECTO@ DB 'ERROR: in '
	DB	'Get(FIND_STATICS_SECTOR,): missing valid room index', 00H ; `string'
CONST	ENDS
;	COMDAT ??_C@_0DI@DEBNJFPA@ERROR?3?5unknown?5meaning?5of?5GET_?5c@
CONST	SEGMENT
??_C@_0DI@DEBNJFPA@ERROR?3?5unknown?5meaning?5of?5GET_?5c@ DB 'ERROR: unk'
	DB	'nown meaning of GET_ constant with value = %d', 00H ; `string'
CONST	ENDS
;	COMDAT ??_C@_0EN@GIKIANME@ERROR?3?5Get?$CIGET_SLOT?$CJ?5Invalid?5ind@
CONST	SEGMENT
??_C@_0EN@GIKIANME@ERROR?3?5Get?$CIGET_SLOT?$CJ?5Invalid?5ind@ DB 'ERROR:'
	DB	' Get(GET_SLOT) Invalid index value (%d), outside of valid ran'
	DB	'ge 0 - %d', 00H				; `string'
CONST	ENDS
;	COMDAT ??_C@_0EO@OCOFIECI@ERROR?3?5Get?$CIGET_CAMERA_FLY?$CJ?0?5inva@
CONST	SEGMENT
??_C@_0EO@OCOFIECI@ERROR?3?5Get?$CIGET_CAMERA_FLY?$CJ?0?5inva@ DB 'ERROR:'
	DB	' Get(GET_CAMERA_FLY), invalid index (%d), outside of valid ra'
	DB	'nge 0 - %d', 00H				; `string'
CONST	ENDS
;	COMDAT ??_C@_0EK@DFOFGCKG@ERROR?3?5Get?$CIGET_CAMERA?$CJ?0?5invalid?5@
CONST	SEGMENT
??_C@_0EK@DFOFGCKG@ERROR?3?5Get?$CIGET_CAMERA?$CJ?0?5invalid?5@ DB 'ERROR'
	DB	': Get(GET_CAMERA), invalid index (%d), outside of valid range'
	DB	' 0 - %d', 00H				; `string'
CONST	ENDS
;	COMDAT ??_C@_0FB@NIKDIKMG@ERROR?3?5Get?$CIGET_LIGHT?$CJ?5invalid?5Se@
CONST	SEGMENT
??_C@_0FB@NIKDIKMG@ERROR?3?5Get?$CIGET_LIGHT?$CJ?5invalid?5Se@ DB 'ERROR:'
	DB	' Get(GET_LIGHT) invalid SecondaryIndex (%d), outside of valid'
	DB	' range 0 - %d', 00H				; `string'
CONST	ENDS
;	COMDAT ??_C@_0EN@IINEOOAJ@ERROR?3?5Get?$CIGET_LIGHT?$CJ?5invalid?5ro@
CONST	SEGMENT
??_C@_0EN@IINEOOAJ@ERROR?3?5Get?$CIGET_LIGHT?$CJ?5invalid?5ro@ DB 'ERROR:'
	DB	' Get(GET_LIGHT) invalid room index (%d), outside of valid ran'
	DB	'ge 0 - %d', 00H				; `string'
CONST	ENDS
;	COMDAT ??_C@_0EK@GOOBMJEN@ERROR?3?5Get?$CIGET_AI_ITEM?$CJ?5invalid?5@
CONST	SEGMENT
??_C@_0EK@GOOBMJEN@ERROR?3?5Get?$CIGET_AI_ITEM?$CJ?5invalid?5@ DB 'ERROR:'
	DB	' Get(GET_AI_ITEM) invalid index (%d), outside of valid range '
	DB	'0 - %d', 00H				; `string'
CONST	ENDS
;	COMDAT ??_C@_0FM@KHLDPOBM@ERROR?3?5Get?$CIGET_BIG_NUMBER?$CJ?5inval@
CONST	SEGMENT
??_C@_0FM@KHLDPOBM@ERROR?3?5Get?$CIGET_BIG_NUMBER?$CJ?5inval@ DB 'ERROR: '
	DB	'Get(GET_BIG_NUMBER) invalid index (%d) for big number, outsid'
	DB	'e of valid range 0 - %d', 00H		; `string'
CONST	ENDS
;	COMDAT ??_C@_0EA@IEIDMNEG@WARNING?3?5not?5found?5my?5CUSTOMIZE?5@
CONST	SEGMENT
??_C@_0EA@IEIDMNEG@WARNING?3?5not?5found?5my?5CUSTOMIZE?5@ DB 'WARNING: n'
	DB	'ot found my CUSTOMIZE with CUST_ value=%d and ID = %d', 00H ; `string'
CONST	ENDS
;	COMDAT ??_C@_0EI@CNKPJEBI@ERROR?3?5not?5found?5my?5PARAMETERS?5o@
CONST	SEGMENT
??_C@_0EI@CNKPJEBI@ERROR?3?5not?5found?5my?5PARAMETERS?5o@ DB 'ERROR: not'
	DB	' found my PARAMETERS of PARAM_ type %d with (further) ID = %d'
	DB	00H						; `string'
CONST	ENDS
;	COMDAT ??_C@_0FE@CGMNPFNF@ERROR?3?5Get?$CIGET_DOOR_OF_ROOM?$CJ?5inv@
CONST	SEGMENT
??_C@_0FE@CGMNPFNF@ERROR?3?5Get?$CIGET_DOOR_OF_ROOM?$CJ?5inv@ DB 'ERROR: '
	DB	'Get(GET_DOOR_OF_ROOM) invalid door index (%d), outside of val'
	DB	'id range 0 - %d', 00H			; `string'
CONST	ENDS
;	COMDAT ??_C@_0FO@LCPLCGCJ@ERROR?3?5Get?$CIGET_STATIC_COLL?1VIEW_@
CONST	SEGMENT
??_C@_0FO@LCPLCGCJ@ERROR?3?5Get?$CIGET_STATIC_COLL?1VIEW_@ DB 'ERROR: Get'
	DB	'(GET_STATIC_COLL/VIEW_BOX) Invalid static index (%d), outside'
	DB	' of valid range 0 - %d', 00H		; `string'
CONST	ENDS
;	COMDAT ??_C@_0FN@HCAHGEMN@ERROR?3?5Get?$CIGET_STATIC_COLL?1?1VIEW@
CONST	SEGMENT
??_C@_0FN@HCAHGEMN@ERROR?3?5Get?$CIGET_STATIC_COLL?1?1VIEW@ DB 'ERROR: Ge'
	DB	't(GET_STATIC_COLL//VIEW_BOX) Invalid room index (%d), outside'
	DB	' of valid range 0 - %d', 00H		; `string'
CONST	ENDS
;	COMDAT ??_C@_0FA@KOJKINJA@ERROR?3?5Get?$CIGET_COLL_BOX?$CJ?5invalid@
CONST	SEGMENT
??_C@_0FA@KOJKINJA@ERROR?3?5Get?$CIGET_COLL_BOX?$CJ?5invalid@ DB 'ERROR: '
	DB	'Get(GET_COLL_BOX) invalid item index (%d), outside of valid r'
	DB	'ange 0 - %d', 00H				; `string'
CONST	ENDS
;	COMDAT ??_C@_0P@MLPNHJIJ@Get?$CI?$CJ?5function?$AA@
CONST	SEGMENT
??_C@_0P@MLPNHJIJ@Get?$CI?$CJ?5function?$AA@ DB 'Get() function', 00H ; `string'
CONST	ENDS
;	COMDAT ??_C@_0EH@KLJPBKDN@ERROR?3?5Get?$CIGET_ROOM?$CJ?5invalid?5ind@
CONST	SEGMENT
??_C@_0EH@KLJPBKDN@ERROR?3?5Get?$CIGET_ROOM?$CJ?5invalid?5ind@ DB 'ERROR:'
	DB	' Get(GET_ROOM) invalid index (%d), outside of valid range 0 -'
	DB	' %d', 00H					; `string'
CONST	ENDS
;	COMDAT ??_C@_0FA@OLEPCMLI@ERROR?3?5Get?$CIGET_STATIC?$CJ?5Invalid?5s@
CONST	SEGMENT
??_C@_0FA@OLEPCMLI@ERROR?3?5Get?$CIGET_STATIC?$CJ?5Invalid?5s@ DB 'ERROR:'
	DB	' Get(GET_STATIC) Invalid static index (%d), outside of valid '
	DB	'range 0 - %d', 00H				; `string'
CONST	ENDS
;	COMDAT ??_C@_0EO@LBHMNKCM@ERROR?3?5Get?$CIGET_STATIC?$CJ?5Invalid?5r@
CONST	SEGMENT
??_C@_0EO@LBHMNKCM@ERROR?3?5Get?$CIGET_STATIC?$CJ?5Invalid?5r@ DB 'ERROR:'
	DB	' Get(GET_STATIC) Invalid room index (%d), outside of valid ra'
	DB	'nge 0 - %d', 00H				; `string'
CONST	ENDS
;	COMDAT ??_C@_0EM@KFPEOBDF@ERROR?3?5Get?$CIGET_ITEM?$CJ?5invalid?5ite@
CONST	SEGMENT
??_C@_0EM@KFPEOBDF@ERROR?3?5Get?$CIGET_ITEM?$CJ?5invalid?5ite@ DB 'ERROR:'
	DB	' Get(GET_ITEM) invalid item index (%d), outside of valid rang'
	DB	'e 0 - %d', 00H				; `string'
CONST	ENDS
;	COMDAT ??_C@_0DJ@ECJKDKJD@WARNING?3?5unknown?5CONV_?5value?5?$CI?$CFd@
CONST	SEGMENT
??_C@_0DJ@ECJKDKJD@WARNING?3?5unknown?5CONV_?5value?5?$CI?$CFd@ DB 'WARNI'
	DB	'NG: unknown CONV_ value (%d) for Convert() function', 00H ; `string'
CONST	ENDS
;	COMDAT ??_C@_0FK@GKKFMDDI@ERROR?3?5required?5conversion?5from?5@
CONST	SEGMENT
??_C@_0FK@GKKFMDDI@ERROR?3?5required?5conversion?5from?5@ DB 'ERROR: requ'
	DB	'ired conversion from StrItem to item index but the pointer fo'
	DB	'r StrItem is NULL', 00H			; `string'
CONST	ENDS
;	COMDAT ??_C@_0EN@EBIKAGHH@INTERNAL?5ERROR?3?5not?5found?5the?5Co@
CONST	SEGMENT
??_C@_0EN@EBIKAGHH@INTERNAL?5ERROR?3?5not?5found?5the?5Co@ DB 'INTERNAL E'
	DB	'RROR: not found the ColorRgb command with id = %d (called fro'
	DB	'm %s)', 00H					; `string'
CONST	ENDS
;	COMDAT ??_C@_0EH@DLBKKJCI@ERROR?5it?5has?5not?5been?5set?5the?5ID@
CONST	SEGMENT
??_C@_0EH@DLBKKJCI@ERROR?5it?5has?5not?5been?5set?5the?5ID@ DB 'ERROR it '
	DB	'has not been set the ID for ColorRbg in the script command %s'
	DB	00H						; `string'
CONST	ENDS
;	COMDAT ??_C@_0FC@LGLKDBFF@ERROR?3?5failed?5check?5of?5alignment@
CONST	SEGMENT
??_C@_0FC@LGLKDBFF@ERROR?3?5failed?5check?5of?5alignment@ DB 'ERROR: fail'
	DB	'ed check of alignment value of GlobTomb4 structure for 1.3.0.'
	DB	'0 version', 00H				; `string'
CONST	ENDS
;	COMDAT ??_C@_02JDPG@rb?$AA@
CONST	SEGMENT
??_C@_02JDPG@rb?$AA@ DB 'rb', 00H			; `string'
CONST	ENDS
;	COMDAT ??_C@_0DP@MGGJAMLA@ERROR?3?5the?5tomb4?5index?5?$CFd?5doesn?8@
CONST	SEGMENT
??_C@_0DP@MGGJAMLA@ERROR?3?5the?5tomb4?5index?5?$CFd?5doesn?8@ DB 'ERROR:'
	DB	' the tomb4 index %d doesn''t correspond to any ngle index', 00H ; `string'
CONST	ENDS
;	COMDAT ?MexNotFound@?1??GetString@@YAPADH@Z@4PADA
_DATA	SEGMENT
?MexNotFound@?1??GetString@@YAPADH@Z@4PADA DB 'STRING NOT FOUND', 00H ; `GetString'::`2'::MexNotFound
_DATA	ENDS
;	COMDAT ?p2StringheScriptDat@?1??GetString@@YAPADH@Z@4PAPADA
_DATA	SEGMENT
?p2StringheScriptDat@?1??GetString@@YAPADH@Z@4PAPADA DD 07fd198H ; `GetString'::`2'::p2StringheScriptDat
_DATA	ENDS
;	COMDAT ?p2IndiciStringheDat@?1??GetString@@YAPADH@Z@4PAPAGA
_DATA	SEGMENT
?p2IndiciStringheDat@?1??GetString@@YAPADH@Z@4PAPAGA DD 07fd154H ; `GetString'::`2'::p2IndiciStringheDat
_DATA	ENDS
;	COMDAT ??_C@_0GN@CMHLICFP@WARNING?3?5in?5AddNGToken?$CI?$CJ?3?5Size?5o@
CONST	SEGMENT
??_C@_0GN@CMHLICFP@WARNING?3?5in?5AddNGToken?$CI?$CJ?3?5Size?5o@ DB 'WARN'
	DB	'ING: in AddNGToken(): Size of structure for Tag=0x%X is not e'
	DB	'ven (%d). It has been added one extra byte.', 00H ; `string'
CONST	ENDS
;	COMDAT ??_C@_0CC@BEHLMMOJ@ERROR?3?5cann?8t?5locate?5plugin?3?5?$CC?$CFs@
CONST	SEGMENT
??_C@_0CC@BEHLMMOJ@ERROR?3?5cann?8t?5locate?5plugin?3?5?$CC?$CFs@ DB 'ERR'
	DB	'OR: cann''t locate plugin: "%s"', 00H	; `string'
CONST	ENDS
;	COMDAT ??_C@_0EK@GFPCLJHC@ERROR?3?5GetAlignedOrient?$CI?$CJ?3?5no?5al@
CONST	SEGMENT
??_C@_0EK@GFPCLJHC@ERROR?3?5GetAlignedOrient?$CI?$CJ?3?5no?5al@ DB 'ERROR'
	DB	': GetAlignedOrient(): no aligned orient found for source orie'
	DB	'nt 0x%X', 00H				; `string'
CONST	ENDS
;	COMDAT ??_C@_0DK@IAPOPOKF@ERROR?3?5static?5ngle?5index?5?$DN?5?$CFd?5is@
CONST	SEGMENT
??_C@_0DK@IAPOPOKF@ERROR?3?5static?5ngle?5index?5?$DN?5?$CFd?5is@ DB 'ERR'
	DB	'OR: static ngle index = %d is not a valid static index', 00H ; `string'
CONST	ENDS
;	COMDAT ??_C@_0FE@OBHJENKO@ERROR?3?5cann?8t?5find?5the?5ngle?5stat@
CONST	SEGMENT
??_C@_0FE@OBHJENKO@ERROR?3?5cann?8t?5find?5the?5ngle?5stat@ DB 'ERROR: ca'
	DB	'nn''t find the ngle static index that matched with (room=%d S'
	DB	'taticIndex=%d)', 00H			; `string'
CONST	ENDS
;	COMDAT ??_C@_0CM@HFDDJGMI@ERROR?3?5missing?5animation?5number?5@
CONST	SEGMENT
??_C@_0CM@HFDDJGMI@ERROR?3?5missing?5animation?5number?5@ DB 'ERROR: miss'
	DB	'ing animation number %d for Lara', 00H	; `string'
CONST	ENDS
;	COMDAT ?pTombWind4@?1??SendToLog@@YA_NPADZZ@4PAKA
_DATA	SEGMENT
?pTombWind4@?1??SendToLog@@YA_NPADZZ@4PAKA DD 075385cH	; `SendToLog'::`2'::pTombWind4
_DATA	ENDS
PUBLIC	?GetNewProgrAction@@YAPAUStrProgressiveAction@@XZ ; GetNewProgrAction
; Function compile flags: /Ogtp
; File c:\users\dominik\google drive\tld\script\plugin_renaissance\source\trng.cpp
;	COMDAT ?GetNewProgrAction@@YAPAUStrProgressiveAction@@XZ
_TEXT	SEGMENT
?GetNewProgrAction@@YAPAUStrProgressiveAction@@XZ PROC	; GetNewProgrAction, COMDAT

; 3835 : 	
; 3836 : 	StrProgressiveAction *pAction;
; 3837 : 	int i;
; 3838 : 
; 3839 : 	pAction= &MyData.VetProgrActions[0];
; 3840 : 
; 3841 : 	// look for first free record
; 3842 : 	for (i=0;i<MyData.TotProgrActions;i++) {

  00000	8b 0d 15 00 00
	00		 mov	 ecx, DWORD PTR ?MyData@@3UStrMyData@@A+21
  00006	33 d2		 xor	 edx, edx
  00008	b8 1d 00 00 00	 mov	 eax, OFFSET ?MyData@@3UStrMyData@@A+29
  0000d	85 c9		 test	 ecx, ecx
  0000f	7e 0e		 jle	 SHORT $LN4@GetNewProg
$LL6@GetNewProg:

; 3843 : 		if (pAction->ActionType == AXN_FREE) {

  00011	66 83 38 00	 cmp	 WORD PTR [eax], 0
  00015	74 42		 je	 SHORT $LN7@GetNewProg

; 3844 : 
; 3845 : 			return pAction;
; 3846 : 		}
; 3847 : 		pAction++;

  00017	42		 inc	 edx
  00018	83 c0 20	 add	 eax, 32			; 00000020H
  0001b	3b d1		 cmp	 edx, ecx
  0001d	7c f2		 jl	 SHORT $LL6@GetNewProg
$LN4@GetNewProg:

; 3848 : 	}
; 3849 : 	// no record free
; 3850 : 	// increase number of allocated records
; 3851 : 	if (MyData.TotProgrActions >= MAX_MYPROGR_ACTIONS) {

  0001f	83 f9 64	 cmp	 ecx, 100		; 00000064H
  00022	7c 24		 jl	 SHORT $LN2@GetNewProg

; 3852 : 		// already reached max number of record (bad matter)
; 3853 : 		// stole the record to older progressive action and send an error message if debug is on
; 3854 : 		i= MyData.LastProgrActionIndex;

  00024	8b 0d 19 00 00
	00		 mov	 ecx, DWORD PTR ?MyData@@3UStrMyData@@A+25

; 3855 : 
; 3856 : 		pAction = &MyData.VetProgrActions[i];

  0002a	8b c1		 mov	 eax, ecx
  0002c	c1 e0 05	 shl	 eax, 5
  0002f	05 1d 00 00 00	 add	 eax, OFFSET ?MyData@@3UStrMyData@@A+29

; 3857 : 
; 3858 : 
; 3859 : 		
; 3860 : #ifdef DEBUG_ON
; 3861 : 
; 3862 : 		SendToLog("ERROR from GetNewProgrAction(): no more available StrProgressiveAction records. Cleared old ProgrAction with ActionType = %d and ItemIndex=%d",
; 3863 : 			pAction->ActionType, pAction->ItemIndex);
; 3864 : 	
; 3865 : 	
; 3866 : #endif
; 3867 : 		pAction->ActionType= AXN_FREE;

  00034	33 d2		 xor	 edx, edx

; 3868 : 		// update next index to stole for older prograction
; 3869 : 		i++;

  00036	41		 inc	 ecx
  00037	66 89 10	 mov	 WORD PTR [eax], dx

; 3870 : 		if (i >= MAX_MYPROGR_ACTIONS) {

  0003a	83 f9 64	 cmp	 ecx, 100		; 00000064H
  0003d	7c 02		 jl	 SHORT $LN1@GetNewProg

; 3871 : 			i = 0;

  0003f	33 c9		 xor	 ecx, ecx
$LN1@GetNewProg:

; 3872 : 		}
; 3873 : 		MyData.LastProgrActionIndex = i;

  00041	89 0d 19 00 00
	00		 mov	 DWORD PTR ?MyData@@3UStrMyData@@A+25, ecx

; 3882 : 	return pAction;
; 3883 : 
; 3884 : }

  00047	c3		 ret	 0
$LN2@GetNewProg:

; 3874 : 
; 3875 : 		return pAction;
; 3876 : 	}
; 3877 : 	// allocate new record
; 3878 : 	i = MyData.TotProgrActions;

  00048	8b c1		 mov	 eax, ecx

; 3879 : 	pAction= &MyData.VetProgrActions[i];
; 3880 : 
; 3881 : 	MyData.TotProgrActions++;

  0004a	41		 inc	 ecx
  0004b	c1 e0 05	 shl	 eax, 5
  0004e	89 0d 15 00 00
	00		 mov	 DWORD PTR ?MyData@@3UStrMyData@@A+21, ecx
  00054	05 1d 00 00 00	 add	 eax, OFFSET ?MyData@@3UStrMyData@@A+29
$LN7@GetNewProg:

; 3882 : 	return pAction;
; 3883 : 
; 3884 : }

  00059	c3		 ret	 0
?GetNewProgrAction@@YAPAUStrProgressiveAction@@XZ ENDP	; GetNewProgrAction
_TEXT	ENDS
PUBLIC	?GetCallBack@@YA_NHHGPAX@Z			; GetCallBack
; Function compile flags: /Ogtp
;	COMDAT ?GetCallBack@@YA_NHHGPAX@Z
_TEXT	SEGMENT
?GetCallBack@@YA_NHHGPAX@Z PROC				; GetCallBack, COMDAT
; _CallBackCB$ = ecx
; _pProc$ = eax

; 3594 : 
; 3595 : 	return Trng.RequireCallBack(Trng.IdMyPlugin, CallBackCB, CBT_Flags, Index, pProc);

  00000	0f b7 15 00 00
	00 00		 movzx	 edx, WORD PTR ?Trng@@3UStrTrngInfos@@A
  00007	50		 push	 eax
  00008	6a 00		 push	 0
  0000a	6a 00		 push	 0
  0000c	51		 push	 ecx
  0000d	52		 push	 edx
  0000e	ff 15 08 00 00
	00		 call	 DWORD PTR ?Trng@@3UStrTrngInfos@@A+8

; 3596 : }

  00014	c3		 ret	 0
?GetCallBack@@YA_NHHGPAX@Z ENDP				; GetCallBack
_TEXT	ENDS
PUBLIC	?FreeMemory@@YAXPAX@Z				; FreeMemory
; Function compile flags: /Ogtp
;	COMDAT ?FreeMemory@@YAXPAX@Z
_TEXT	SEGMENT
?FreeMemory@@YAXPAX@Z PROC				; FreeMemory, COMDAT
; _pMem$ = eax

; 3584 : 
; 3585 : 
; 3586 : 	free(pMem);

  00000	50		 push	 eax
  00001	ff 15 00 00 00
	00		 call	 DWORD PTR __imp__free
  00007	59		 pop	 ecx

; 3587 : 
; 3588 : }

  00008	c3		 ret	 0
?FreeMemory@@YAXPAX@Z ENDP				; FreeMemory
_TEXT	ENDS
PUBLIC	?GetString@@YAPADH@Z				; GetString
; Function compile flags: /Ogtp
;	COMDAT ?GetString@@YAPADH@Z
_TEXT	SEGMENT
?GetString@@YAPADH@Z PROC				; GetString, COMDAT
; _StringIndex$ = eax

; 3488 : 	char *pChar;
; 3489 : 	int i;
; 3490 : 	WORD Indice;
; 3491 : 	static WORD ** p2IndiciStringheDat = (WORD **) 0x7FD154;
; 3492 : 	WORD *pIndiceStringheDat;
; 3493 : 	static char **p2StringheScriptDat = (char**) 0x7FD198;
; 3494 : 	char *pStringheScriptDat;
; 3495 : 	static char MexNotFound[]= "STRING NOT FOUND";
; 3496 : 
; 3497 : 	pIndiceStringheDat = *p2IndiciStringheDat;

  00000	8b 0d 54 d1 7f
	00		 mov	 ecx, DWORD PTR ds:8376660

; 3498 : 	pStringheScriptDat = *p2StringheScriptDat;

  00006	8b 15 98 d1 7f
	00		 mov	 edx, DWORD PTR ds:8376728

; 3499 : 
; 3500 : 	if (StringIndex & STRING_NG) {

  0000c	a9 00 80 00 00	 test	 eax, 32768		; 00008000H
  00011	74 43		 je	 SHORT $LN5@GetString

; 3501 : 		// extra NG string
; 3502 : 		Indice= StringIndex & MASK_STRING_INDEX;

  00013	56		 push	 esi
  00014	25 ff 7f 00 00	 and	 eax, 32767		; 00007fffH
  00019	57		 push	 edi

; 3503 : 
; 3504 : 		for (i=0;i<Trng.pGlobTomb4->TotExtraStrings;i++) {

  0001a	8b 3d 04 00 00
	00		 mov	 edi, DWORD PTR ?Trng@@3UStrTrngInfos@@A+4
  00020	8b 8f 08 08 1b
	00		 mov	 ecx, DWORD PTR [edi+1771528]
  00026	8b f0		 mov	 esi, eax
  00028	33 c0		 xor	 eax, eax
  0002a	85 c9		 test	 ecx, ecx
  0002c	7e 13		 jle	 SHORT $LN2@GetString

; 3501 : 		// extra NG string
; 3502 : 		Indice= StringIndex & MASK_STRING_INDEX;

  0002e	8d 97 0c 08 1b
	00		 lea	 edx, DWORD PTR [edi+1771532]
$LL4@GetString:

; 3505 : 			if (Trng.pGlobTomb4->VetExtraStrings[i].Indice == Indice) {

  00034	66 39 32	 cmp	 WORD PTR [edx], si
  00037	74 10		 je	 SHORT $LN9@GetString

; 3503 : 
; 3504 : 		for (i=0;i<Trng.pGlobTomb4->TotExtraStrings;i++) {

  00039	40		 inc	 eax
  0003a	83 c2 06	 add	 edx, 6
  0003d	3b c1		 cmp	 eax, ecx
  0003f	7c f3		 jl	 SHORT $LL4@GetString
$LN2@GetString:
  00041	5f		 pop	 edi

; 3509 : 			}
; 3510 : 		}
; 3511 : 		// not found. if we are in debug version lets a mexage in tomb4_log
; 3512 : #ifdef DEBUG_ON
; 3513 : 		SendToLog("ERROR: cann't locate extra ng string with index = %d", StringIndex & MASK_STRING_INDEX);
; 3514 : #endif
; 3515 : 		return MexNotFound;

  00042	b8 00 00 00 00	 mov	 eax, OFFSET ?MexNotFound@?1??GetString@@YAPADH@Z@4PADA
  00047	5e		 pop	 esi

; 3522 : 
; 3523 : }

  00048	c3		 ret	 0
$LN9@GetString:

; 3506 : 				pChar = Trng.pGlobTomb4->VetExtraStrings[i].pTesto;

  00049	8d 04 40	 lea	 eax, DWORD PTR [eax+eax*2]

; 3507 : 
; 3508 : 				return pChar;

  0004c	8b 84 47 0e 08
	1b 00		 mov	 eax, DWORD PTR [edi+eax*2+1771534]
  00053	5f		 pop	 edi
  00054	5e		 pop	 esi

; 3522 : 
; 3523 : }

  00055	c3		 ret	 0
$LN5@GetString:

; 3516 : 
; 3517 : 	}
; 3518 : 	// string is not of extra ng kind
; 3519 : 	Indice = pIndiceStringheDat[StringIndex];
; 3520 : 	pChar = &pStringheScriptDat[Indice];
; 3521 : 	return pChar;

  00056	0f b7 04 41	 movzx	 eax, WORD PTR [ecx+eax*2]
  0005a	03 c2		 add	 eax, edx

; 3522 : 
; 3523 : }

  0005c	c3		 ret	 0
?GetString@@YAPADH@Z ENDP				; GetString
_TEXT	ENDS
PUBLIC	?ParseNgField@@YA_NPAGKPAUStrParseNGField@@@Z	; ParseNgField
; Function compile flags: /Ogtp
;	COMDAT ?ParseNgField@@YA_NPAGKPAUStrParseNGField@@@Z
_TEXT	SEGMENT
?ParseNgField@@YA_NPAGKPAUStrParseNGField@@@Z PROC	; ParseNgField, COMDAT
; _pNgArray$ = ebx
; _CurrentIndex$ = eax
; _pParseNGField$ = esi

; 3449 : {

  00000	57		 push	 edi
  00001	8b f8		 mov	 edi, eax

; 3450 : 	DWORD Word1, NumberOfWords;
; 3451 : 	int i;
; 3452 : 	DWORD ExtraWords;
; 3453 : 
; 3454 : 
; 3455 : 	i = CurrentIndex;
; 3456 : 
; 3457 : 
; 3458 : 	if (pNgArray[i] & 0x8000) {

  00003	0f b7 04 7b	 movzx	 eax, WORD PTR [ebx+edi*2]

; 3459 : 		// size e' DWORD
; 3460 : 		Word1 = pNgArray[i++] & 0x7fff;

  00007	8d 4f 01	 lea	 ecx, DWORD PTR [edi+1]
  0000a	a9 00 80 00 00	 test	 eax, 32768		; 00008000H
  0000f	74 18		 je	 SHORT $LN3@ParseNgFie
  00011	25 ff 7f 00 00	 and	 eax, 32767		; 00007fffH
  00016	8b d0		 mov	 edx, eax

; 3461 : 		NumberOfWords = Word1 * 65536 + pNgArray[i++];

  00018	0f b7 04 4b	 movzx	 eax, WORD PTR [ebx+ecx*2]
  0001c	c1 e2 10	 shl	 edx, 16			; 00000010H
  0001f	03 c2		 add	 eax, edx
  00021	41		 inc	 ecx

; 3462 : 		ExtraWords = 3;

  00022	ba 03 00 00 00	 mov	 edx, 3

; 3463 : 	}else {

  00027	eb 05		 jmp	 SHORT $LN2@ParseNgFie
$LN3@ParseNgFie:

; 3464 : 		// size e' WORD
; 3465 : 		NumberOfWords = pNgArray[i++];
; 3466 : 		ExtraWords = 2;

  00029	ba 02 00 00 00	 mov	 edx, 2
$LN2@ParseNgFie:

; 3467 : 	}
; 3468 : 	
; 3469 : 	if (NumberOfWords == NGTAG_END_SEQUENCE) return false;

  0002e	85 c0		 test	 eax, eax
  00030	75 04		 jne	 SHORT $LN1@ParseNgFie
  00032	32 c0		 xor	 al, al
  00034	5f		 pop	 edi

; 3478 : }

  00035	c3		 ret	 0
$LN1@ParseNgFie:

; 3470 : 
; 3471 : 	pParseNGField->NextIndex = CurrentIndex + NumberOfWords;

  00036	03 f8		 add	 edi, eax
  00038	89 3e		 mov	 DWORD PTR [esi], edi

; 3472 : 	pParseNGField->Type = pNgArray[i++];

  0003a	66 8b 3c 4b	 mov	 di, WORD PTR [ebx+ecx*2]
  0003e	41		 inc	 ecx

; 3473 : 	pParseNGField->pData = &pNgArray[i];
; 3474 : 	pParseNGField->StartDataIndex = i;
; 3475 : 	pParseNGField->SizeData = (NumberOfWords-ExtraWords) * 2;

  0003f	2b c2		 sub	 eax, edx
  00041	66 89 7e 10	 mov	 WORD PTR [esi+16], di
  00045	8d 3c 4b	 lea	 edi, DWORD PTR [ebx+ecx*2]
  00048	03 c0		 add	 eax, eax
  0004a	89 7e 04	 mov	 DWORD PTR [esi+4], edi
  0004d	89 46 08	 mov	 DWORD PTR [esi+8], eax
  00050	89 4e 0c	 mov	 DWORD PTR [esi+12], ecx

; 3476 : 	
; 3477 : 	return true;

  00053	b0 01		 mov	 al, 1
  00055	5f		 pop	 edi

; 3478 : }

  00056	c3		 ret	 0
?ParseNgField@@YA_NPAGKPAUStrParseNGField@@@Z ENDP	; ParseNgField
_TEXT	ENDS
PUBLIC	?GetMemory@@YAPAXK@Z				; GetMemory
; Function compile flags: /Ogtp
;	COMDAT ?GetMemory@@YAPAXK@Z
_TEXT	SEGMENT
?GetMemory@@YAPAXK@Z PROC				; GetMemory, COMDAT
; _SizeOfMemory$ = eax

; 3257 : 	void *pMem;
; 3258 : 
; 3259 : 	pMem = malloc(SizeOfMemory);

  00000	50		 push	 eax
  00001	ff 15 00 00 00
	00		 call	 DWORD PTR __imp__malloc
  00007	83 c4 04	 add	 esp, 4

; 3260 : 	
; 3261 : #ifdef DEBUG_ON
; 3262 : 	if (pMem == NULL) {
; 3263 : 		SendToLog("ERROR: failed the attempt to get dynamic free memory of %d bytes",SizeOfMemory);
; 3264 : 		
; 3265 : 	}
; 3266 : #endif
; 3267 : return pMem;
; 3268 : 
; 3269 : }

  0000a	c3		 ret	 0
?GetMemory@@YAPAXK@Z ENDP				; GetMemory
_TEXT	ENDS
PUBLIC	?CallFromTrng@@YAHXZ				; CallFromTrng
; Function compile flags: /Ogtp
;	COMDAT ?CallFromTrng@@YAHXZ
_TEXT	SEGMENT
?CallFromTrng@@YAHXZ PROC				; CallFromTrng, COMDAT

; 3207 : 	xor eax, eax

  00000	33 c0		 xor	 eax, eax

; 3208 : 	retn

  00002	c3		 ret	 0
?CallFromTrng@@YAHXZ ENDP				; CallFromTrng
_TEXT	ENDS
PUBLIC	?FindSkipPhase@@YAKXZ				; FindSkipPhase
; Function compile flags: /Ogtp
;	COMDAT ?FindSkipPhase@@YAKXZ
_TEXT	SEGMENT
?FindSkipPhase@@YAKXZ PROC				; FindSkipPhase, COMDAT

; 2982 : 	DWORD FlagsSkip;
; 2983 : 
; 2984 : 
; 2985 : 	FlagsSkip= SKIP_NONE;
; 2986 : 
; 2987 : 	if (*Trng.pGlobTomb4->pAdr->pFadeScreen) FlagsSkip |= SKIP_FADE;

  00000	8b 15 04 00 00
	00		 mov	 edx, DWORD PTR ?Trng@@3UStrTrngInfos@@A+4
  00006	8b 8a 4a 34 19
	00		 mov	 ecx, DWORD PTR [edx+1651786]
  0000c	56		 push	 esi
  0000d	8b b1 c4 01 00
	00		 mov	 esi, DWORD PTR [ecx+452]
  00013	33 c0		 xor	 eax, eax
  00015	66 39 06	 cmp	 WORD PTR [esi], ax
  00018	74 05		 je	 SHORT $LN10@FindSkipPh
  0001a	b8 08 00 00 00	 mov	 eax, 8
$LN10@FindSkipPh:

; 2988 : 
; 2989 : 	if (*Trng.pGlobTomb4->pAdr->pTestLoading) FlagsSkip |= SKIP_LOADING_LEVEL;

  0001f	8b b1 c0 01 00
	00		 mov	 esi, DWORD PTR [ecx+448]
  00025	80 3e 00	 cmp	 BYTE PTR [esi], 0
  00028	74 03		 je	 SHORT $LN9@FindSkipPh
  0002a	83 c8 04	 or	 eax, 4
$LN9@FindSkipPh:

; 2990 :   
; 2991 : 	if (*Trng.pGlobTomb4->pAdr->Camera.pModeCameraNow  == 1) FlagsSkip |= SKIP_FIXED_CAMERA;	

  0002d	8b b1 fc 00 00
	00		 mov	 esi, DWORD PTR [ecx+252]
  00033	83 3e 01	 cmp	 DWORD PTR [esi], 1
  00036	75 03		 jne	 SHORT $LN8@FindSkipPh
  00038	83 c8 01	 or	 eax, 1
$LN8@FindSkipPh:

; 2992 : 
; 2993 : 	if (*Trng.pGlobTomb4->pAdr->pTestFlybyInProgress) FlagsSkip |= SKIP_FLY_CAMERA;

  0003b	8b b1 14 01 00
	00		 mov	 esi, DWORD PTR [ecx+276]
  00041	83 3e 00	 cmp	 DWORD PTR [esi], 0
  00044	74 03		 je	 SHORT $LN7@FindSkipPh
  00046	83 c8 02	 or	 eax, 2
$LN7@FindSkipPh:

; 2994 : 
; 2995 : 	if (*Trng.pGlobTomb4->pAdr->pLevelNow == 0 &&
; 2996 : 		(*Trng.pGlobTomb4->pAdr->pScriptMainFlags & 0x04)) FlagsSkip |= SKIP_TITLE_LEVEL;

  00049	8b b1 b8 00 00
	00		 mov	 esi, DWORD PTR [ecx+184]
  0004f	80 3e 00	 cmp	 BYTE PTR [esi], 0
  00052	75 0e		 jne	 SHORT $LN6@FindSkipPh
  00054	8b b1 c0 00 00
	00		 mov	 esi, DWORD PTR [ecx+192]
  0005a	f6 06 04	 test	 BYTE PTR [esi], 4
  0005d	74 03		 je	 SHORT $LN6@FindSkipPh
  0005f	83 c8 10	 or	 eax, 16			; 00000010H
$LN6@FindSkipPh:

; 2997 : 
; 2998 : 	if (*Trng.pGlobTomb4->pAdr->pTestGrayScreen) FlagsSkip |= SKIP_GRAY_SCREEN;

  00062	8b b1 bc 01 00
	00		 mov	 esi, DWORD PTR [ecx+444]
  00068	80 3e 00	 cmp	 BYTE PTR [esi], 0
  0006b	74 03		 je	 SHORT $LN5@FindSkipPh
  0006d	83 c8 20	 or	 eax, 32			; 00000020H
$LN5@FindSkipPh:

; 2999 : 
; 3000 : 	if (Trng.pGlobTomb4->TestSuspendObjectShowing == true) FlagsSkip |= SKIP_NO_VIEW_OGGETTI;

  00070	80 ba 3a 22 20
	00 01		 cmp	 BYTE PTR [edx+2105914], 1
  00077	75 03		 jne	 SHORT $LN4@FindSkipPh
  00079	83 c8 40	 or	 eax, 64			; 00000040H
$LN4@FindSkipPh:

; 3001 : 
; 3002 : 	if (*Trng.pGlobTomb4->pAdr->pZoomFactor != 0 && *Trng.pGlobTomb4->pAdr->pTestLaserSight ==0) FlagsSkip |= SKIP_BINOCULARS;

  0007c	8b b1 b8 01 00
	00		 mov	 esi, DWORD PTR [ecx+440]
  00082	83 3e 00	 cmp	 DWORD PTR [esi], 0
  00085	74 10		 je	 SHORT $LN3@FindSkipPh
  00087	8b b1 b4 01 00
	00		 mov	 esi, DWORD PTR [ecx+436]
  0008d	80 3e 00	 cmp	 BYTE PTR [esi], 0
  00090	75 05		 jne	 SHORT $LN3@FindSkipPh
  00092	0d 80 00 00 00	 or	 eax, 128		; 00000080H
$LN3@FindSkipPh:

; 3003 : 
; 3004 : 	if (*Trng.pGlobTomb4->pAdr->pTestLaserSight && (*Trng.pGlobTomb4->pAdr->pInputExtGameCommands & 0x200) != 0) FlagsSkip |= SKIP_LASER_SIGHT;

  00097	8b b1 b4 01 00
	00		 mov	 esi, DWORD PTR [ecx+436]
  0009d	80 3e 00	 cmp	 BYTE PTR [esi], 0
  000a0	5e		 pop	 esi
  000a1	74 10		 je	 SHORT $LN2@FindSkipPh
  000a3	8b 49 74	 mov	 ecx, DWORD PTR [ecx+116]
  000a6	f7 01 00 02 00
	00		 test	 DWORD PTR [ecx], 512	; 00000200H
  000ac	74 05		 je	 SHORT $LN2@FindSkipPh
  000ae	0d 00 01 00 00	 or	 eax, 256		; 00000100H
$LN2@FindSkipPh:

; 3005 : 
; 3006 : 	if (Trng.pGlobTomb4->TestOverlapImage==true) FlagsSkip |= SKIP_FULL_IMAGE;

  000b3	80 ba 9e 50 21
	00 01		 cmp	 BYTE PTR [edx+2183326], 1
  000ba	75 05		 jne	 SHORT $LN1@FindSkipPh
  000bc	0d 00 02 00 00	 or	 eax, 512		; 00000200H
$LN1@FindSkipPh:

; 3007 : 
; 3008 : 	return FlagsSkip;
; 3009 : 
; 3010 : }

  000c1	c3		 ret	 0
?FindSkipPhase@@YAKXZ ENDP				; FindSkipPhase
_TEXT	ENDS
PUBLIC	?IsFullScreenMode@@YA_NXZ			; IsFullScreenMode
; Function compile flags: /Ogtp
;	COMDAT ?IsFullScreenMode@@YA_NXZ
_TEXT	SEGMENT
?IsFullScreenMode@@YA_NXZ PROC				; IsFullScreenMode, COMDAT

; 2789 : 	BYTE **p2_BaseGlobale = (BYTE **) 0x754468;
; 2790 : 	BYTE *pBaseGlobale;
; 2791 : 
; 2792 : 	pBaseGlobale = *p2_BaseGlobale;

  00000	a1 68 44 75 00	 mov	 eax, DWORD PTR ds:7685224

; 2793 : 
; 2794 : 	if (pBaseGlobale==NULL) return false;

  00005	85 c0		 test	 eax, eax
  00007	75 03		 jne	 SHORT $LN2@IsFullScre
  00009	32 c0		 xor	 al, al

; 2797 : 	return true;
; 2798 : 
; 2799 : }

  0000b	c3		 ret	 0
$LN2@IsFullScre:

; 2795 : 
; 2796 : 	if (pBaseGlobale[0x4c] & 0x02)  return false;

  0000c	8a 40 4c	 mov	 al, BYTE PTR [eax+76]
  0000f	d0 e8		 shr	 al, 1
  00011	f6 d0		 not	 al
  00013	24 01		 and	 al, 1

; 2797 : 	return true;
; 2798 : 
; 2799 : }

  00015	c3		 ret	 0
?IsFullScreenMode@@YA_NXZ ENDP				; IsFullScreenMode
_TEXT	ENDS
PUBLIC	?ClearMemory@@YAXPAXK@Z				; ClearMemory
EXTRN	_memset:PROC
; Function compile flags: /Ogtp
;	COMDAT ?ClearMemory@@YAXPAXK@Z
_TEXT	SEGMENT
?ClearMemory@@YAXPAXK@Z PROC				; ClearMemory, COMDAT
; _pZone$ = ecx
; _SizeBytes$ = eax

; 2253 : 	memset(pZone, 0, SizeBytes);

  00000	50		 push	 eax
  00001	6a 00		 push	 0
  00003	51		 push	 ecx
  00004	e8 00 00 00 00	 call	 _memset
  00009	83 c4 0c	 add	 esp, 12			; 0000000cH

; 2254 : 
; 2255 : }

  0000c	c3		 ret	 0
?ClearMemory@@YAXPAXK@Z ENDP				; ClearMemory
_TEXT	ENDS
PUBLIC	?RestoreLara@@YAXPAUStrBackupLara@@PAUStrItemTr4@@@Z ; RestoreLara
; Function compile flags: /Ogtp
;	COMDAT ?RestoreLara@@YAXPAUStrBackupLara@@PAUStrItemTr4@@@Z
_TEXT	SEGMENT
?RestoreLara@@YAXPAUStrBackupLara@@PAUStrItemTr4@@@Z PROC ; RestoreLara, COMDAT
; _pBack$ = eax
; _pOggetto$ = ecx

; 2107 : 
; 2108 : 	DWORD *pCopiaOrientamento = (DWORD *)  0x80DF64; //   ;ZonaSave_FB_CopiaOrientamento
; 2109 : 
; 2110 : 	*pCopiaOrientamento = pBack->CopiaOrientamento;

  00000	8b 50 1c	 mov	 edx, DWORD PTR [eax+28]
  00003	89 15 64 df 80
	00		 mov	 DWORD PTR ds:8445796, edx

; 2111 : 
; 2112 : 	pOggetto->AnimationNow = pBack->AnimationNow;

  00009	0f b7 10	 movzx	 edx, WORD PTR [eax]
  0000c	66 89 51 14	 mov	 WORD PTR [ecx+20], dx

; 2113 : 	pOggetto->FrameNow =pBack->FrameNow;

  00010	0f b7 50 06	 movzx	 edx, WORD PTR [eax+6]
  00014	66 89 51 16	 mov	 WORD PTR [ecx+22], dx

; 2114 : 	pOggetto->StateIdCurrent = pBack->StateIdCurrent;

  00018	0f b7 50 02	 movzx	 edx, WORD PTR [eax+2]
  0001c	66 89 51 0e	 mov	 WORD PTR [ecx+14], dx

; 2115 : 	pOggetto->StateIdNext =	pBack->StateIdNext;

  00020	0f b7 50 04	 movzx	 edx, WORD PTR [eax+4]
  00024	66 89 51 10	 mov	 WORD PTR [ecx+16], dx

; 2116 : 	pOggetto->Room = pBack->LaraRoom;

  00028	0f b7 50 14	 movzx	 edx, WORD PTR [eax+20]
  0002c	66 89 51 18	 mov	 WORD PTR [ecx+24], dx

; 2117 : 	pOggetto->CordX = pBack->LaraX;

  00030	8b 50 08	 mov	 edx, DWORD PTR [eax+8]
  00033	89 51 40	 mov	 DWORD PTR [ecx+64], edx

; 2118 : 	pOggetto->CordY = pBack->LaraY;

  00036	8b 50 0c	 mov	 edx, DWORD PTR [eax+12]
  00039	89 51 44	 mov	 DWORD PTR [ecx+68], edx

; 2119 : 	pOggetto->CordZ = pBack->LaraZ;

  0003c	8b 50 10	 mov	 edx, DWORD PTR [eax+16]
  0003f	89 51 48	 mov	 DWORD PTR [ecx+72], edx

; 2120 : 	pOggetto->OrientationH= pBack->Orient;

  00042	0f b7 50 16	 movzx	 edx, WORD PTR [eax+22]
  00046	66 89 51 4e	 mov	 WORD PTR [ecx+78], dx

; 2121 : 	pOggetto->SpeedH=pBack->SpeedH;

  0004a	0f b7 50 18	 movzx	 edx, WORD PTR [eax+24]

; 2122 : 	pOggetto->SpeedV = pBack->SpeedV;

  0004e	66 8b 40 1a	 mov	 ax, WORD PTR [eax+26]
  00052	66 89 51 1e	 mov	 WORD PTR [ecx+30], dx
  00056	66 89 41 20	 mov	 WORD PTR [ecx+32], ax

; 2123 : 
; 2124 : 
; 2125 : }

  0005a	c3		 ret	 0
?RestoreLara@@YAXPAUStrBackupLara@@PAUStrItemTr4@@@Z ENDP ; RestoreLara
_TEXT	ENDS
PUBLIC	?BackupLara@@YAXPAUStrBackupLara@@PAUStrItemTr4@@@Z ; BackupLara
; Function compile flags: /Ogtp
;	COMDAT ?BackupLara@@YAXPAUStrBackupLara@@PAUStrItemTr4@@@Z
_TEXT	SEGMENT
?BackupLara@@YAXPAUStrBackupLara@@PAUStrItemTr4@@@Z PROC ; BackupLara, COMDAT
; _pBack$ = eax
; _pOggetto$ = ecx

; 2088 : 	DWORD *pCopiaOrientamento = (DWORD *)  0x80DF64; //   ;ZonaSave_FB_CopiaOrientamento
; 2089 : 
; 2090 : 	pBack->CopiaOrientamento = *pCopiaOrientamento;

  00000	8b 15 64 df 80
	00		 mov	 edx, DWORD PTR ds:8445796
  00006	89 50 1c	 mov	 DWORD PTR [eax+28], edx

; 2091 : 	pBack->AnimationNow  = pOggetto->AnimationNow;

  00009	0f b7 51 14	 movzx	 edx, WORD PTR [ecx+20]
  0000d	66 89 10	 mov	 WORD PTR [eax], dx

; 2092 : 	pBack->FrameNow  = pOggetto->FrameNow;

  00010	0f b7 51 16	 movzx	 edx, WORD PTR [ecx+22]
  00014	66 89 50 06	 mov	 WORD PTR [eax+6], dx

; 2093 : 	pBack->StateIdCurrent  =pOggetto->StateIdCurrent;

  00018	0f b7 51 0e	 movzx	 edx, WORD PTR [ecx+14]
  0001c	66 89 50 02	 mov	 WORD PTR [eax+2], dx

; 2094 : 	pBack->StateIdNext  = pOggetto->StateIdNext;

  00020	0f b7 51 10	 movzx	 edx, WORD PTR [ecx+16]
  00024	66 89 50 04	 mov	 WORD PTR [eax+4], dx

; 2095 : 	pBack->LaraRoom = pOggetto->Room;

  00028	0f b7 51 18	 movzx	 edx, WORD PTR [ecx+24]
  0002c	66 89 50 14	 mov	 WORD PTR [eax+20], dx

; 2096 : 	pBack->LaraX = pOggetto->CordX;

  00030	8b 51 40	 mov	 edx, DWORD PTR [ecx+64]
  00033	89 50 08	 mov	 DWORD PTR [eax+8], edx

; 2097 : 	pBack->LaraY = pOggetto->CordY;

  00036	8b 51 44	 mov	 edx, DWORD PTR [ecx+68]
  00039	89 50 0c	 mov	 DWORD PTR [eax+12], edx

; 2098 : 	pBack->LaraZ = pOggetto->CordZ;

  0003c	8b 51 48	 mov	 edx, DWORD PTR [ecx+72]
  0003f	89 50 10	 mov	 DWORD PTR [eax+16], edx

; 2099 : 	pBack->Orient = pOggetto->OrientationH;

  00042	0f b7 51 4e	 movzx	 edx, WORD PTR [ecx+78]
  00046	66 89 50 16	 mov	 WORD PTR [eax+22], dx

; 2100 : 	pBack->SpeedH = pOggetto->SpeedH;

  0004a	0f b7 51 1e	 movzx	 edx, WORD PTR [ecx+30]

; 2101 : 	pBack->SpeedV = pOggetto->SpeedV;

  0004e	66 8b 49 20	 mov	 cx, WORD PTR [ecx+32]
  00052	66 89 50 18	 mov	 WORD PTR [eax+24], dx
  00056	66 89 48 1a	 mov	 WORD PTR [eax+26], cx

; 2102 : 
; 2103 : }

  0005a	c3		 ret	 0
?BackupLara@@YAXPAUStrBackupLara@@PAUStrItemTr4@@@Z ENDP ; BackupLara
_TEXT	ENDS
PUBLIC	?FromNgleIndexToTomb4Index@@YAHH@Z		; FromNgleIndexToTomb4Index
; Function compile flags: /Ogtp
;	COMDAT ?FromNgleIndexToTomb4Index@@YAHH@Z
_TEXT	SEGMENT
?FromNgleIndexToTomb4Index@@YAHH@Z PROC			; FromNgleIndexToTomb4Index, COMDAT
; _NgleIndex$ = ecx

; 1975 : 	int i;
; 1976 : 
; 1977 : 	i= Trng.pGlobTomb4->VetRemapObjects[NgleIndex];
; 1978 : #ifdef DEBUG_ON
; 1979 : 	if (i == -1) {
; 1980 : 		SendToLog("ERROR: the Ngle index %d doesn't correspond to any tomb4 index",
; 1981 : 			NgleIndex);
; 1982 : 	}
; 1983 : #endif
; 1984 : 	
; 1985 : 	return i;

  00000	a1 04 00 00 00	 mov	 eax, DWORD PTR ?Trng@@3UStrTrngInfos@@A+4
  00005	0f bf 84 48 74
	2c 1a 00	 movsx	 eax, WORD PTR [eax+ecx*2+1715316]

; 1986 : }

  0000d	c3		 ret	 0
?FromNgleIndexToTomb4Index@@YAHH@Z ENDP			; FromNgleIndexToTomb4Index
_TEXT	ENDS
PUBLIC	?AbsDiffY@@YAHHH@Z				; AbsDiffY
; Function compile flags: /Ogtp
;	COMDAT ?AbsDiffY@@YAHHH@Z
_TEXT	SEGMENT
_Second$ = 8						; size = 4
?AbsDiffY@@YAHHH@Z PROC					; AbsDiffY, COMDAT
; _First$ = eax

; 1773 : {

  00000	55		 push	 ebp
  00001	8b ec		 mov	 ebp, esp

; 1774 : 
; 1775 : 	return abs(First - Second);

  00003	2b 45 08	 sub	 eax, DWORD PTR _Second$[ebp]
  00006	99		 cdq
  00007	33 c2		 xor	 eax, edx
  00009	2b c2		 sub	 eax, edx

; 1776 : }

  0000b	5d		 pop	 ebp
  0000c	c3		 ret	 0
?AbsDiffY@@YAHHH@Z ENDP					; AbsDiffY
_TEXT	ENDS
PUBLIC	?AbsDiff@@YAHKK@Z				; AbsDiff
; Function compile flags: /Ogtp
;	COMDAT ?AbsDiff@@YAHKK@Z
_TEXT	SEGMENT
_Second$ = 8						; size = 4
?AbsDiff@@YAHKK@Z PROC					; AbsDiff, COMDAT
; _First$ = eax

; 1766 : {

  00000	55		 push	 ebp
  00001	8b ec		 mov	 ebp, esp

; 1767 : 	return (int) abs((int) First - (int) Second);

  00003	2b 45 08	 sub	 eax, DWORD PTR _Second$[ebp]
  00006	99		 cdq
  00007	33 c2		 xor	 eax, edx
  00009	2b c2		 sub	 eax, edx

; 1768 : 
; 1769 : }

  0000b	5d		 pop	 ebp
  0000c	c3		 ret	 0
?AbsDiff@@YAHKK@Z ENDP					; AbsDiff
_TEXT	ENDS
PUBLIC	?Service@@YAHKZZ				; Service
; Function compile flags: /Ogtp
;	COMDAT ?Service@@YAHKZZ
_TEXT	SEGMENT
_SRV_Type$ = 8						; size = 4
?Service@@YAHKZZ PROC					; Service, COMDAT

; 1691 : {

  00000	55		 push	 ebp
  00001	8b ec		 mov	 ebp, esp

; 1692 : 	va_list pArgs;
; 1693 : 	
; 1694 : 	va_start(pArgs, SRV_Type);
; 1695 : 	
; 1696 : 	
; 1697 : 
; 1698 : 	return Trng.Service(Trng.IdMyPlugin, SRV_Type, pArgs);

  00003	8b 4d 08	 mov	 ecx, DWORD PTR _SRV_Type$[ebp]
  00006	8b 15 00 00 00
	00		 mov	 edx, DWORD PTR ?Trng@@3UStrTrngInfos@@A
  0000c	8d 45 0c	 lea	 eax, DWORD PTR _SRV_Type$[ebp+4]
  0000f	50		 push	 eax
  00010	51		 push	 ecx
  00011	52		 push	 edx
  00012	ff 15 10 00 00
	00		 call	 DWORD PTR ?Trng@@3UStrTrngInfos@@A+16

; 1699 : }

  00018	5d		 pop	 ebp
  00019	c3		 ret	 0
?Service@@YAHKZZ ENDP					; Service
_TEXT	ENDS
PUBLIC	?InitialiseEnums@@YAXXZ				; InitialiseEnums
; Function compile flags: /Ogtp
;	COMDAT ?InitialiseEnums@@YAXXZ
_TEXT	SEGMENT
?InitialiseEnums@@YAXXZ PROC				; InitialiseEnums, COMDAT

; 158  : {

  00000	53		 push	 ebx

; 159  : //  --------------- LOAD CONSTANTS FOR ENUM STRUCTURE: enumD3D----------------------
; 160  : 	enumD3D.NO_LIGHT = D3D_NO_LIGHT;
; 161  : 	enumD3D.SUN = D3D_SUN;
; 162  : 	enumD3D.LIGHT = D3D_LIGHT;

  00001	b8 01 00 00 00	 mov	 eax, 1

; 163  : 	enumD3D.SPOT_OR_EFFECT = D3D_SPOT_OR_EFFECT;

  00006	b9 02 00 00 00	 mov	 ecx, 2
  0000b	56		 push	 esi

; 164  : 	enumD3D.SHADOW = D3D_SHADOW;
; 165  : 	enumD3D.FOG_BULB = D3D_FOG_BULB;

  0000c	ba 04 00 00 00	 mov	 edx, 4
  00011	33 f6		 xor	 esi, esi

; 166  : 
; 167  : //  --------------- LOAD CONSTANTS FOR ENUM STRUCTURE: enumCOLF----------------------
; 168  : 	enumCOLF.WINDOWS_COLOR = COLF_WINDOWS_COLOR;
; 169  : 	enumCOLF.TOMB_COLOR = COLF_TOMB_COLOR;
; 170  : 
; 171  : //  --------------- LOAD CONSTANTS FOR ENUM STRUCTURE: enumFIL----------------------
; 172  : 	enumFIL.FROM_SAVEGAME = FIL_FROM_SAVEGAME;
; 173  : 	enumFIL.FROM_NEW_LEVEL = FIL_FROM_NEW_LEVEL;
; 174  : 	enumFIL.FROM_LEVEL_JUMP = FIL_FROM_LEVEL_JUMP;
; 175  : 	enumFIL.PRESERVE_LARA = FIL_PRESERVE_LARA;
; 176  : 	enumFIL.PRESERVE_LEVEL = FIL_PRESERVE_LEVEL;
; 177  : 	enumFIL.FROM_LIKE_SAVEGAME = FIL_FROM_LIKE_SAVEGAME;

  00013	bb 20 00 00 00	 mov	 ebx, 32			; 00000020H
  00018	57		 push	 edi
  00019	bf 10 00 00 00	 mov	 edi, 16			; 00000010H
  0001e	89 35 04 00 00
	00		 mov	 DWORD PTR ?enumD3D@@3UStrEnumD3D@@A+4, esi
  00024	89 35 00 00 00
	00		 mov	 DWORD PTR ?enumCOLF@@3UStrEnumCOLF@@A, esi
  0002a	be 08 00 00 00	 mov	 esi, 8
  0002f	c7 05 00 00 00
	00 ff ff ff ff	 mov	 DWORD PTR ?enumD3D@@3UStrEnumD3D@@A, -1
  00039	a3 08 00 00 00	 mov	 DWORD PTR ?enumD3D@@3UStrEnumD3D@@A+8, eax
  0003e	89 0d 0c 00 00
	00		 mov	 DWORD PTR ?enumD3D@@3UStrEnumD3D@@A+12, ecx
  00044	c7 05 10 00 00
	00 03 00 00 00	 mov	 DWORD PTR ?enumD3D@@3UStrEnumD3D@@A+16, 3
  0004e	89 15 14 00 00
	00		 mov	 DWORD PTR ?enumD3D@@3UStrEnumD3D@@A+20, edx
  00054	a3 04 00 00 00	 mov	 DWORD PTR ?enumCOLF@@3UStrEnumCOLF@@A+4, eax
  00059	a3 00 00 00 00	 mov	 DWORD PTR ?enumFIL@@3UStrEnumFIL@@A, eax
  0005e	89 0d 04 00 00
	00		 mov	 DWORD PTR ?enumFIL@@3UStrEnumFIL@@A+4, ecx
  00064	89 15 08 00 00
	00		 mov	 DWORD PTR ?enumFIL@@3UStrEnumFIL@@A+8, edx
  0006a	89 35 0c 00 00
	00		 mov	 DWORD PTR ?enumFIL@@3UStrEnumFIL@@A+12, esi
  00070	89 3d 10 00 00
	00		 mov	 DWORD PTR ?enumFIL@@3UStrEnumFIL@@A+16, edi
  00076	89 1d 14 00 00
	00		 mov	 DWORD PTR ?enumFIL@@3UStrEnumFIL@@A+20, ebx

; 178  : 
; 179  : //  --------------- LOAD CONSTANTS FOR ENUM STRUCTURE: enumSAVT----------------------
; 180  : 	enumSAVT.LOCAL_DATA = SAVT_LOCAL_DATA;

  0007c	a3 00 00 00 00	 mov	 DWORD PTR ?enumSAVT@@3UStrEnumSAVT@@A, eax

; 181  : 	enumSAVT.GLOBAL_DATA = SAVT_GLOBAL_DATA;

  00081	89 0d 04 00 00
	00		 mov	 DWORD PTR ?enumSAVT@@3UStrEnumSAVT@@A+4, ecx

; 182  : 	enumSAVT.COMPLETED = SAVT_COMPLETED;

  00087	c7 05 08 00 00
	00 00 08 00 00	 mov	 DWORD PTR ?enumSAVT@@3UStrEnumSAVT@@A+8, 2048 ; 00000800H

; 183  : 
; 184  : //  --------------- LOAD CONSTANTS FOR ENUM STRUCTURE: enumCONV----------------------
; 185  : 	enumCONV.ItemIndexFromNgleToTomb = CONV_ItemIndexFromNgleToTomb;

  00091	a3 00 00 00 00	 mov	 DWORD PTR ?enumCONV@@3UStrEnumCONV@@A, eax

; 186  : 	enumCONV.ItemIndexFromTombToNgle = CONV_ItemIndexFromTombToNgle;

  00096	89 0d 04 00 00
	00		 mov	 DWORD PTR ?enumCONV@@3UStrEnumCONV@@A+4, ecx

; 187  : 	enumCONV.StaticIndexFromNgleToTomb = CONV_StaticIndexFromNgleToTomb;

  0009c	c7 05 08 00 00
	00 03 00 00 00	 mov	 DWORD PTR ?enumCONV@@3UStrEnumCONV@@A+8, 3

; 188  : 	enumCONV.StaticIndexFromTombToNgle = CONV_StaticIndexFromTombToNgle;

  000a6	89 15 0c 00 00
	00		 mov	 DWORD PTR ?enumCONV@@3UStrEnumCONV@@A+12, edx

; 189  : 	enumCONV.RectFromMicroUnitsToPixels = CONV_RectFromMicroUnitsToPixels;

  000ac	c7 05 10 00 00
	00 05 00 00 00	 mov	 DWORD PTR ?enumCONV@@3UStrEnumCONV@@A+16, 5

; 190  : 	enumCONV.AnimIndexFromRelativeToAbs = CONV_AnimIndexFromRelativeToAbs;

  000b6	c7 05 14 00 00
	00 06 00 00 00	 mov	 DWORD PTR ?enumCONV@@3UStrEnumCONV@@A+20, 6

; 191  : 	enumCONV.AnimIndexFromAbsToRelative = CONV_AnimIndexFromAbsToRelative;

  000c0	c7 05 18 00 00
	00 07 00 00 00	 mov	 DWORD PTR ?enumCONV@@3UStrEnumCONV@@A+24, 7

; 192  : 	enumCONV.ItemFromStrItemTr4ToIndex = CONV_ItemFromStrItemTr4ToIndex;

  000ca	89 35 1c 00 00
	00		 mov	 DWORD PTR ?enumCONV@@3UStrEnumCONV@@A+28, esi

; 193  : 	enumCONV.RoomIndexFromNgleToTomb = CONV_RoomIndexFromNgleToTomb;

  000d0	c7 05 20 00 00
	00 09 00 00 00	 mov	 DWORD PTR ?enumCONV@@3UStrEnumCONV@@A+32, 9

; 194  : 	enumCONV.RoomIndexFromTombToNgle = CONV_RoomIndexFromTombToNgle;

  000da	c7 05 24 00 00
	00 0a 00 00 00	 mov	 DWORD PTR ?enumCONV@@3UStrEnumCONV@@A+36, 10 ; 0000000aH

; 195  : 	enumCONV.FrameIndexFromAbsToRelative = CONV_FrameIndexFromAbsToRelative;

  000e4	c7 05 28 00 00
	00 0b 00 00 00	 mov	 DWORD PTR ?enumCONV@@3UStrEnumCONV@@A+40, 11 ; 0000000bH

; 196  : 	enumCONV.FrameIndexFromRelativeToAbs = CONV_FrameIndexFromRelativeToAbs;

  000ee	c7 05 2c 00 00
	00 0c 00 00 00	 mov	 DWORD PTR ?enumCONV@@3UStrEnumCONV@@A+44, 12 ; 0000000cH

; 197  : 
; 198  : //  --------------- LOAD CONSTANTS FOR ENUM STRUCTURE: enumFL----------------------
; 199  : 	enumFL.HOLDS_FLARE_OR_TORCH = FL_HOLDS_FLARE_OR_TORCH;

  000f8	a3 00 00 00 00	 mov	 DWORD PTR ?enumFL@@3UStrEnumFL@@A, eax

; 200  : 	enumFL.UNKNOWN_02 = FL_UNKNOWN_02;

  000fd	89 0d 04 00 00
	00		 mov	 DWORD PTR ?enumFL@@3UStrEnumFL@@A+4, ecx

; 201  : 	enumFL.SPECIAL_STATE = FL_SPECIAL_STATE;

  00103	89 15 08 00 00
	00		 mov	 DWORD PTR ?enumFL@@3UStrEnumFL@@A+8, edx

; 202  : 	enumFL.IS_BURNING = FL_IS_BURNING;

  00109	89 35 0c 00 00
	00		 mov	 DWORD PTR ?enumFL@@3UStrEnumFL@@A+12, esi

; 203  : 	enumFL.ON_ALL_FOUR = FL_ON_ALL_FOUR;

  0010f	89 3d 10 00 00
	00		 mov	 DWORD PTR ?enumFL@@3UStrEnumFL@@A+16, edi

; 204  : 	enumFL.SELF_ALIGNMENT = FL_SELF_ALIGNMENT;

  00115	89 1d 14 00 00
	00		 mov	 DWORD PTR ?enumFL@@3UStrEnumFL@@A+20, ebx

; 205  : 	enumFL.UNDER_MONKEY_SECTOR = FL_UNDER_MONKEY_SECTOR;

  0011b	c7 05 18 00 00
	00 40 00 00 00	 mov	 DWORD PTR ?enumFL@@3UStrEnumFL@@A+24, 64 ; 00000040H

; 206  : 
; 207  : //  --------------- LOAD CONSTANTS FOR ENUM STRUCTURE: enumRIB----------------------
; 208  : 	enumRIB.ONLY_DIGITS = RIB_ONLY_DIGITS;

  00125	a3 00 00 00 00	 mov	 DWORD PTR ?enumRIB@@3UStrEnumRIB@@A, eax

; 209  : 	enumRIB.ONLY_LETTERS = RIB_ONLY_LETTERS;

  0012a	89 0d 04 00 00
	00		 mov	 DWORD PTR ?enumRIB@@3UStrEnumRIB@@A+4, ecx

; 210  : 	enumRIB.HIDE_CARET = RIB_HIDE_CARET;

  00130	89 15 08 00 00
	00		 mov	 DWORD PTR ?enumRIB@@3UStrEnumRIB@@A+8, edx

; 211  : 	enumRIB.BLINK_CARET = RIB_BLINK_CARET;

  00136	89 35 0c 00 00
	00		 mov	 DWORD PTR ?enumRIB@@3UStrEnumRIB@@A+12, esi

; 212  : 	enumRIB.SOUND_ON_KEY = RIB_SOUND_ON_KEY;

  0013c	89 3d 10 00 00
	00		 mov	 DWORD PTR ?enumRIB@@3UStrEnumRIB@@A+16, edi

; 213  : 	enumRIB.PRINT_ONLY = RIB_PRINT_ONLY;

  00142	89 1d 14 00 00
	00		 mov	 DWORD PTR ?enumRIB@@3UStrEnumRIB@@A+20, ebx

; 214  : 	enumRIB.ALIGN_CENTER = RIB_ALIGN_CENTER;

  00148	c7 05 18 00 00
	00 40 00 00 00	 mov	 DWORD PTR ?enumRIB@@3UStrEnumRIB@@A+24, 64 ; 00000040H

; 215  : 	enumRIB.ONLY_CAPS = RIB_ONLY_CAPS;

  00152	c7 05 1c 00 00
	00 80 00 00 00	 mov	 DWORD PTR ?enumRIB@@3UStrEnumRIB@@A+28, 128 ; 00000080H

; 216  : 	enumRIB.PRINT_BIG_TEXT = RIB_PRINT_BIG_TEXT;

  0015c	c7 05 20 00 00
	00 00 01 00 00	 mov	 DWORD PTR ?enumRIB@@3UStrEnumRIB@@A+32, 256 ; 00000100H

; 217  : 	enumRIB.INPUT_BELOW_BIG_TEXT = RIB_INPUT_BELOW_BIG_TEXT;

  00166	c7 05 24 00 00
	00 00 02 00 00	 mov	 DWORD PTR ?enumRIB@@3UStrEnumRIB@@A+36, 512 ; 00000200H

; 218  : 	enumRIB.ADD_SCANCODE_LIST = RIB_ADD_SCANCODE_LIST;

  00170	c7 05 28 00 00
	00 00 04 00 00	 mov	 DWORD PTR ?enumRIB@@3UStrEnumRIB@@A+40, 1024 ; 00000400H

; 219  : 	enumRIB.SHORTCUT_KEY = RIB_SHORTCUT_KEY;

  0017a	c7 05 2c 00 00
	00 00 08 00 00	 mov	 DWORD PTR ?enumRIB@@3UStrEnumRIB@@A+44, 2048 ; 00000800H

; 220  : 	enumRIB.HIDE_TEXT = RIB_HIDE_TEXT;

  00184	c7 05 30 00 00
	00 00 10 00 00	 mov	 DWORD PTR ?enumRIB@@3UStrEnumRIB@@A+48, 4096 ; 00001000H

; 221  : 
; 222  : //  --------------- LOAD CONSTANTS FOR ENUM STRUCTURE: enumWTF----------------------
; 223  : 	enumWTF.FLYING_TEXT = WTF_FLYING_TEXT;

  0018e	a3 00 00 00 00	 mov	 DWORD PTR ?enumWTF@@3UStrEnumWTF@@A, eax

; 224  : 	enumWTF.PULSING_TEXT = WTF_PULSING_TEXT;

  00193	89 0d 04 00 00
	00		 mov	 DWORD PTR ?enumWTF@@3UStrEnumWTF@@A+4, ecx

; 225  : 	enumWTF.CHANGE_COLOR = WTF_CHANGE_COLOR;

  00199	89 15 08 00 00
	00		 mov	 DWORD PTR ?enumWTF@@3UStrEnumWTF@@A+8, edx

; 226  : 	enumWTF.OVER_INVENTORY = WTF_OVER_INVENTORY;

  0019f	89 35 0c 00 00
	00		 mov	 DWORD PTR ?enumWTF@@3UStrEnumWTF@@A+12, esi

; 227  : 	enumWTF.OVER_IMAGE = WTF_OVER_IMAGE;

  001a5	89 3d 10 00 00
	00		 mov	 DWORD PTR ?enumWTF@@3UStrEnumWTF@@A+16, edi

; 228  : 	enumWTF.OVER_FLYCAMERA = WTF_OVER_FLYCAMERA;

  001ab	89 1d 14 00 00
	00		 mov	 DWORD PTR ?enumWTF@@3UStrEnumWTF@@A+20, ebx

; 229  : 	enumWTF.OVER_FIXCAMERA = WTF_OVER_FIXCAMERA;

  001b1	c7 05 18 00 00
	00 40 00 00 00	 mov	 DWORD PTR ?enumWTF@@3UStrEnumWTF@@A+24, 64 ; 00000040H

; 230  : 	enumWTF.OVER_BINOCULAR = WTF_OVER_BINOCULAR;

  001bb	c7 05 1c 00 00
	00 80 00 00 00	 mov	 DWORD PTR ?enumWTF@@3UStrEnumWTF@@A+28, 128 ; 00000080H

; 231  : 	enumWTF.OVER_LASER_SIGHT = WTF_OVER_LASER_SIGHT;

  001c5	c7 05 20 00 00
	00 00 01 00 00	 mov	 DWORD PTR ?enumWTF@@3UStrEnumWTF@@A+32, 256 ; 00000100H

; 232  : 
; 233  : //  --------------- LOAD CONSTANTS FOR ENUM STRUCTURE: enumFT----------------------
; 234  : 	enumFT.HALF_SIZEX = FT_HALF_SIZEX;

  001cf	a3 00 00 00 00	 mov	 DWORD PTR ?enumFT@@3UStrEnumFT@@A, eax

; 235  : 	enumFT.HALF_SIZEY = FT_HALF_SIZEY;

  001d4	89 0d 04 00 00
	00		 mov	 DWORD PTR ?enumFT@@3UStrEnumFT@@A+4, ecx

; 236  : 	enumFT.DOUBLE_SIZEX = FT_DOUBLE_SIZEX;

  001da	89 15 08 00 00
	00		 mov	 DWORD PTR ?enumFT@@3UStrEnumFT@@A+8, edx

; 237  : 	enumFT.DOUBLE_SIZEY = FT_DOUBLE_SIZEY;

  001e0	89 35 0c 00 00
	00		 mov	 DWORD PTR ?enumFT@@3UStrEnumFT@@A+12, esi

; 238  : 	enumFT.LITTLE_ALWAYS = FT_LITTLE_ALWAYS;

  001e6	89 3d 10 00 00
	00		 mov	 DWORD PTR ?enumFT@@3UStrEnumFT@@A+16, edi

; 239  : 	enumFT.USE_FLOAT = FT_USE_FLOAT;

  001ec	89 1d 14 00 00
	00		 mov	 DWORD PTR ?enumFT@@3UStrEnumFT@@A+20, ebx

; 240  : 	enumFT.NO_BORDERS = FT_NO_BORDERS;

  001f2	c7 05 18 00 00
	00 40 00 00 00	 mov	 DWORD PTR ?enumFT@@3UStrEnumFT@@A+24, 64 ; 00000040H

; 241  : 	enumFT.SIZE_ATOMIC_CHAR = FT_SIZE_ATOMIC_CHAR;

  001fc	c7 05 1c 00 00
	00 80 00 00 00	 mov	 DWORD PTR ?enumFT@@3UStrEnumFT@@A+28, 128 ; 00000080H

; 242  : 
; 243  : //  --------------- LOAD CONSTANTS FOR ENUM STRUCTURE: enumFTS----------------------
; 244  : 	enumFTS.ALIGN_LEFT = FTS_ALIGN_LEFT;

  00206	c7 05 00 00 00
	00 00 00 00 00	 mov	 DWORD PTR ?enumFTS@@3UStrEnumFTS@@A, 0

; 245  : 	enumFTS.STRETCH_TEXT = FTS_STRETCH_TEXT;

  00210	c7 05 04 00 00
	00 00 10 00 00	 mov	 DWORD PTR ?enumFTS@@3UStrEnumFTS@@A+4, 4096 ; 00001000H

; 246  : 	enumFTS.BLINK = FTS_BLINK;

  0021a	c7 05 08 00 00
	00 00 20 00 00	 mov	 DWORD PTR ?enumFTS@@3UStrEnumFTS@@A+8, 8192 ; 00002000H

; 247  : 	enumFTS.ALIGN_RIGHT = FTS_ALIGN_RIGHT;

  00224	c7 05 0c 00 00
	00 00 40 00 00	 mov	 DWORD PTR ?enumFTS@@3UStrEnumFTS@@A+12, 16384 ; 00004000H

; 248  : 	enumFTS.ALIGN_CENTER = FTS_ALIGN_CENTER;

  0022e	c7 05 10 00 00
	00 00 80 00 00	 mov	 DWORD PTR ?enumFTS@@3UStrEnumFTS@@A+16, 32768 ; 00008000H

; 249  : 
; 250  : //  --------------- LOAD CONSTANTS FOR ENUM STRUCTURE: enumFC----------------------
; 251  : 	enumFC.WHITE_PULSE = FC_WHITE_PULSE;

  00238	a3 00 00 00 00	 mov	 DWORD PTR ?enumFC@@3UStrEnumFC@@A, eax

; 252  : 	enumFC.WHITE = FC_WHITE;

  0023d	89 0d 04 00 00
	00		 mov	 DWORD PTR ?enumFC@@3UStrEnumFC@@A+4, ecx

; 253  : 	enumFC.RED = FC_RED;

  00243	c7 05 08 00 00
	00 03 00 00 00	 mov	 DWORD PTR ?enumFC@@3UStrEnumFC@@A+8, 3

; 254  : 	enumFC.BLUE = FC_BLUE;

  0024d	89 15 0c 00 00
	00		 mov	 DWORD PTR ?enumFC@@3UStrEnumFC@@A+12, edx

; 255  : 	enumFC.LIGHT_GRAY = FC_LIGHT_GRAY;

  00253	c7 05 10 00 00
	00 05 00 00 00	 mov	 DWORD PTR ?enumFC@@3UStrEnumFC@@A+16, 5

; 256  : 	enumFC.GOLD = FC_GOLD;

  0025d	c7 05 14 00 00
	00 06 00 00 00	 mov	 DWORD PTR ?enumFC@@3UStrEnumFC@@A+20, 6

; 257  : 	enumFC.DARK_GRAY = FC_DARK_GRAY;

  00267	c7 05 18 00 00
	00 07 00 00 00	 mov	 DWORD PTR ?enumFC@@3UStrEnumFC@@A+24, 7

; 258  : 	enumFC.YELLOW = FC_YELLOW;

  00271	89 35 1c 00 00
	00		 mov	 DWORD PTR ?enumFC@@3UStrEnumFC@@A+28, esi

; 259  : 
; 260  : //  --------------- LOAD CONSTANTS FOR ENUM STRUCTURE: enumPRET----------------------
; 261  : 	enumPRET.OK = PRET_OK;

  00277	c7 05 00 00 00
	00 00 00 00 00	 mov	 DWORD PTR ?enumPRET@@3UStrEnumPRET@@A, 0

; 262  : 	enumPRET.GO_TO_TITLE = PRET_GO_TO_TITLE;

  00281	a3 04 00 00 00	 mov	 DWORD PTR ?enumPRET@@3UStrEnumPRET@@A+4, eax

; 263  : 	enumPRET.EXECUTE_ORIGINAL = PRET_EXECUTE_ORIGINAL;

  00286	89 0d 08 00 00
	00		 mov	 DWORD PTR ?enumPRET@@3UStrEnumPRET@@A+8, ecx

; 264  : 
; 265  : //  --------------- LOAD CONSTANTS FOR ENUM STRUCTURE: enumPHASE----------------------
; 266  : 	enumPHASE.INVENTORY_MAIN = PHASE_INVENTORY_MAIN;

  0028c	a3 00 00 00 00	 mov	 DWORD PTR ?enumPHASE@@3UStrEnumPHASE@@A, eax

; 267  : 	enumPHASE.PAUSE_SCREEN = PHASE_PAUSE_SCREEN;

  00291	89 0d 04 00 00
	00		 mov	 DWORD PTR ?enumPHASE@@3UStrEnumPHASE@@A+4, ecx

; 268  : 	enumPHASE.LOAD_GAME_PANEL = PHASE_LOAD_GAME_PANEL;

  00297	c7 05 08 00 00
	00 03 00 00 00	 mov	 DWORD PTR ?enumPHASE@@3UStrEnumPHASE@@A+8, 3

; 269  : 	enumPHASE.SAVE_GAME_PANEL = PHASE_SAVE_GAME_PANEL;

  002a1	89 15 0c 00 00
	00		 mov	 DWORD PTR ?enumPHASE@@3UStrEnumPHASE@@A+12, edx

; 270  : 	enumPHASE.OPTIONS = PHASE_OPTIONS;

  002a7	c7 05 10 00 00
	00 05 00 00 00	 mov	 DWORD PTR ?enumPHASE@@3UStrEnumPHASE@@A+16, 5

; 271  : 	enumPHASE.OPTION_COMMANDS = PHASE_OPTION_COMMANDS;

  002b1	c7 05 14 00 00
	00 06 00 00 00	 mov	 DWORD PTR ?enumPHASE@@3UStrEnumPHASE@@A+20, 6

; 272  : 	enumPHASE.STATISTICS = PHASE_STATISTICS;

  002bb	c7 05 18 00 00
	00 07 00 00 00	 mov	 DWORD PTR ?enumPHASE@@3UStrEnumPHASE@@A+24, 7

; 273  : 	enumPHASE.NEW_LEVEL = PHASE_NEW_LEVEL;

  002c5	89 35 1c 00 00
	00		 mov	 DWORD PTR ?enumPHASE@@3UStrEnumPHASE@@A+28, esi

; 274  : 	enumPHASE.TITLE_MENU = PHASE_TITLE_MENU;

  002cb	c7 05 20 00 00
	00 09 00 00 00	 mov	 DWORD PTR ?enumPHASE@@3UStrEnumPHASE@@A+32, 9

; 275  : 	enumPHASE.INVENTORY_EXAMINE = PHASE_INVENTORY_EXAMINE;

  002d5	c7 05 24 00 00
	00 0a 00 00 00	 mov	 DWORD PTR ?enumPHASE@@3UStrEnumPHASE@@A+36, 10 ; 0000000aH

; 276  : 
; 277  : //  --------------- LOAD CONSTANTS FOR ENUM STRUCTURE: enumIRET----------------------
; 278  : 	enumIRET.OK = IRET_OK;

  002df	c7 05 00 00 00
	00 00 00 00 00	 mov	 DWORD PTR ?enumIRET@@3UStrEnumIRET@@A, 0

; 279  : 	enumIRET.SKIP_ORIGINAL = IRET_SKIP_ORIGINAL;

  002e9	a3 04 00 00 00	 mov	 DWORD PTR ?enumIRET@@3UStrEnumIRET@@A+4, eax

; 280  : 	enumIRET.LOADED_GAME = IRET_LOADED_GAME;

  002ee	89 0d 08 00 00
	00		 mov	 DWORD PTR ?enumIRET@@3UStrEnumIRET@@A+8, ecx

; 281  : 
; 282  : //  --------------- LOAD CONSTANTS FOR ENUM STRUCTURE: enumCPU----------------------
; 283  : 	enumCPU.CARRY = CPU_CARRY;

  002f4	a3 00 00 00 00	 mov	 DWORD PTR ?enumCPU@@3UStrEnumCPU@@A, eax

; 284  : 	enumCPU.PARITY = CPU_PARITY;

  002f9	89 15 04 00 00
	00		 mov	 DWORD PTR ?enumCPU@@3UStrEnumCPU@@A+4, edx

; 285  : 	enumCPU.ZERO = CPU_ZERO;

  002ff	c7 05 08 00 00
	00 40 00 00 00	 mov	 DWORD PTR ?enumCPU@@3UStrEnumCPU@@A+8, 64 ; 00000040H

; 286  : 	enumCPU.SIGN = CPU_SIGN;

  00309	c7 05 0c 00 00
	00 80 00 00 00	 mov	 DWORD PTR ?enumCPU@@3UStrEnumCPU@@A+12, 128 ; 00000080H

; 287  : 
; 288  : //  --------------- LOAD CONSTANTS FOR ENUM STRUCTURE: enumAPPC----------------------
; 289  : 	enumAPPC.OK = APPC_OK;

  00313	c7 05 00 00 00
	00 00 00 00 00	 mov	 DWORD PTR ?enumAPPC@@3UStrEnumAPPC@@A, 0

; 290  : 	enumAPPC.WARN_PATCH_ALREADY_PERFORMED = APPC_WARN_PATCH_ALREADY_PERFORMED;

  0031d	a3 04 00 00 00	 mov	 DWORD PTR ?enumAPPC@@3UStrEnumAPPC@@A+4, eax

; 291  : 	enumAPPC.WARN_PLUGIN_REMOVED_RELOCATION_OF_PROCEDURE = APPC_WARN_PLUGIN_REMOVED_RELOCATION_OF_PROCEDURE;

  00322	89 0d 08 00 00
	00		 mov	 DWORD PTR ?enumAPPC@@3UStrEnumAPPC@@A+8, ecx

; 292  : 	enumAPPC.WARN_PATCH_IN_A_RILOC_RESTORED_PROCEDURE = APPC_WARN_PATCH_IN_A_RILOC_RESTORED_PROCEDURE;

  00328	c7 05 0c 00 00
	00 03 00 00 00	 mov	 DWORD PTR ?enumAPPC@@3UStrEnumAPPC@@A+12, 3

; 293  : 	enumAPPC.WARN_PATCH_OVER_OLD_PATCH = APPC_WARN_PATCH_OVER_OLD_PATCH;

  00332	89 15 10 00 00
	00		 mov	 DWORD PTR ?enumAPPC@@3UStrEnumAPPC@@A+16, edx

; 294  : 	enumAPPC.WARN_PATCH_OVER_CHANGED_ARGUMENTS = APPC_WARN_PATCH_OVER_CHANGED_ARGUMENTS;

  00338	c7 05 14 00 00
	00 05 00 00 00	 mov	 DWORD PTR ?enumAPPC@@3UStrEnumAPPC@@A+20, 5

; 295  : 	enumAPPC.ERROR_PLUGIN_ID_UNREGISTERED = APPC_ERROR_PLUGIN_ID_UNREGISTERED;

  00342	c7 05 18 00 00
	00 ff ff ff ff	 mov	 DWORD PTR ?enumAPPC@@3UStrEnumAPPC@@A+24, -1

; 296  : 	enumAPPC.ERROR_PATCH_OVERLAPPED_TO_RUNTIME_PATCH = APPC_ERROR_PATCH_OVERLAPPED_TO_RUNTIME_PATCH;

  0034c	c7 05 1c 00 00
	00 fe ff ff ff	 mov	 DWORD PTR ?enumAPPC@@3UStrEnumAPPC@@A+28, -2 ; fffffffeH

; 297  : 	enumAPPC.ERROR_PATCH_IN_RILOCATED_PROCEDURE = APPC_ERROR_PATCH_IN_RILOCATED_PROCEDURE;

  00356	c7 05 20 00 00
	00 fd ff ff ff	 mov	 DWORD PTR ?enumAPPC@@3UStrEnumAPPC@@A+32, -3 ; fffffffdH

; 298  : 	enumAPPC.ERROR_NOT_FOUND_TOMB4_IMAGE = APPC_ERROR_NOT_FOUND_TOMB4_IMAGE;

  00360	c7 05 24 00 00
	00 fc ff ff ff	 mov	 DWORD PTR ?enumAPPC@@3UStrEnumAPPC@@A+36, -4 ; fffffffcH

; 299  : 	enumAPPC.ERROR_RESTORE_ZONE_OUTSIDE_CODE_RANGE = APPC_ERROR_RESTORE_ZONE_OUTSIDE_CODE_RANGE;

  0036a	c7 05 28 00 00
	00 fb ff ff ff	 mov	 DWORD PTR ?enumAPPC@@3UStrEnumAPPC@@A+40, -5 ; fffffffbH

; 300  : 	enumAPPC.ERROR_WRONG_PATCH_FOR_RUN_TIME = APPC_ERROR_WRONG_PATCH_FOR_RUN_TIME;

  00374	c7 05 2c 00 00
	00 fa ff ff ff	 mov	 DWORD PTR ?enumAPPC@@3UStrEnumAPPC@@A+44, -6 ; fffffffaH

; 301  : 	enumAPPC.ERROR_PATCH_OUTSIDE_CODE_SEGMENT = APPC_ERROR_PATCH_OUTSIDE_CODE_SEGMENT;

  0037e	c7 05 30 00 00
	00 f9 ff ff ff	 mov	 DWORD PTR ?enumAPPC@@3UStrEnumAPPC@@A+48, -7 ; fffffff9H

; 302  : 	enumAPPC.ERROR_PATCH_OVERLAPPED_TO_RESERVED_ZONE = APPC_ERROR_PATCH_OVERLAPPED_TO_RESERVED_ZONE;

  00388	c7 05 34 00 00
	00 f8 ff ff ff	 mov	 DWORD PTR ?enumAPPC@@3UStrEnumAPPC@@A+52, -8 ; fffffff8H

; 303  : 	enumAPPC.ERROR_RESERVED_ZONE_ALREADY_USED = APPC_ERROR_RESERVED_ZONE_ALREADY_USED;

  00392	c7 05 38 00 00
	00 f7 ff ff ff	 mov	 DWORD PTR ?enumAPPC@@3UStrEnumAPPC@@A+56, -9 ; fffffff7H

; 304  : 
; 305  : //  --------------- LOAD CONSTANTS FOR ENUM STRUCTURE: enumCB----------------------
; 306  : 	enumCB.INIT_PROGRAM = CB_INIT_PROGRAM;

  0039c	c7 05 00 00 00
	00 00 00 00 00	 mov	 DWORD PTR ?enumCB@@3UStrEnumCB@@A, 0

; 307  : 	enumCB.SAVING_GAME = CB_SAVING_GAME;

  003a6	a3 04 00 00 00	 mov	 DWORD PTR ?enumCB@@3UStrEnumCB@@A+4, eax

; 308  : 	enumCB.LOADING_GAME = CB_LOADING_GAME;

  003ab	89 0d 08 00 00
	00		 mov	 DWORD PTR ?enumCB@@3UStrEnumCB@@A+8, ecx

; 309  : 	enumCB.INIT_GAME = CB_INIT_GAME;

  003b1	c7 05 0c 00 00
	00 03 00 00 00	 mov	 DWORD PTR ?enumCB@@3UStrEnumCB@@A+12, 3

; 310  : 	enumCB.INIT_LOAD_NEW_LEVEL = CB_INIT_LOAD_NEW_LEVEL;

  003bb	89 15 10 00 00
	00		 mov	 DWORD PTR ?enumCB@@3UStrEnumCB@@A+16, edx

; 311  : 	enumCB.FLIPEFFECT_MINE = CB_FLIPEFFECT_MINE;

  003c1	c7 05 14 00 00
	00 05 00 00 00	 mov	 DWORD PTR ?enumCB@@3UStrEnumCB@@A+20, 5

; 312  : 	enumCB.ACTION_MINE = CB_ACTION_MINE;

  003cb	c7 05 18 00 00
	00 06 00 00 00	 mov	 DWORD PTR ?enumCB@@3UStrEnumCB@@A+24, 6

; 313  : 	enumCB.CONDITION_MINE = CB_CONDITION_MINE;

  003d5	c7 05 1c 00 00
	00 07 00 00 00	 mov	 DWORD PTR ?enumCB@@3UStrEnumCB@@A+28, 7

; 314  : 	enumCB.CUSTOMIZE_MINE = CB_CUSTOMIZE_MINE;

  003df	89 35 20 00 00
	00		 mov	 DWORD PTR ?enumCB@@3UStrEnumCB@@A+32, esi

; 315  : 	enumCB.PARAMETER_MINE = CB_PARAMETER_MINE;

  003e5	c7 05 24 00 00
	00 09 00 00 00	 mov	 DWORD PTR ?enumCB@@3UStrEnumCB@@A+36, 9

; 316  : 	enumCB.CYCLE_BEGIN = CB_CYCLE_BEGIN;

  003ef	c7 05 28 00 00
	00 0a 00 00 00	 mov	 DWORD PTR ?enumCB@@3UStrEnumCB@@A+40, 10 ; 0000000aH

; 317  : 	enumCB.CYCLE_END = CB_CYCLE_END;

  003f9	c7 05 2c 00 00
	00 0b 00 00 00	 mov	 DWORD PTR ?enumCB@@3UStrEnumCB@@A+44, 11 ; 0000000bH

; 318  : 	enumCB.GLOBAL_TRIGGER = CB_GLOBAL_TRIGGER;

  00403	c7 05 30 00 00
	00 0c 00 00 00	 mov	 DWORD PTR ?enumCB@@3UStrEnumCB@@A+48, 12 ; 0000000cH

; 319  : 	enumCB.INIT_OBJECTS = CB_INIT_OBJECTS;

  0040d	c7 05 34 00 00
	00 0d 00 00 00	 mov	 DWORD PTR ?enumCB@@3UStrEnumCB@@A+52, 13 ; 0000000dH

; 320  : 	enumCB.PROGR_ACTION_MINE = CB_PROGR_ACTION_MINE;

  00417	c7 05 38 00 00
	00 0e 00 00 00	 mov	 DWORD PTR ?enumCB@@3UStrEnumCB@@A+56, 14 ; 0000000eH

; 321  : 	enumCB.PROGR_ACTION_DRAW_MINE = CB_PROGR_ACTION_DRAW_MINE;

  00421	c7 05 3c 00 00
	00 0f 00 00 00	 mov	 DWORD PTR ?enumCB@@3UStrEnumCB@@A+60, 15 ; 0000000fH

; 322  : 	enumCB.INIT_LEVEL = CB_INIT_LEVEL;

  0042b	89 3d 40 00 00
	00		 mov	 DWORD PTR ?enumCB@@3UStrEnumCB@@A+64, edi

; 323  : 	enumCB.COMPLETED_PROGR_ACTION = CB_COMPLETED_PROGR_ACTION;

  00431	c7 05 44 00 00
	00 11 00 00 00	 mov	 DWORD PTR ?enumCB@@3UStrEnumCB@@A+68, 17 ; 00000011H

; 324  : 	enumCB.VEHICLE = CB_VEHICLE;

  0043b	c7 05 48 00 00
	00 12 00 00 00	 mov	 DWORD PTR ?enumCB@@3UStrEnumCB@@A+72, 18 ; 00000012H

; 325  : 	enumCB.ASSIGN_SLOT_MINE = CB_ASSIGN_SLOT_MINE;

  00445	c7 05 4c 00 00
	00 13 00 00 00	 mov	 DWORD PTR ?enumCB@@3UStrEnumCB@@A+76, 19 ; 00000013H

; 326  : 	enumCB.FMV_MANAGER = CB_FMV_MANAGER;

  0044f	c7 05 50 00 00
	00 14 00 00 00	 mov	 DWORD PTR ?enumCB@@3UStrEnumCB@@A+80, 20 ; 00000014H

; 327  : 	enumCB.INPUT_MANAGER = CB_INPUT_MANAGER;

  00459	c7 05 54 00 00
	00 15 00 00 00	 mov	 DWORD PTR ?enumCB@@3UStrEnumCB@@A+84, 21 ; 00000015H

; 328  : 	enumCB.SAVEGAME_MANAGER = CB_SAVEGAME_MANAGER;

  00463	c7 05 58 00 00
	00 16 00 00 00	 mov	 DWORD PTR ?enumCB@@3UStrEnumCB@@A+88, 22 ; 00000016H

; 329  : 	enumCB.PAUSE_MANAGER = CB_PAUSE_MANAGER;

  0046d	c7 05 5c 00 00
	00 17 00 00 00	 mov	 DWORD PTR ?enumCB@@3UStrEnumCB@@A+92, 23 ; 00000017H

; 330  : 	enumCB.STATISTICS_MANAGER = CB_STATISTICS_MANAGER;

  00477	c7 05 60 00 00
	00 18 00 00 00	 mov	 DWORD PTR ?enumCB@@3UStrEnumCB@@A+96, 24 ; 00000018H

; 331  : 	enumCB.TITLE_MENU_MANAGER = CB_TITLE_MENU_MANAGER;

  00481	c7 05 64 00 00
	00 19 00 00 00	 mov	 DWORD PTR ?enumCB@@3UStrEnumCB@@A+100, 25 ; 00000019H

; 332  : 	enumCB.WINDOWS_FONT_CREATE = CB_WINDOWS_FONT_CREATE;

  0048b	c7 05 68 00 00
	00 1a 00 00 00	 mov	 DWORD PTR ?enumCB@@3UStrEnumCB@@A+104, 26 ; 0000001aH

; 333  : 	enumCB.WINDOWS_UNICODE_CONVERT = CB_WINDOWS_UNICODE_CONVERT;

  00495	c7 05 6c 00 00
	00 1b 00 00 00	 mov	 DWORD PTR ?enumCB@@3UStrEnumCB@@A+108, 27 ; 0000001bH

; 334  : 	enumCB.WINDOWS_TEXT_PRINT = CB_WINDOWS_TEXT_PRINT;

  0049f	c7 05 70 00 00
	00 1c 00 00 00	 mov	 DWORD PTR ?enumCB@@3UStrEnumCB@@A+112, 28 ; 0000001cH

; 335  : 	enumCB.DIAGNOSTIC = CB_DIAGNOSTIC;

  004a9	c7 05 74 00 00
	00 1d 00 00 00	 mov	 DWORD PTR ?enumCB@@3UStrEnumCB@@A+116, 29 ; 0000001dH

; 336  : 	enumCB.LARA_CONTROL = CB_LARA_CONTROL;

  004b3	c7 05 78 00 00
	00 21 00 00 00	 mov	 DWORD PTR ?enumCB@@3UStrEnumCB@@A+120, 33 ; 00000021H

; 337  : 	enumCB.LARA_DRAW = CB_LARA_DRAW;

  004bd	c7 05 7c 00 00
	00 22 00 00 00	 mov	 DWORD PTR ?enumCB@@3UStrEnumCB@@A+124, 34 ; 00000022H

; 338  : 	enumCB.LARA_HAIR_DRAW = CB_LARA_HAIR_DRAW;

  004c7	c7 05 80 00 00
	00 23 00 00 00	 mov	 DWORD PTR ?enumCB@@3UStrEnumCB@@A+128, 35 ; 00000023H

; 339  : 	enumCB.LARA_HAIR_CONTROL = CB_LARA_HAIR_CONTROL;

  004d1	c7 05 84 00 00
	00 24 00 00 00	 mov	 DWORD PTR ?enumCB@@3UStrEnumCB@@A+132, 36 ; 00000024H

; 340  : 	enumCB.INVENTORY_MAIN = CB_INVENTORY_MAIN;

  004db	c7 05 88 00 00
	00 25 00 00 00	 mov	 DWORD PTR ?enumCB@@3UStrEnumCB@@A+136, 37 ; 00000025H

; 341  : 	enumCB.INVENT_BACKGROUND_CREATE = CB_INVENT_BACKGROUND_CREATE;

  004e5	c7 05 8c 00 00
	00 26 00 00 00	 mov	 DWORD PTR ?enumCB@@3UStrEnumCB@@A+140, 38 ; 00000026H

; 342  : 	enumCB.INVENT_BACKGROUND_DRAW = CB_INVENT_BACKGROUND_DRAW;

  004ef	c7 05 90 00 00
	00 27 00 00 00	 mov	 DWORD PTR ?enumCB@@3UStrEnumCB@@A+144, 39 ; 00000027H

; 343  : 	enumCB.INVENT_BACKGROUND_QUIT = CB_INVENT_BACKGROUND_QUIT;

  004f9	c7 05 94 00 00
	00 28 00 00 00	 mov	 DWORD PTR ?enumCB@@3UStrEnumCB@@A+148, 40 ; 00000028H

; 344  : 	enumCB.ANIMATE_LARA = CB_ANIMATE_LARA;

  00503	c7 05 98 00 00
	00 29 00 00 00	 mov	 DWORD PTR ?enumCB@@3UStrEnumCB@@A+152, 41 ; 00000029H

; 345  : 	enumCB.OPTIONS_MANAGER = CB_OPTIONS_MANAGER;

  0050d	c7 05 9c 00 00
	00 2a 00 00 00	 mov	 DWORD PTR ?enumCB@@3UStrEnumCB@@A+156, 42 ; 0000002aH

; 346  : 	enumCB.FLIPEFFECT = CB_FLIPEFFECT;

  00517	c7 05 a0 00 00
	00 64 00 00 00	 mov	 DWORD PTR ?enumCB@@3UStrEnumCB@@A+160, 100 ; 00000064H

; 347  : 	enumCB.ACTION = CB_ACTION;

  00521	c7 05 a4 00 00
	00 65 00 00 00	 mov	 DWORD PTR ?enumCB@@3UStrEnumCB@@A+164, 101 ; 00000065H

; 348  : 	enumCB.CONDITION = CB_CONDITION;

  0052b	c7 05 a8 00 00
	00 66 00 00 00	 mov	 DWORD PTR ?enumCB@@3UStrEnumCB@@A+168, 102 ; 00000066H

; 349  : 	enumCB.VEHICLE_CONTROL = CB_VEHICLE_CONTROL;

  00535	c7 05 ac 00 00
	00 67 00 00 00	 mov	 DWORD PTR ?enumCB@@3UStrEnumCB@@A+172, 103 ; 00000067H

; 350  : 	enumCB.PROGR_ACTION = CB_PROGR_ACTION;

  0053f	c7 05 b0 00 00
	00 69 00 00 00	 mov	 DWORD PTR ?enumCB@@3UStrEnumCB@@A+176, 105 ; 00000069H

; 351  : 	enumCB.NUMERIC_TRNG_PATCH = CB_NUMERIC_TRNG_PATCH;

  00549	c7 05 b4 00 00
	00 6a 00 00 00	 mov	 DWORD PTR ?enumCB@@3UStrEnumCB@@A+180, 106 ; 0000006aH

; 352  : 	enumCB.SLOT_INITIALISE = CB_SLOT_INITIALISE;

  00553	c7 05 b8 00 00
	00 6b 00 00 00	 mov	 DWORD PTR ?enumCB@@3UStrEnumCB@@A+184, 107 ; 0000006bH

; 353  : 	enumCB.SLOT_CONTROL = CB_SLOT_CONTROL;

  0055d	c7 05 bc 00 00
	00 6c 00 00 00	 mov	 DWORD PTR ?enumCB@@3UStrEnumCB@@A+188, 108 ; 0000006cH

; 354  : 	enumCB.SLOT_COLLISION = CB_SLOT_COLLISION;

  00567	c7 05 c0 00 00
	00 6d 00 00 00	 mov	 DWORD PTR ?enumCB@@3UStrEnumCB@@A+192, 109 ; 0000006dH

; 355  : 	enumCB.SLOT_DRAW = CB_SLOT_DRAW;

  00571	c7 05 c4 00 00
	00 6e 00 00 00	 mov	 DWORD PTR ?enumCB@@3UStrEnumCB@@A+196, 110 ; 0000006eH

; 356  : 	enumCB.SLOT_FLOOR = CB_SLOT_FLOOR;

  0057b	c7 05 c8 00 00
	00 6f 00 00 00	 mov	 DWORD PTR ?enumCB@@3UStrEnumCB@@A+200, 111 ; 0000006fH

; 357  : 	enumCB.SLOT_CEILING = CB_SLOT_CEILING;

  00585	c7 05 cc 00 00
	00 70 00 00 00	 mov	 DWORD PTR ?enumCB@@3UStrEnumCB@@A+204, 112 ; 00000070H

; 358  : 	enumCB.SLOT_DRAW_EXTRA = CB_SLOT_DRAW_EXTRA;

  0058f	c7 05 d0 00 00
	00 71 00 00 00	 mov	 DWORD PTR ?enumCB@@3UStrEnumCB@@A+208, 113 ; 00000071H

; 359  : 	enumCB.STATE_ID_LARA_CTRL = CB_STATE_ID_LARA_CTRL;

  00599	c7 05 d4 00 00
	00 72 00 00 00	 mov	 DWORD PTR ?enumCB@@3UStrEnumCB@@A+212, 114 ; 00000072H

; 360  : 	enumCB.STATE_ID_LARA_COLLISION = CB_STATE_ID_LARA_COLLISION;

  005a3	c7 05 d8 00 00
	00 73 00 00 00	 mov	 DWORD PTR ?enumCB@@3UStrEnumCB@@A+216, 115 ; 00000073H

; 361  : 
; 362  : //  --------------- LOAD CONSTANTS FOR ENUM STRUCTURE: enumSLOT----------------------
; 363  : 	enumSLOT.LARA = SLOT_LARA;

  005ad	c7 05 00 00 00
	00 00 00 00 00	 mov	 DWORD PTR ?enumSLOT@@3UStrEnumSLOT@@A, 0

; 364  : 	enumSLOT.PISTOLS_ANIM = SLOT_PISTOLS_ANIM;

  005b7	a3 04 00 00 00	 mov	 DWORD PTR ?enumSLOT@@3UStrEnumSLOT@@A+4, eax

; 365  : 	enumSLOT.UZI_ANIM = SLOT_UZI_ANIM;

  005bc	89 0d 08 00 00
	00		 mov	 DWORD PTR ?enumSLOT@@3UStrEnumSLOT@@A+8, ecx

; 366  : 	enumSLOT.SHOTGUN_ANIM = SLOT_SHOTGUN_ANIM;

  005c2	c7 05 0c 00 00
	00 03 00 00 00	 mov	 DWORD PTR ?enumSLOT@@3UStrEnumSLOT@@A+12, 3

; 367  : 	enumSLOT.CROSSBOW_ANIM = SLOT_CROSSBOW_ANIM;

  005cc	89 15 10 00 00
	00		 mov	 DWORD PTR ?enumSLOT@@3UStrEnumSLOT@@A+16, edx

; 368  : 	enumSLOT.GRENADE_GUN_ANIM = SLOT_GRENADE_GUN_ANIM;

  005d2	c7 05 14 00 00
	00 05 00 00 00	 mov	 DWORD PTR ?enumSLOT@@3UStrEnumSLOT@@A+20, 5

; 369  : 	enumSLOT.SIXSHOOTER_ANIM = SLOT_SIXSHOOTER_ANIM;

  005dc	c7 05 18 00 00
	00 06 00 00 00	 mov	 DWORD PTR ?enumSLOT@@3UStrEnumSLOT@@A+24, 6

; 370  : 	enumSLOT.FLARE_ANIM = SLOT_FLARE_ANIM;

  005e6	c7 05 1c 00 00
	00 07 00 00 00	 mov	 DWORD PTR ?enumSLOT@@3UStrEnumSLOT@@A+28, 7

; 371  : 	enumSLOT.LARA_SKIN = SLOT_LARA_SKIN;

  005f0	89 35 20 00 00
	00		 mov	 DWORD PTR ?enumSLOT@@3UStrEnumSLOT@@A+32, esi

; 372  : 	enumSLOT.LARA_SKIN_JOINTS = SLOT_LARA_SKIN_JOINTS;

  005f6	c7 05 24 00 00
	00 09 00 00 00	 mov	 DWORD PTR ?enumSLOT@@3UStrEnumSLOT@@A+36, 9

; 373  : 	enumSLOT.LARA_SCREAM = SLOT_LARA_SCREAM;

  00600	c7 05 28 00 00
	00 0a 00 00 00	 mov	 DWORD PTR ?enumSLOT@@3UStrEnumSLOT@@A+40, 10 ; 0000000aH

; 374  : 	enumSLOT.LARA_CROSSBOW_LASER = SLOT_LARA_CROSSBOW_LASER;

  0060a	c7 05 2c 00 00
	00 0b 00 00 00	 mov	 DWORD PTR ?enumSLOT@@3UStrEnumSLOT@@A+44, 11 ; 0000000bH

; 375  : 	enumSLOT.LARA_REVOLVER_LASER = SLOT_LARA_REVOLVER_LASER;

  00614	c7 05 30 00 00
	00 0c 00 00 00	 mov	 DWORD PTR ?enumSLOT@@3UStrEnumSLOT@@A+48, 12 ; 0000000cH

; 376  : 	enumSLOT.LARA_HOLSTERS = SLOT_LARA_HOLSTERS;

  0061e	c7 05 34 00 00
	00 0d 00 00 00	 mov	 DWORD PTR ?enumSLOT@@3UStrEnumSLOT@@A+52, 13 ; 0000000dH

; 377  : 	enumSLOT.LARA_HOLSTERS_PISTOLS = SLOT_LARA_HOLSTERS_PISTOLS;

  00628	c7 05 38 00 00
	00 0e 00 00 00	 mov	 DWORD PTR ?enumSLOT@@3UStrEnumSLOT@@A+56, 14 ; 0000000eH

; 378  : 	enumSLOT.LARA_HOLSTERS_UZIS = SLOT_LARA_HOLSTERS_UZIS;

  00632	c7 05 3c 00 00
	00 0f 00 00 00	 mov	 DWORD PTR ?enumSLOT@@3UStrEnumSLOT@@A+60, 15 ; 0000000fH

; 379  : 	enumSLOT.LARA_HOLSTERS_SIXSHOOTER = SLOT_LARA_HOLSTERS_SIXSHOOTER;

  0063c	89 3d 40 00 00
	00		 mov	 DWORD PTR ?enumSLOT@@3UStrEnumSLOT@@A+64, edi

; 380  : 	enumSLOT.LARA_SPEECH_HEAD1 = SLOT_LARA_SPEECH_HEAD1;

  00642	c7 05 44 00 00
	00 11 00 00 00	 mov	 DWORD PTR ?enumSLOT@@3UStrEnumSLOT@@A+68, 17 ; 00000011H

; 381  : 	enumSLOT.LARA_SPEECH_HEAD2 = SLOT_LARA_SPEECH_HEAD2;

  0064c	c7 05 48 00 00
	00 12 00 00 00	 mov	 DWORD PTR ?enumSLOT@@3UStrEnumSLOT@@A+72, 18 ; 00000012H

; 382  : 	enumSLOT.LARA_SPEECH_HEAD3 = SLOT_LARA_SPEECH_HEAD3;

  00656	c7 05 4c 00 00
	00 13 00 00 00	 mov	 DWORD PTR ?enumSLOT@@3UStrEnumSLOT@@A+76, 19 ; 00000013H

; 383  : 	enumSLOT.LARA_SPEECH_HEAD4 = SLOT_LARA_SPEECH_HEAD4;

  00660	c7 05 50 00 00
	00 14 00 00 00	 mov	 DWORD PTR ?enumSLOT@@3UStrEnumSLOT@@A+80, 20 ; 00000014H

; 384  : 	enumSLOT.ACTOR1_SPEECH_HEAD1 = SLOT_ACTOR1_SPEECH_HEAD1;

  0066a	c7 05 54 00 00
	00 15 00 00 00	 mov	 DWORD PTR ?enumSLOT@@3UStrEnumSLOT@@A+84, 21 ; 00000015H

; 385  : 	enumSLOT.ACTOR1_SPEECH_HEAD2 = SLOT_ACTOR1_SPEECH_HEAD2;

  00674	c7 05 58 00 00
	00 16 00 00 00	 mov	 DWORD PTR ?enumSLOT@@3UStrEnumSLOT@@A+88, 22 ; 00000016H

; 386  : 	enumSLOT.ACTOR2_SPEECH_HEAD1 = SLOT_ACTOR2_SPEECH_HEAD1;

  0067e	c7 05 5c 00 00
	00 17 00 00 00	 mov	 DWORD PTR ?enumSLOT@@3UStrEnumSLOT@@A+92, 23 ; 00000017H

; 387  : 	enumSLOT.ACTOR2_SPEECH_HEAD2 = SLOT_ACTOR2_SPEECH_HEAD2;

  00688	c7 05 60 00 00
	00 18 00 00 00	 mov	 DWORD PTR ?enumSLOT@@3UStrEnumSLOT@@A+96, 24 ; 00000018H

; 388  : 	enumSLOT.LARA_WATER_MESH = SLOT_LARA_WATER_MESH;

  00692	c7 05 64 00 00
	00 19 00 00 00	 mov	 DWORD PTR ?enumSLOT@@3UStrEnumSLOT@@A+100, 25 ; 00000019H

; 389  : 	enumSLOT.LARA_PETROL_MESH = SLOT_LARA_PETROL_MESH;

  0069c	c7 05 68 00 00
	00 1a 00 00 00	 mov	 DWORD PTR ?enumSLOT@@3UStrEnumSLOT@@A+104, 26 ; 0000001aH

; 390  : 	enumSLOT.LARA_DIRT_MESH = SLOT_LARA_DIRT_MESH;

  006a6	c7 05 6c 00 00
	00 1b 00 00 00	 mov	 DWORD PTR ?enumSLOT@@3UStrEnumSLOT@@A+108, 27 ; 0000001bH

; 391  : 	enumSLOT.CROWBAR_ANIM = SLOT_CROWBAR_ANIM;

  006b0	c7 05 70 00 00
	00 1c 00 00 00	 mov	 DWORD PTR ?enumSLOT@@3UStrEnumSLOT@@A+112, 28 ; 0000001cH

; 392  : 	enumSLOT.TORCH_ANIM = SLOT_TORCH_ANIM;

  006ba	c7 05 74 00 00
	00 1d 00 00 00	 mov	 DWORD PTR ?enumSLOT@@3UStrEnumSLOT@@A+116, 29 ; 0000001dH

; 393  : 	enumSLOT.HAIR = SLOT_HAIR;

  006c4	c7 05 78 00 00
	00 1e 00 00 00	 mov	 DWORD PTR ?enumSLOT@@3UStrEnumSLOT@@A+120, 30 ; 0000001eH

; 394  : 	enumSLOT.MOTORBIKE = SLOT_MOTORBIKE;

  006ce	c7 05 7c 00 00
	00 1f 00 00 00	 mov	 DWORD PTR ?enumSLOT@@3UStrEnumSLOT@@A+124, 31 ; 0000001fH

; 395  : 	enumSLOT.JEEP = SLOT_JEEP;

  006d8	89 1d 80 00 00
	00		 mov	 DWORD PTR ?enumSLOT@@3UStrEnumSLOT@@A+128, ebx

; 396  : 	enumSLOT.VEHICLE_EXTRA = SLOT_VEHICLE_EXTRA;

  006de	c7 05 84 00 00
	00 21 00 00 00	 mov	 DWORD PTR ?enumSLOT@@3UStrEnumSLOT@@A+132, 33 ; 00000021H

; 397  : 	enumSLOT.ENEMY_JEEP = SLOT_ENEMY_JEEP;

  006e8	c7 05 88 00 00
	00 22 00 00 00	 mov	 DWORD PTR ?enumSLOT@@3UStrEnumSLOT@@A+136, 34 ; 00000022H

; 398  : 	enumSLOT.SKELETON = SLOT_SKELETON;

  006f2	c7 05 8c 00 00
	00 23 00 00 00	 mov	 DWORD PTR ?enumSLOT@@3UStrEnumSLOT@@A+140, 35 ; 00000023H

; 399  : 	enumSLOT.SKELETON_MIP = SLOT_SKELETON_MIP;

  006fc	c7 05 90 00 00
	00 24 00 00 00	 mov	 DWORD PTR ?enumSLOT@@3UStrEnumSLOT@@A+144, 36 ; 00000024H

; 400  : 	enumSLOT.GUIDE = SLOT_GUIDE;

  00706	c7 05 94 00 00
	00 25 00 00 00	 mov	 DWORD PTR ?enumSLOT@@3UStrEnumSLOT@@A+148, 37 ; 00000025H

; 401  : 	enumSLOT.GUIDE_MIP = SLOT_GUIDE_MIP;

  00710	c7 05 98 00 00
	00 26 00 00 00	 mov	 DWORD PTR ?enumSLOT@@3UStrEnumSLOT@@A+152, 38 ; 00000026H

; 402  : 	enumSLOT.VON_CROY = SLOT_VON_CROY;

  0071a	c7 05 9c 00 00
	00 27 00 00 00	 mov	 DWORD PTR ?enumSLOT@@3UStrEnumSLOT@@A+156, 39 ; 00000027H

; 403  : 	enumSLOT.VON_CROY_MIP = SLOT_VON_CROY_MIP;

  00724	c7 05 a0 00 00
	00 28 00 00 00	 mov	 DWORD PTR ?enumSLOT@@3UStrEnumSLOT@@A+160, 40 ; 00000028H

; 404  : 	enumSLOT.BADDY_1 = SLOT_BADDY_1;

  0072e	c7 05 a4 00 00
	00 29 00 00 00	 mov	 DWORD PTR ?enumSLOT@@3UStrEnumSLOT@@A+164, 41 ; 00000029H

; 405  : 	enumSLOT.BADDY_1_MIP = SLOT_BADDY_1_MIP;

  00738	c7 05 a8 00 00
	00 2a 00 00 00	 mov	 DWORD PTR ?enumSLOT@@3UStrEnumSLOT@@A+168, 42 ; 0000002aH

; 406  : 	enumSLOT.BADDY_2 = SLOT_BADDY_2;

  00742	c7 05 ac 00 00
	00 2b 00 00 00	 mov	 DWORD PTR ?enumSLOT@@3UStrEnumSLOT@@A+172, 43 ; 0000002bH

; 407  : 	enumSLOT.BADDY_2_MIP = SLOT_BADDY_2_MIP;

  0074c	c7 05 b0 00 00
	00 2c 00 00 00	 mov	 DWORD PTR ?enumSLOT@@3UStrEnumSLOT@@A+176, 44 ; 0000002cH

; 408  : 	enumSLOT.SETHA = SLOT_SETHA;

  00756	c7 05 b4 00 00
	00 2d 00 00 00	 mov	 DWORD PTR ?enumSLOT@@3UStrEnumSLOT@@A+180, 45 ; 0000002dH

; 409  : 	enumSLOT.SETHA_MIP = SLOT_SETHA_MIP;

  00760	c7 05 b8 00 00
	00 2e 00 00 00	 mov	 DWORD PTR ?enumSLOT@@3UStrEnumSLOT@@A+184, 46 ; 0000002eH

; 410  : 	enumSLOT.MUMMY = SLOT_MUMMY;

  0076a	c7 05 bc 00 00
	00 2f 00 00 00	 mov	 DWORD PTR ?enumSLOT@@3UStrEnumSLOT@@A+188, 47 ; 0000002fH

; 411  : 	enumSLOT.MUMMY_MIP = SLOT_MUMMY_MIP;

  00774	c7 05 c0 00 00
	00 30 00 00 00	 mov	 DWORD PTR ?enumSLOT@@3UStrEnumSLOT@@A+192, 48 ; 00000030H

; 412  : 	enumSLOT.SPHINX = SLOT_SPHINX;

  0077e	c7 05 c4 00 00
	00 31 00 00 00	 mov	 DWORD PTR ?enumSLOT@@3UStrEnumSLOT@@A+196, 49 ; 00000031H

; 413  : 	enumSLOT.SPHINX_MIP = SLOT_SPHINX_MIP;

  00788	c7 05 c8 00 00
	00 32 00 00 00	 mov	 DWORD PTR ?enumSLOT@@3UStrEnumSLOT@@A+200, 50 ; 00000032H

; 414  : 	enumSLOT.CROCODILE = SLOT_CROCODILE;

  00792	c7 05 cc 00 00
	00 33 00 00 00	 mov	 DWORD PTR ?enumSLOT@@3UStrEnumSLOT@@A+204, 51 ; 00000033H

; 415  : 	enumSLOT.CROCODILE_MIP = SLOT_CROCODILE_MIP;

  0079c	c7 05 d0 00 00
	00 34 00 00 00	 mov	 DWORD PTR ?enumSLOT@@3UStrEnumSLOT@@A+208, 52 ; 00000034H

; 416  : 	enumSLOT.HORSEMAN = SLOT_HORSEMAN;

  007a6	c7 05 d4 00 00
	00 35 00 00 00	 mov	 DWORD PTR ?enumSLOT@@3UStrEnumSLOT@@A+212, 53 ; 00000035H

; 417  : 	enumSLOT.HORSEMAN_MIP = SLOT_HORSEMAN_MIP;

  007b0	c7 05 d8 00 00
	00 36 00 00 00	 mov	 DWORD PTR ?enumSLOT@@3UStrEnumSLOT@@A+216, 54 ; 00000036H

; 418  : 	enumSLOT.SCORPION = SLOT_SCORPION;

  007ba	c7 05 dc 00 00
	00 37 00 00 00	 mov	 DWORD PTR ?enumSLOT@@3UStrEnumSLOT@@A+220, 55 ; 00000037H

; 419  : 	enumSLOT.SCORPION_MIP = SLOT_SCORPION_MIP;

  007c4	c7 05 e0 00 00
	00 38 00 00 00	 mov	 DWORD PTR ?enumSLOT@@3UStrEnumSLOT@@A+224, 56 ; 00000038H

; 420  : 	enumSLOT.JEAN_YVES = SLOT_JEAN_YVES;

  007ce	c7 05 e4 00 00
	00 39 00 00 00	 mov	 DWORD PTR ?enumSLOT@@3UStrEnumSLOT@@A+228, 57 ; 00000039H

; 421  : 	enumSLOT.JEAN_YVES_MIP = SLOT_JEAN_YVES_MIP;

  007d8	c7 05 e8 00 00
	00 3a 00 00 00	 mov	 DWORD PTR ?enumSLOT@@3UStrEnumSLOT@@A+232, 58 ; 0000003aH

; 422  : 	enumSLOT.TROOPS = SLOT_TROOPS;

  007e2	c7 05 ec 00 00
	00 3b 00 00 00	 mov	 DWORD PTR ?enumSLOT@@3UStrEnumSLOT@@A+236, 59 ; 0000003bH

; 423  : 	enumSLOT.TROOPS_MIP = SLOT_TROOPS_MIP;

  007ec	c7 05 f0 00 00
	00 3c 00 00 00	 mov	 DWORD PTR ?enumSLOT@@3UStrEnumSLOT@@A+240, 60 ; 0000003cH

; 424  : 	enumSLOT.KNIGHTS_TEMPLAR = SLOT_KNIGHTS_TEMPLAR;

  007f6	c7 05 f4 00 00
	00 3d 00 00 00	 mov	 DWORD PTR ?enumSLOT@@3UStrEnumSLOT@@A+244, 61 ; 0000003dH

; 425  : 	enumSLOT.KNIGHTS_TEMPLAR_MIP = SLOT_KNIGHTS_TEMPLAR_MIP;

  00800	c7 05 f8 00 00
	00 3e 00 00 00	 mov	 DWORD PTR ?enumSLOT@@3UStrEnumSLOT@@A+248, 62 ; 0000003eH

; 426  : 	enumSLOT.MUTANT = SLOT_MUTANT;

  0080a	c7 05 fc 00 00
	00 3f 00 00 00	 mov	 DWORD PTR ?enumSLOT@@3UStrEnumSLOT@@A+252, 63 ; 0000003fH

; 427  : 	enumSLOT.MUTANT_MIP = SLOT_MUTANT_MIP;

  00814	c7 05 00 01 00
	00 40 00 00 00	 mov	 DWORD PTR ?enumSLOT@@3UStrEnumSLOT@@A+256, 64 ; 00000040H

; 428  : 	enumSLOT.HORSE = SLOT_HORSE;

  0081e	c7 05 04 01 00
	00 41 00 00 00	 mov	 DWORD PTR ?enumSLOT@@3UStrEnumSLOT@@A+260, 65 ; 00000041H

; 429  : 	enumSLOT.HORSE_MIP = SLOT_HORSE_MIP;

  00828	c7 05 08 01 00
	00 42 00 00 00	 mov	 DWORD PTR ?enumSLOT@@3UStrEnumSLOT@@A+264, 66 ; 00000042H

; 430  : 	enumSLOT.BABOON_NORMAL = SLOT_BABOON_NORMAL;

  00832	c7 05 0c 01 00
	00 43 00 00 00	 mov	 DWORD PTR ?enumSLOT@@3UStrEnumSLOT@@A+268, 67 ; 00000043H

; 431  : 	enumSLOT.BABOON_NORMAL_MIP = SLOT_BABOON_NORMAL_MIP;

  0083c	c7 05 10 01 00
	00 44 00 00 00	 mov	 DWORD PTR ?enumSLOT@@3UStrEnumSLOT@@A+272, 68 ; 00000044H

; 432  : 	enumSLOT.BABOON_INV = SLOT_BABOON_INV;

  00846	c7 05 14 01 00
	00 45 00 00 00	 mov	 DWORD PTR ?enumSLOT@@3UStrEnumSLOT@@A+276, 69 ; 00000045H

; 433  : 	enumSLOT.BABOON_INV_MIP = SLOT_BABOON_INV_MIP;

  00850	c7 05 18 01 00
	00 46 00 00 00	 mov	 DWORD PTR ?enumSLOT@@3UStrEnumSLOT@@A+280, 70 ; 00000046H

; 434  : 	enumSLOT.BABOON_SILENT = SLOT_BABOON_SILENT;

  0085a	c7 05 1c 01 00
	00 47 00 00 00	 mov	 DWORD PTR ?enumSLOT@@3UStrEnumSLOT@@A+284, 71 ; 00000047H

; 435  : 	enumSLOT.BABOON_SILENT_MIP = SLOT_BABOON_SILENT_MIP;

  00864	c7 05 20 01 00
	00 48 00 00 00	 mov	 DWORD PTR ?enumSLOT@@3UStrEnumSLOT@@A+288, 72 ; 00000048H

; 436  : 	enumSLOT.WILD_BOAR = SLOT_WILD_BOAR;

  0086e	c7 05 24 01 00
	00 49 00 00 00	 mov	 DWORD PTR ?enumSLOT@@3UStrEnumSLOT@@A+292, 73 ; 00000049H

; 437  : 	enumSLOT.WILD_BOAR_MIP = SLOT_WILD_BOAR_MIP;

  00878	c7 05 28 01 00
	00 4a 00 00 00	 mov	 DWORD PTR ?enumSLOT@@3UStrEnumSLOT@@A+296, 74 ; 0000004aH

; 438  : 	enumSLOT.HARPY = SLOT_HARPY;

  00882	c7 05 2c 01 00
	00 4b 00 00 00	 mov	 DWORD PTR ?enumSLOT@@3UStrEnumSLOT@@A+300, 75 ; 0000004bH

; 439  : 	enumSLOT.HARPY_MIP = SLOT_HARPY_MIP;

  0088c	c7 05 30 01 00
	00 4c 00 00 00	 mov	 DWORD PTR ?enumSLOT@@3UStrEnumSLOT@@A+304, 76 ; 0000004cH

; 440  : 	enumSLOT.DEMIGOD1 = SLOT_DEMIGOD1;

  00896	c7 05 34 01 00
	00 4d 00 00 00	 mov	 DWORD PTR ?enumSLOT@@3UStrEnumSLOT@@A+308, 77 ; 0000004dH

; 441  : 	enumSLOT.DEMIGOD1_MIP = SLOT_DEMIGOD1_MIP;

  008a0	c7 05 38 01 00
	00 4e 00 00 00	 mov	 DWORD PTR ?enumSLOT@@3UStrEnumSLOT@@A+312, 78 ; 0000004eH

; 442  : 	enumSLOT.DEMIGOD2 = SLOT_DEMIGOD2;

  008aa	c7 05 3c 01 00
	00 4f 00 00 00	 mov	 DWORD PTR ?enumSLOT@@3UStrEnumSLOT@@A+316, 79 ; 0000004fH

; 443  : 	enumSLOT.DEMIGOD2_MIP = SLOT_DEMIGOD2_MIP;

  008b4	c7 05 40 01 00
	00 50 00 00 00	 mov	 DWORD PTR ?enumSLOT@@3UStrEnumSLOT@@A+320, 80 ; 00000050H

; 444  : 	enumSLOT.DEMIGOD3 = SLOT_DEMIGOD3;

  008be	c7 05 44 01 00
	00 51 00 00 00	 mov	 DWORD PTR ?enumSLOT@@3UStrEnumSLOT@@A+324, 81 ; 00000051H

; 445  : 	enumSLOT.DEMIGOD3_MIP = SLOT_DEMIGOD3_MIP;

  008c8	c7 05 48 01 00
	00 52 00 00 00	 mov	 DWORD PTR ?enumSLOT@@3UStrEnumSLOT@@A+328, 82 ; 00000052H

; 446  : 	enumSLOT.LITTLE_BEETLE = SLOT_LITTLE_BEETLE;

  008d2	c7 05 4c 01 00
	00 53 00 00 00	 mov	 DWORD PTR ?enumSLOT@@3UStrEnumSLOT@@A+332, 83 ; 00000053H

; 447  : 	enumSLOT.BIG_BEETLE = SLOT_BIG_BEETLE;

  008dc	c7 05 50 01 00
	00 54 00 00 00	 mov	 DWORD PTR ?enumSLOT@@3UStrEnumSLOT@@A+336, 84 ; 00000054H

; 448  : 	enumSLOT.BIG_BEETLE_MIP = SLOT_BIG_BEETLE_MIP;

  008e6	c7 05 54 01 00
	00 55 00 00 00	 mov	 DWORD PTR ?enumSLOT@@3UStrEnumSLOT@@A+340, 85 ; 00000055H

; 449  : 	enumSLOT.WRAITH1 = SLOT_WRAITH1;

  008f0	c7 05 58 01 00
	00 56 00 00 00	 mov	 DWORD PTR ?enumSLOT@@3UStrEnumSLOT@@A+344, 86 ; 00000056H

; 450  : 	enumSLOT.WRAITH2 = SLOT_WRAITH2;

  008fa	c7 05 5c 01 00
	00 57 00 00 00	 mov	 DWORD PTR ?enumSLOT@@3UStrEnumSLOT@@A+348, 87 ; 00000057H

; 451  : 	enumSLOT.WRAITH3 = SLOT_WRAITH3;

  00904	c7 05 60 01 00
	00 58 00 00 00	 mov	 DWORD PTR ?enumSLOT@@3UStrEnumSLOT@@A+352, 88 ; 00000058H

; 452  : 	enumSLOT.WRAITH4 = SLOT_WRAITH4;

  0090e	c7 05 64 01 00
	00 59 00 00 00	 mov	 DWORD PTR ?enumSLOT@@3UStrEnumSLOT@@A+356, 89 ; 00000059H

; 453  : 	enumSLOT.BAT = SLOT_BAT;

  00918	c7 05 68 01 00
	00 5a 00 00 00	 mov	 DWORD PTR ?enumSLOT@@3UStrEnumSLOT@@A+360, 90 ; 0000005aH

; 454  : 	enumSLOT.DOG = SLOT_DOG;

  00922	c7 05 6c 01 00
	00 5b 00 00 00	 mov	 DWORD PTR ?enumSLOT@@3UStrEnumSLOT@@A+364, 91 ; 0000005bH

; 455  : 	enumSLOT.DOG_MIP = SLOT_DOG_MIP;

  0092c	c7 05 70 01 00
	00 5c 00 00 00	 mov	 DWORD PTR ?enumSLOT@@3UStrEnumSLOT@@A+368, 92 ; 0000005cH

; 456  : 	enumSLOT.HAMMERHEAD = SLOT_HAMMERHEAD;

  00936	c7 05 74 01 00
	00 5d 00 00 00	 mov	 DWORD PTR ?enumSLOT@@3UStrEnumSLOT@@A+372, 93 ; 0000005dH

; 457  : 	enumSLOT.HAMMERHEAD_MIP = SLOT_HAMMERHEAD_MIP;

  00940	c7 05 78 01 00
	00 5e 00 00 00	 mov	 DWORD PTR ?enumSLOT@@3UStrEnumSLOT@@A+376, 94 ; 0000005eH

; 458  : 	enumSLOT.SAS = SLOT_SAS;

  0094a	c7 05 7c 01 00
	00 5f 00 00 00	 mov	 DWORD PTR ?enumSLOT@@3UStrEnumSLOT@@A+380, 95 ; 0000005fH

; 459  : 	enumSLOT.SAS_MIP = SLOT_SAS_MIP;

  00954	c7 05 80 01 00
	00 60 00 00 00	 mov	 DWORD PTR ?enumSLOT@@3UStrEnumSLOT@@A+384, 96 ; 00000060H

; 460  : 	enumSLOT.SAS_DYING = SLOT_SAS_DYING;

  0095e	c7 05 84 01 00
	00 61 00 00 00	 mov	 DWORD PTR ?enumSLOT@@3UStrEnumSLOT@@A+388, 97 ; 00000061H

; 461  : 	enumSLOT.SAS_DYING_MIP = SLOT_SAS_DYING_MIP;

  00968	c7 05 88 01 00
	00 62 00 00 00	 mov	 DWORD PTR ?enumSLOT@@3UStrEnumSLOT@@A+392, 98 ; 00000062H

; 462  : 	enumSLOT.SAS_CAPTAIN = SLOT_SAS_CAPTAIN;

  00972	c7 05 8c 01 00
	00 63 00 00 00	 mov	 DWORD PTR ?enumSLOT@@3UStrEnumSLOT@@A+396, 99 ; 00000063H

; 463  : 	enumSLOT.SAS_CAPTAIN_MIP = SLOT_SAS_CAPTAIN_MIP;

  0097c	c7 05 90 01 00
	00 64 00 00 00	 mov	 DWORD PTR ?enumSLOT@@3UStrEnumSLOT@@A+400, 100 ; 00000064H

; 464  : 	enumSLOT.SAS_DRAG_BLOKE = SLOT_SAS_DRAG_BLOKE;

  00986	c7 05 94 01 00
	00 65 00 00 00	 mov	 DWORD PTR ?enumSLOT@@3UStrEnumSLOT@@A+404, 101 ; 00000065H

; 465  : 	enumSLOT.AHMET = SLOT_AHMET;

  00990	c7 05 98 01 00
	00 66 00 00 00	 mov	 DWORD PTR ?enumSLOT@@3UStrEnumSLOT@@A+408, 102 ; 00000066H

; 466  : 	enumSLOT.AHMET_MIP = SLOT_AHMET_MIP;

  0099a	c7 05 9c 01 00
	00 67 00 00 00	 mov	 DWORD PTR ?enumSLOT@@3UStrEnumSLOT@@A+412, 103 ; 00000067H

; 467  : 	enumSLOT.LARA_DOUBLE = SLOT_LARA_DOUBLE;

  009a4	c7 05 a0 01 00
	00 68 00 00 00	 mov	 DWORD PTR ?enumSLOT@@3UStrEnumSLOT@@A+416, 104 ; 00000068H

; 468  : 	enumSLOT.LARA_DOUBLE_MIP = SLOT_LARA_DOUBLE_MIP;

  009ae	c7 05 a4 01 00
	00 69 00 00 00	 mov	 DWORD PTR ?enumSLOT@@3UStrEnumSLOT@@A+420, 105 ; 00000069H

; 469  : 	enumSLOT.SMALL_SCORPION = SLOT_SMALL_SCORPION;

  009b8	c7 05 a8 01 00
	00 6a 00 00 00	 mov	 DWORD PTR ?enumSLOT@@3UStrEnumSLOT@@A+424, 106 ; 0000006aH

; 470  : 	enumSLOT.LOCUST_EMITTER = SLOT_LOCUST_EMITTER;

  009c2	c7 05 ac 01 00
	00 6b 00 00 00	 mov	 DWORD PTR ?enumSLOT@@3UStrEnumSLOT@@A+428, 107 ; 0000006bH

; 471  : 	enumSLOT.GAME_PIECE1 = SLOT_GAME_PIECE1;

  009cc	c7 05 b0 01 00
	00 6c 00 00 00	 mov	 DWORD PTR ?enumSLOT@@3UStrEnumSLOT@@A+432, 108 ; 0000006cH

; 472  : 	enumSLOT.GAME_PIECE2 = SLOT_GAME_PIECE2;

  009d6	c7 05 b4 01 00
	00 6d 00 00 00	 mov	 DWORD PTR ?enumSLOT@@3UStrEnumSLOT@@A+436, 109 ; 0000006dH

; 473  : 	enumSLOT.GAME_PIECE3 = SLOT_GAME_PIECE3;

  009e0	c7 05 b8 01 00
	00 6e 00 00 00	 mov	 DWORD PTR ?enumSLOT@@3UStrEnumSLOT@@A+440, 110 ; 0000006eH

; 474  : 	enumSLOT.ENEMY_PIECE = SLOT_ENEMY_PIECE;

  009ea	c7 05 bc 01 00
	00 6f 00 00 00	 mov	 DWORD PTR ?enumSLOT@@3UStrEnumSLOT@@A+444, 111 ; 0000006fH

; 475  : 	enumSLOT.WHEEL_OF_FORTUNE = SLOT_WHEEL_OF_FORTUNE;

  009f4	c7 05 c0 01 00
	00 70 00 00 00	 mov	 DWORD PTR ?enumSLOT@@3UStrEnumSLOT@@A+448, 112 ; 00000070H

; 476  : 	enumSLOT.SCALES = SLOT_SCALES;

  009fe	c7 05 c4 01 00
	00 71 00 00 00	 mov	 DWORD PTR ?enumSLOT@@3UStrEnumSLOT@@A+452, 113 ; 00000071H

; 477  : 	enumSLOT.DARTS = SLOT_DARTS;

  00a08	c7 05 c8 01 00
	00 72 00 00 00	 mov	 DWORD PTR ?enumSLOT@@3UStrEnumSLOT@@A+456, 114 ; 00000072H

; 478  : 	enumSLOT.DART_EMITTER = SLOT_DART_EMITTER;

  00a12	c7 05 cc 01 00
	00 73 00 00 00	 mov	 DWORD PTR ?enumSLOT@@3UStrEnumSLOT@@A+460, 115 ; 00000073H

; 479  : 	enumSLOT.HOMING_DART_EMITTER = SLOT_HOMING_DART_EMITTER;

  00a1c	c7 05 d0 01 00
	00 74 00 00 00	 mov	 DWORD PTR ?enumSLOT@@3UStrEnumSLOT@@A+464, 116 ; 00000074H

; 480  : 	enumSLOT.FALLING_CEILING = SLOT_FALLING_CEILING;

  00a26	c7 05 d4 01 00
	00 75 00 00 00	 mov	 DWORD PTR ?enumSLOT@@3UStrEnumSLOT@@A+468, 117 ; 00000075H

; 481  : 	enumSLOT.FALLING_BLOCK = SLOT_FALLING_BLOCK;

  00a30	c7 05 d8 01 00
	00 76 00 00 00	 mov	 DWORD PTR ?enumSLOT@@3UStrEnumSLOT@@A+472, 118 ; 00000076H

; 482  : 	enumSLOT.FALLING_BLOCK2 = SLOT_FALLING_BLOCK2;

  00a3a	c7 05 dc 01 00
	00 77 00 00 00	 mov	 DWORD PTR ?enumSLOT@@3UStrEnumSLOT@@A+476, 119 ; 00000077H

; 483  : 	enumSLOT.SMASHABLE_BIKE_WALL = SLOT_SMASHABLE_BIKE_WALL;

  00a44	c7 05 e0 01 00
	00 78 00 00 00	 mov	 DWORD PTR ?enumSLOT@@3UStrEnumSLOT@@A+480, 120 ; 00000078H

; 484  : 	enumSLOT.SMASHABLE_BIKE_FLOOR = SLOT_SMASHABLE_BIKE_FLOOR;

  00a4e	c7 05 e4 01 00
	00 79 00 00 00	 mov	 DWORD PTR ?enumSLOT@@3UStrEnumSLOT@@A+484, 121 ; 00000079H

; 485  : 	enumSLOT.TRAPDOOR1 = SLOT_TRAPDOOR1;

  00a58	c7 05 e8 01 00
	00 7a 00 00 00	 mov	 DWORD PTR ?enumSLOT@@3UStrEnumSLOT@@A+488, 122 ; 0000007aH

; 486  : 	enumSLOT.TRAPDOOR2 = SLOT_TRAPDOOR2;

  00a62	c7 05 ec 01 00
	00 7b 00 00 00	 mov	 DWORD PTR ?enumSLOT@@3UStrEnumSLOT@@A+492, 123 ; 0000007bH

; 487  : 	enumSLOT.TRAPDOOR3 = SLOT_TRAPDOOR3;

  00a6c	c7 05 f0 01 00
	00 7c 00 00 00	 mov	 DWORD PTR ?enumSLOT@@3UStrEnumSLOT@@A+496, 124 ; 0000007cH

; 488  : 	enumSLOT.FLOOR_TRAPDOOR1 = SLOT_FLOOR_TRAPDOOR1;

  00a76	c7 05 f4 01 00
	00 7d 00 00 00	 mov	 DWORD PTR ?enumSLOT@@3UStrEnumSLOT@@A+500, 125 ; 0000007dH

; 489  : 	enumSLOT.FLOOR_TRAPDOOR2 = SLOT_FLOOR_TRAPDOOR2;

  00a80	c7 05 f8 01 00
	00 7e 00 00 00	 mov	 DWORD PTR ?enumSLOT@@3UStrEnumSLOT@@A+504, 126 ; 0000007eH

; 490  : 	enumSLOT.CEILING_TRAPDOOR1 = SLOT_CEILING_TRAPDOOR1;

  00a8a	c7 05 fc 01 00
	00 7f 00 00 00	 mov	 DWORD PTR ?enumSLOT@@3UStrEnumSLOT@@A+508, 127 ; 0000007fH

; 491  : 	enumSLOT.CEILING_TRAPDOOR2 = SLOT_CEILING_TRAPDOOR2;

  00a94	c7 05 00 02 00
	00 80 00 00 00	 mov	 DWORD PTR ?enumSLOT@@3UStrEnumSLOT@@A+512, 128 ; 00000080H

; 492  : 	enumSLOT.SCALING_TRAPDOOR = SLOT_SCALING_TRAPDOOR;

  00a9e	c7 05 04 02 00
	00 81 00 00 00	 mov	 DWORD PTR ?enumSLOT@@3UStrEnumSLOT@@A+516, 129 ; 00000081H

; 493  : 	enumSLOT.ROLLINGBALL = SLOT_ROLLINGBALL;

  00aa8	c7 05 08 02 00
	00 82 00 00 00	 mov	 DWORD PTR ?enumSLOT@@3UStrEnumSLOT@@A+520, 130 ; 00000082H

; 494  : 	enumSLOT.SPIKEY_FLOOR = SLOT_SPIKEY_FLOOR;

  00ab2	c7 05 0c 02 00
	00 83 00 00 00	 mov	 DWORD PTR ?enumSLOT@@3UStrEnumSLOT@@A+524, 131 ; 00000083H

; 495  : 	enumSLOT.TEETH_SPIKES = SLOT_TEETH_SPIKES;

  00abc	c7 05 10 02 00
	00 84 00 00 00	 mov	 DWORD PTR ?enumSLOT@@3UStrEnumSLOT@@A+528, 132 ; 00000084H

; 496  : 	enumSLOT.JOBY_SPIKES = SLOT_JOBY_SPIKES;

  00ac6	c7 05 14 02 00
	00 85 00 00 00	 mov	 DWORD PTR ?enumSLOT@@3UStrEnumSLOT@@A+532, 133 ; 00000085H

; 497  : 	enumSLOT.SLICER_DICER = SLOT_SLICER_DICER;

  00ad0	c7 05 18 02 00
	00 86 00 00 00	 mov	 DWORD PTR ?enumSLOT@@3UStrEnumSLOT@@A+536, 134 ; 00000086H

; 498  : 	enumSLOT.CHAIN = SLOT_CHAIN;

  00ada	c7 05 1c 02 00
	00 87 00 00 00	 mov	 DWORD PTR ?enumSLOT@@3UStrEnumSLOT@@A+540, 135 ; 00000087H

; 499  : 	enumSLOT.PLOUGH = SLOT_PLOUGH;

  00ae4	c7 05 20 02 00
	00 88 00 00 00	 mov	 DWORD PTR ?enumSLOT@@3UStrEnumSLOT@@A+544, 136 ; 00000088H

; 500  : 	enumSLOT.STARGATE = SLOT_STARGATE;

  00aee	c7 05 24 02 00
	00 89 00 00 00	 mov	 DWORD PTR ?enumSLOT@@3UStrEnumSLOT@@A+548, 137 ; 00000089H

; 501  : 	enumSLOT.HAMMER = SLOT_HAMMER;

  00af8	c7 05 28 02 00
	00 8a 00 00 00	 mov	 DWORD PTR ?enumSLOT@@3UStrEnumSLOT@@A+552, 138 ; 0000008aH

; 502  : 	enumSLOT.BURNING_FLOOR = SLOT_BURNING_FLOOR;

  00b02	c7 05 2c 02 00
	00 8b 00 00 00	 mov	 DWORD PTR ?enumSLOT@@3UStrEnumSLOT@@A+556, 139 ; 0000008bH

; 503  : 	enumSLOT.COG = SLOT_COG;

  00b0c	c7 05 30 02 00
	00 8c 00 00 00	 mov	 DWORD PTR ?enumSLOT@@3UStrEnumSLOT@@A+560, 140 ; 0000008cH

; 504  : 	enumSLOT.SPIKEBALL = SLOT_SPIKEBALL;

  00b16	c7 05 34 02 00
	00 8d 00 00 00	 mov	 DWORD PTR ?enumSLOT@@3UStrEnumSLOT@@A+564, 141 ; 0000008dH

; 505  : 	enumSLOT.FLAME = SLOT_FLAME;

  00b20	c7 05 38 02 00
	00 8e 00 00 00	 mov	 DWORD PTR ?enumSLOT@@3UStrEnumSLOT@@A+568, 142 ; 0000008eH

; 506  : 	enumSLOT.FLAME_EMITTER = SLOT_FLAME_EMITTER;

  00b2a	c7 05 3c 02 00
	00 8f 00 00 00	 mov	 DWORD PTR ?enumSLOT@@3UStrEnumSLOT@@A+572, 143 ; 0000008fH

; 507  : 	enumSLOT.FLAME_EMITTER2 = SLOT_FLAME_EMITTER2;

  00b34	c7 05 40 02 00
	00 90 00 00 00	 mov	 DWORD PTR ?enumSLOT@@3UStrEnumSLOT@@A+576, 144 ; 00000090H

; 508  : 	enumSLOT.FLAME_EMITTER3 = SLOT_FLAME_EMITTER3;

  00b3e	c7 05 44 02 00
	00 91 00 00 00	 mov	 DWORD PTR ?enumSLOT@@3UStrEnumSLOT@@A+580, 145 ; 00000091H

; 509  : 	enumSLOT.ROPE = SLOT_ROPE;

  00b48	c7 05 48 02 00
	00 92 00 00 00	 mov	 DWORD PTR ?enumSLOT@@3UStrEnumSLOT@@A+584, 146 ; 00000092H

; 510  : 	enumSLOT.FIREROPE = SLOT_FIREROPE;

  00b52	c7 05 4c 02 00
	00 93 00 00 00	 mov	 DWORD PTR ?enumSLOT@@3UStrEnumSLOT@@A+588, 147 ; 00000093H

; 511  : 	enumSLOT.POLEROPE = SLOT_POLEROPE;

  00b5c	c7 05 50 02 00
	00 94 00 00 00	 mov	 DWORD PTR ?enumSLOT@@3UStrEnumSLOT@@A+592, 148 ; 00000094H

; 512  : 	enumSLOT.ONEBLOCK_PLATFORM = SLOT_ONEBLOCK_PLATFORM;

  00b66	c7 05 54 02 00
	00 95 00 00 00	 mov	 DWORD PTR ?enumSLOT@@3UStrEnumSLOT@@A+596, 149 ; 00000095H

; 513  : 	enumSLOT.TWOBLOCK_PLATFORM = SLOT_TWOBLOCK_PLATFORM;

  00b70	c7 05 58 02 00
	00 96 00 00 00	 mov	 DWORD PTR ?enumSLOT@@3UStrEnumSLOT@@A+600, 150 ; 00000096H

; 514  : 	enumSLOT.RAISING_BLOCK1 = SLOT_RAISING_BLOCK1;

  00b7a	c7 05 5c 02 00
	00 97 00 00 00	 mov	 DWORD PTR ?enumSLOT@@3UStrEnumSLOT@@A+604, 151 ; 00000097H

; 515  : 	enumSLOT.RAISING_BLOCK2 = SLOT_RAISING_BLOCK2;

  00b84	c7 05 60 02 00
	00 98 00 00 00	 mov	 DWORD PTR ?enumSLOT@@3UStrEnumSLOT@@A+608, 152 ; 00000098H

; 516  : 	enumSLOT.EXPANDING_PLATFORM = SLOT_EXPANDING_PLATFORM;

  00b8e	c7 05 64 02 00
	00 99 00 00 00	 mov	 DWORD PTR ?enumSLOT@@3UStrEnumSLOT@@A+612, 153 ; 00000099H

; 517  : 	enumSLOT.SQUISHY_BLOCK1 = SLOT_SQUISHY_BLOCK1;

  00b98	c7 05 68 02 00
	00 9a 00 00 00	 mov	 DWORD PTR ?enumSLOT@@3UStrEnumSLOT@@A+616, 154 ; 0000009aH

; 518  : 	enumSLOT.SQUISHY_BLOCK2 = SLOT_SQUISHY_BLOCK2;

  00ba2	c7 05 6c 02 00
	00 9b 00 00 00	 mov	 DWORD PTR ?enumSLOT@@3UStrEnumSLOT@@A+620, 155 ; 0000009bH

; 519  : 	enumSLOT.PUSHABLE_OBJECT1 = SLOT_PUSHABLE_OBJECT1;

  00bac	c7 05 70 02 00
	00 9c 00 00 00	 mov	 DWORD PTR ?enumSLOT@@3UStrEnumSLOT@@A+624, 156 ; 0000009cH

; 520  : 	enumSLOT.PUSHABLE_OBJECT2 = SLOT_PUSHABLE_OBJECT2;

  00bb6	c7 05 74 02 00
	00 9d 00 00 00	 mov	 DWORD PTR ?enumSLOT@@3UStrEnumSLOT@@A+628, 157 ; 0000009dH

; 521  : 	enumSLOT.PUSHABLE_OBJECT3 = SLOT_PUSHABLE_OBJECT3;

  00bc0	c7 05 78 02 00
	00 9e 00 00 00	 mov	 DWORD PTR ?enumSLOT@@3UStrEnumSLOT@@A+632, 158 ; 0000009eH

; 522  : 	enumSLOT.PUSHABLE_OBJECT4 = SLOT_PUSHABLE_OBJECT4;

  00bca	c7 05 7c 02 00
	00 9f 00 00 00	 mov	 DWORD PTR ?enumSLOT@@3UStrEnumSLOT@@A+636, 159 ; 0000009fH

; 523  : 	enumSLOT.PUSHABLE_OBJECT5 = SLOT_PUSHABLE_OBJECT5;

  00bd4	c7 05 80 02 00
	00 a0 00 00 00	 mov	 DWORD PTR ?enumSLOT@@3UStrEnumSLOT@@A+640, 160 ; 000000a0H

; 524  : 	enumSLOT.TRIPWIRE = SLOT_TRIPWIRE;

  00bde	c7 05 84 02 00
	00 a1 00 00 00	 mov	 DWORD PTR ?enumSLOT@@3UStrEnumSLOT@@A+644, 161 ; 000000a1H

; 525  : 	enumSLOT.SENTRY_GUN = SLOT_SENTRY_GUN;

  00be8	c7 05 88 02 00
	00 a2 00 00 00	 mov	 DWORD PTR ?enumSLOT@@3UStrEnumSLOT@@A+648, 162 ; 000000a2H

; 526  : 	enumSLOT.MINE = SLOT_MINE;

  00bf2	c7 05 8c 02 00
	00 a3 00 00 00	 mov	 DWORD PTR ?enumSLOT@@3UStrEnumSLOT@@A+652, 163 ; 000000a3H

; 527  : 	enumSLOT.MAPPER = SLOT_MAPPER;

  00bfc	c7 05 90 02 00
	00 a4 00 00 00	 mov	 DWORD PTR ?enumSLOT@@3UStrEnumSLOT@@A+656, 164 ; 000000a4H

; 528  : 	enumSLOT.OBELISK = SLOT_OBELISK;

  00c06	c7 05 94 02 00
	00 a5 00 00 00	 mov	 DWORD PTR ?enumSLOT@@3UStrEnumSLOT@@A+660, 165 ; 000000a5H

; 529  : 	enumSLOT.FLOOR_4BLADE = SLOT_FLOOR_4BLADE;

  00c10	c7 05 98 02 00
	00 a6 00 00 00	 mov	 DWORD PTR ?enumSLOT@@3UStrEnumSLOT@@A+664, 166 ; 000000a6H

; 530  : 	enumSLOT.ROOF_4BLADE = SLOT_ROOF_4BLADE;

  00c1a	c7 05 9c 02 00
	00 a7 00 00 00	 mov	 DWORD PTR ?enumSLOT@@3UStrEnumSLOT@@A+668, 167 ; 000000a7H

; 531  : 	enumSLOT.BIRD_BLADE = SLOT_BIRD_BLADE;

  00c24	c7 05 a0 02 00
	00 a8 00 00 00	 mov	 DWORD PTR ?enumSLOT@@3UStrEnumSLOT@@A+672, 168 ; 000000a8H

; 532  : 	enumSLOT.CATWALK_BLADE = SLOT_CATWALK_BLADE;

  00c2e	c7 05 a4 02 00
	00 a9 00 00 00	 mov	 DWORD PTR ?enumSLOT@@3UStrEnumSLOT@@A+676, 169 ; 000000a9H

; 533  : 	enumSLOT.MOVING_BLADE = SLOT_MOVING_BLADE;

  00c38	c7 05 a8 02 00
	00 aa 00 00 00	 mov	 DWORD PTR ?enumSLOT@@3UStrEnumSLOT@@A+680, 170 ; 000000aaH

; 534  : 	enumSLOT.PLINTH_BLADE = SLOT_PLINTH_BLADE;

  00c42	c7 05 ac 02 00
	00 ab 00 00 00	 mov	 DWORD PTR ?enumSLOT@@3UStrEnumSLOT@@A+684, 171 ; 000000abH

; 535  : 	enumSLOT.SETH_BLADE = SLOT_SETH_BLADE;

  00c4c	c7 05 b0 02 00
	00 ac 00 00 00	 mov	 DWORD PTR ?enumSLOT@@3UStrEnumSLOT@@A+688, 172 ; 000000acH

; 536  : 	enumSLOT.LIGHTNING_CONDUCTOR = SLOT_LIGHTNING_CONDUCTOR;

  00c56	c7 05 b4 02 00
	00 ad 00 00 00	 mov	 DWORD PTR ?enumSLOT@@3UStrEnumSLOT@@A+692, 173 ; 000000adH

; 537  : 	enumSLOT.ELEMENT_PUZZLE = SLOT_ELEMENT_PUZZLE;

  00c60	c7 05 b8 02 00
	00 ae 00 00 00	 mov	 DWORD PTR ?enumSLOT@@3UStrEnumSLOT@@A+696, 174 ; 000000aeH

; 538  : 	enumSLOT.PUZZLE_ITEM1 = SLOT_PUZZLE_ITEM1;

  00c6a	c7 05 bc 02 00
	00 af 00 00 00	 mov	 DWORD PTR ?enumSLOT@@3UStrEnumSLOT@@A+700, 175 ; 000000afH

; 539  : 	enumSLOT.PUZZLE_ITEM2 = SLOT_PUZZLE_ITEM2;

  00c74	c7 05 c0 02 00
	00 b0 00 00 00	 mov	 DWORD PTR ?enumSLOT@@3UStrEnumSLOT@@A+704, 176 ; 000000b0H

; 540  : 	enumSLOT.PUZZLE_ITEM3 = SLOT_PUZZLE_ITEM3;

  00c7e	c7 05 c4 02 00
	00 b1 00 00 00	 mov	 DWORD PTR ?enumSLOT@@3UStrEnumSLOT@@A+708, 177 ; 000000b1H

; 541  : 	enumSLOT.PUZZLE_ITEM4 = SLOT_PUZZLE_ITEM4;

  00c88	c7 05 c8 02 00
	00 b2 00 00 00	 mov	 DWORD PTR ?enumSLOT@@3UStrEnumSLOT@@A+712, 178 ; 000000b2H

; 542  : 	enumSLOT.PUZZLE_ITEM5 = SLOT_PUZZLE_ITEM5;

  00c92	c7 05 cc 02 00
	00 b3 00 00 00	 mov	 DWORD PTR ?enumSLOT@@3UStrEnumSLOT@@A+716, 179 ; 000000b3H

; 543  : 	enumSLOT.PUZZLE_ITEM6 = SLOT_PUZZLE_ITEM6;

  00c9c	c7 05 d0 02 00
	00 b4 00 00 00	 mov	 DWORD PTR ?enumSLOT@@3UStrEnumSLOT@@A+720, 180 ; 000000b4H

; 544  : 	enumSLOT.PUZZLE_ITEM7 = SLOT_PUZZLE_ITEM7;

  00ca6	c7 05 d4 02 00
	00 b5 00 00 00	 mov	 DWORD PTR ?enumSLOT@@3UStrEnumSLOT@@A+724, 181 ; 000000b5H

; 545  : 	enumSLOT.PUZZLE_ITEM8 = SLOT_PUZZLE_ITEM8;

  00cb0	c7 05 d8 02 00
	00 b6 00 00 00	 mov	 DWORD PTR ?enumSLOT@@3UStrEnumSLOT@@A+728, 182 ; 000000b6H

; 546  : 	enumSLOT.PUZZLE_ITEM9 = SLOT_PUZZLE_ITEM9;

  00cba	c7 05 dc 02 00
	00 b7 00 00 00	 mov	 DWORD PTR ?enumSLOT@@3UStrEnumSLOT@@A+732, 183 ; 000000b7H

; 547  : 	enumSLOT.PUZZLE_ITEM10 = SLOT_PUZZLE_ITEM10;

  00cc4	c7 05 e0 02 00
	00 b8 00 00 00	 mov	 DWORD PTR ?enumSLOT@@3UStrEnumSLOT@@A+736, 184 ; 000000b8H

; 548  : 	enumSLOT.PUZZLE_ITEM11 = SLOT_PUZZLE_ITEM11;

  00cce	c7 05 e4 02 00
	00 b9 00 00 00	 mov	 DWORD PTR ?enumSLOT@@3UStrEnumSLOT@@A+740, 185 ; 000000b9H

; 549  : 	enumSLOT.PUZZLE_ITEM12 = SLOT_PUZZLE_ITEM12;

  00cd8	c7 05 e8 02 00
	00 ba 00 00 00	 mov	 DWORD PTR ?enumSLOT@@3UStrEnumSLOT@@A+744, 186 ; 000000baH

; 550  : 	enumSLOT.PUZZLE_ITEM1_COMBO1 = SLOT_PUZZLE_ITEM1_COMBO1;

  00ce2	c7 05 ec 02 00
	00 bb 00 00 00	 mov	 DWORD PTR ?enumSLOT@@3UStrEnumSLOT@@A+748, 187 ; 000000bbH

; 551  : 	enumSLOT.PUZZLE_ITEM1_COMBO2 = SLOT_PUZZLE_ITEM1_COMBO2;

  00cec	c7 05 f0 02 00
	00 bc 00 00 00	 mov	 DWORD PTR ?enumSLOT@@3UStrEnumSLOT@@A+752, 188 ; 000000bcH

; 552  : 	enumSLOT.PUZZLE_ITEM2_COMBO1 = SLOT_PUZZLE_ITEM2_COMBO1;

  00cf6	c7 05 f4 02 00
	00 bd 00 00 00	 mov	 DWORD PTR ?enumSLOT@@3UStrEnumSLOT@@A+756, 189 ; 000000bdH

; 553  : 	enumSLOT.PUZZLE_ITEM2_COMBO2 = SLOT_PUZZLE_ITEM2_COMBO2;

  00d00	c7 05 f8 02 00
	00 be 00 00 00	 mov	 DWORD PTR ?enumSLOT@@3UStrEnumSLOT@@A+760, 190 ; 000000beH

; 554  : 	enumSLOT.PUZZLE_ITEM3_COMBO1 = SLOT_PUZZLE_ITEM3_COMBO1;

  00d0a	c7 05 fc 02 00
	00 bf 00 00 00	 mov	 DWORD PTR ?enumSLOT@@3UStrEnumSLOT@@A+764, 191 ; 000000bfH

; 555  : 	enumSLOT.PUZZLE_ITEM3_COMBO2 = SLOT_PUZZLE_ITEM3_COMBO2;

  00d14	c7 05 00 03 00
	00 c0 00 00 00	 mov	 DWORD PTR ?enumSLOT@@3UStrEnumSLOT@@A+768, 192 ; 000000c0H

; 556  : 	enumSLOT.PUZZLE_ITEM4_COMBO1 = SLOT_PUZZLE_ITEM4_COMBO1;

  00d1e	c7 05 04 03 00
	00 c1 00 00 00	 mov	 DWORD PTR ?enumSLOT@@3UStrEnumSLOT@@A+772, 193 ; 000000c1H

; 557  : 	enumSLOT.PUZZLE_ITEM4_COMBO2 = SLOT_PUZZLE_ITEM4_COMBO2;

  00d28	c7 05 08 03 00
	00 c2 00 00 00	 mov	 DWORD PTR ?enumSLOT@@3UStrEnumSLOT@@A+776, 194 ; 000000c2H

; 558  : 	enumSLOT.PUZZLE_ITEM5_COMBO1 = SLOT_PUZZLE_ITEM5_COMBO1;

  00d32	c7 05 0c 03 00
	00 c3 00 00 00	 mov	 DWORD PTR ?enumSLOT@@3UStrEnumSLOT@@A+780, 195 ; 000000c3H

; 559  : 	enumSLOT.PUZZLE_ITEM5_COMBO2 = SLOT_PUZZLE_ITEM5_COMBO2;

  00d3c	c7 05 10 03 00
	00 c4 00 00 00	 mov	 DWORD PTR ?enumSLOT@@3UStrEnumSLOT@@A+784, 196 ; 000000c4H

; 560  : 	enumSLOT.PUZZLE_ITEM6_COMBO1 = SLOT_PUZZLE_ITEM6_COMBO1;

  00d46	c7 05 14 03 00
	00 c5 00 00 00	 mov	 DWORD PTR ?enumSLOT@@3UStrEnumSLOT@@A+788, 197 ; 000000c5H

; 561  : 	enumSLOT.PUZZLE_ITEM6_COMBO2 = SLOT_PUZZLE_ITEM6_COMBO2;

  00d50	c7 05 18 03 00
	00 c6 00 00 00	 mov	 DWORD PTR ?enumSLOT@@3UStrEnumSLOT@@A+792, 198 ; 000000c6H

; 562  : 	enumSLOT.PUZZLE_ITEM7_COMBO1 = SLOT_PUZZLE_ITEM7_COMBO1;

  00d5a	c7 05 1c 03 00
	00 c7 00 00 00	 mov	 DWORD PTR ?enumSLOT@@3UStrEnumSLOT@@A+796, 199 ; 000000c7H

; 563  : 	enumSLOT.PUZZLE_ITEM7_COMBO2 = SLOT_PUZZLE_ITEM7_COMBO2;

  00d64	c7 05 20 03 00
	00 c8 00 00 00	 mov	 DWORD PTR ?enumSLOT@@3UStrEnumSLOT@@A+800, 200 ; 000000c8H

; 564  : 	enumSLOT.PUZZLE_ITEM8_COMBO1 = SLOT_PUZZLE_ITEM8_COMBO1;

  00d6e	c7 05 24 03 00
	00 c9 00 00 00	 mov	 DWORD PTR ?enumSLOT@@3UStrEnumSLOT@@A+804, 201 ; 000000c9H

; 565  : 	enumSLOT.PUZZLE_ITEM8_COMBO2 = SLOT_PUZZLE_ITEM8_COMBO2;

  00d78	c7 05 28 03 00
	00 ca 00 00 00	 mov	 DWORD PTR ?enumSLOT@@3UStrEnumSLOT@@A+808, 202 ; 000000caH

; 566  : 	enumSLOT.KEY_ITEM1 = SLOT_KEY_ITEM1;

  00d82	c7 05 2c 03 00
	00 cb 00 00 00	 mov	 DWORD PTR ?enumSLOT@@3UStrEnumSLOT@@A+812, 203 ; 000000cbH

; 567  : 	enumSLOT.KEY_ITEM2 = SLOT_KEY_ITEM2;

  00d8c	c7 05 30 03 00
	00 cc 00 00 00	 mov	 DWORD PTR ?enumSLOT@@3UStrEnumSLOT@@A+816, 204 ; 000000ccH

; 568  : 	enumSLOT.KEY_ITEM3 = SLOT_KEY_ITEM3;

  00d96	c7 05 34 03 00
	00 cd 00 00 00	 mov	 DWORD PTR ?enumSLOT@@3UStrEnumSLOT@@A+820, 205 ; 000000cdH

; 569  : 	enumSLOT.KEY_ITEM4 = SLOT_KEY_ITEM4;

  00da0	c7 05 38 03 00
	00 ce 00 00 00	 mov	 DWORD PTR ?enumSLOT@@3UStrEnumSLOT@@A+824, 206 ; 000000ceH

; 570  : 	enumSLOT.KEY_ITEM5 = SLOT_KEY_ITEM5;

  00daa	c7 05 3c 03 00
	00 cf 00 00 00	 mov	 DWORD PTR ?enumSLOT@@3UStrEnumSLOT@@A+828, 207 ; 000000cfH

; 571  : 	enumSLOT.KEY_ITEM6 = SLOT_KEY_ITEM6;

  00db4	c7 05 40 03 00
	00 d0 00 00 00	 mov	 DWORD PTR ?enumSLOT@@3UStrEnumSLOT@@A+832, 208 ; 000000d0H

; 572  : 	enumSLOT.KEY_ITEM7 = SLOT_KEY_ITEM7;

  00dbe	c7 05 44 03 00
	00 d1 00 00 00	 mov	 DWORD PTR ?enumSLOT@@3UStrEnumSLOT@@A+836, 209 ; 000000d1H

; 573  : 	enumSLOT.KEY_ITEM8 = SLOT_KEY_ITEM8;

  00dc8	c7 05 48 03 00
	00 d2 00 00 00	 mov	 DWORD PTR ?enumSLOT@@3UStrEnumSLOT@@A+840, 210 ; 000000d2H

; 574  : 	enumSLOT.KEY_ITEM9 = SLOT_KEY_ITEM9;

  00dd2	c7 05 4c 03 00
	00 d3 00 00 00	 mov	 DWORD PTR ?enumSLOT@@3UStrEnumSLOT@@A+844, 211 ; 000000d3H

; 575  : 	enumSLOT.KEY_ITEM10 = SLOT_KEY_ITEM10;

  00ddc	c7 05 50 03 00
	00 d4 00 00 00	 mov	 DWORD PTR ?enumSLOT@@3UStrEnumSLOT@@A+848, 212 ; 000000d4H

; 576  : 	enumSLOT.KEY_ITEM11 = SLOT_KEY_ITEM11;

  00de6	c7 05 54 03 00
	00 d5 00 00 00	 mov	 DWORD PTR ?enumSLOT@@3UStrEnumSLOT@@A+852, 213 ; 000000d5H

; 577  : 	enumSLOT.KEY_ITEM12 = SLOT_KEY_ITEM12;

  00df0	c7 05 58 03 00
	00 d6 00 00 00	 mov	 DWORD PTR ?enumSLOT@@3UStrEnumSLOT@@A+856, 214 ; 000000d6H

; 578  : 	enumSLOT.KEY_ITEM1_COMBO1 = SLOT_KEY_ITEM1_COMBO1;

  00dfa	c7 05 5c 03 00
	00 d7 00 00 00	 mov	 DWORD PTR ?enumSLOT@@3UStrEnumSLOT@@A+860, 215 ; 000000d7H

; 579  : 	enumSLOT.KEY_ITEM1_COMBO2 = SLOT_KEY_ITEM1_COMBO2;

  00e04	c7 05 60 03 00
	00 d8 00 00 00	 mov	 DWORD PTR ?enumSLOT@@3UStrEnumSLOT@@A+864, 216 ; 000000d8H

; 580  : 	enumSLOT.KEY_ITEM2_COMBO1 = SLOT_KEY_ITEM2_COMBO1;

  00e0e	c7 05 64 03 00
	00 d9 00 00 00	 mov	 DWORD PTR ?enumSLOT@@3UStrEnumSLOT@@A+868, 217 ; 000000d9H

; 581  : 	enumSLOT.KEY_ITEM2_COMBO2 = SLOT_KEY_ITEM2_COMBO2;

  00e18	c7 05 68 03 00
	00 da 00 00 00	 mov	 DWORD PTR ?enumSLOT@@3UStrEnumSLOT@@A+872, 218 ; 000000daH

; 582  : 	enumSLOT.KEY_ITEM3_COMBO1 = SLOT_KEY_ITEM3_COMBO1;

  00e22	c7 05 6c 03 00
	00 db 00 00 00	 mov	 DWORD PTR ?enumSLOT@@3UStrEnumSLOT@@A+876, 219 ; 000000dbH

; 583  : 	enumSLOT.KEY_ITEM3_COMBO2 = SLOT_KEY_ITEM3_COMBO2;

  00e2c	c7 05 70 03 00
	00 dc 00 00 00	 mov	 DWORD PTR ?enumSLOT@@3UStrEnumSLOT@@A+880, 220 ; 000000dcH

; 584  : 	enumSLOT.KEY_ITEM4_COMBO1 = SLOT_KEY_ITEM4_COMBO1;

  00e36	c7 05 74 03 00
	00 dd 00 00 00	 mov	 DWORD PTR ?enumSLOT@@3UStrEnumSLOT@@A+884, 221 ; 000000ddH

; 585  : 	enumSLOT.KEY_ITEM4_COMBO2 = SLOT_KEY_ITEM4_COMBO2;

  00e40	c7 05 78 03 00
	00 de 00 00 00	 mov	 DWORD PTR ?enumSLOT@@3UStrEnumSLOT@@A+888, 222 ; 000000deH

; 586  : 	enumSLOT.KEY_ITEM5_COMBO1 = SLOT_KEY_ITEM5_COMBO1;

  00e4a	c7 05 7c 03 00
	00 df 00 00 00	 mov	 DWORD PTR ?enumSLOT@@3UStrEnumSLOT@@A+892, 223 ; 000000dfH

; 587  : 	enumSLOT.KEY_ITEM5_COMBO2 = SLOT_KEY_ITEM5_COMBO2;

  00e54	c7 05 80 03 00
	00 e0 00 00 00	 mov	 DWORD PTR ?enumSLOT@@3UStrEnumSLOT@@A+896, 224 ; 000000e0H

; 588  : 	enumSLOT.KEY_ITEM6_COMBO1 = SLOT_KEY_ITEM6_COMBO1;

  00e5e	c7 05 84 03 00
	00 e1 00 00 00	 mov	 DWORD PTR ?enumSLOT@@3UStrEnumSLOT@@A+900, 225 ; 000000e1H

; 589  : 	enumSLOT.KEY_ITEM6_COMBO2 = SLOT_KEY_ITEM6_COMBO2;

  00e68	c7 05 88 03 00
	00 e2 00 00 00	 mov	 DWORD PTR ?enumSLOT@@3UStrEnumSLOT@@A+904, 226 ; 000000e2H

; 590  : 	enumSLOT.KEY_ITEM7_COMBO1 = SLOT_KEY_ITEM7_COMBO1;

  00e72	c7 05 8c 03 00
	00 e3 00 00 00	 mov	 DWORD PTR ?enumSLOT@@3UStrEnumSLOT@@A+908, 227 ; 000000e3H

; 591  : 	enumSLOT.KEY_ITEM7_COMBO2 = SLOT_KEY_ITEM7_COMBO2;

  00e7c	c7 05 90 03 00
	00 e4 00 00 00	 mov	 DWORD PTR ?enumSLOT@@3UStrEnumSLOT@@A+912, 228 ; 000000e4H

; 592  : 	enumSLOT.KEY_ITEM8_COMBO1 = SLOT_KEY_ITEM8_COMBO1;

  00e86	c7 05 94 03 00
	00 e5 00 00 00	 mov	 DWORD PTR ?enumSLOT@@3UStrEnumSLOT@@A+916, 229 ; 000000e5H

; 593  : 	enumSLOT.KEY_ITEM8_COMBO2 = SLOT_KEY_ITEM8_COMBO2;

  00e90	c7 05 98 03 00
	00 e6 00 00 00	 mov	 DWORD PTR ?enumSLOT@@3UStrEnumSLOT@@A+920, 230 ; 000000e6H

; 594  : 	enumSLOT.PICKUP_ITEM1 = SLOT_PICKUP_ITEM1;

  00e9a	c7 05 9c 03 00
	00 e7 00 00 00	 mov	 DWORD PTR ?enumSLOT@@3UStrEnumSLOT@@A+924, 231 ; 000000e7H

; 595  : 	enumSLOT.PICKUP_ITEM2 = SLOT_PICKUP_ITEM2;

  00ea4	c7 05 a0 03 00
	00 e8 00 00 00	 mov	 DWORD PTR ?enumSLOT@@3UStrEnumSLOT@@A+928, 232 ; 000000e8H

; 596  : 	enumSLOT.PICKUP_ITEM3 = SLOT_PICKUP_ITEM3;

  00eae	c7 05 a4 03 00
	00 e9 00 00 00	 mov	 DWORD PTR ?enumSLOT@@3UStrEnumSLOT@@A+932, 233 ; 000000e9H

; 597  : 	enumSLOT.PICKUP_ITEM4 = SLOT_PICKUP_ITEM4;

  00eb8	c7 05 a8 03 00
	00 ea 00 00 00	 mov	 DWORD PTR ?enumSLOT@@3UStrEnumSLOT@@A+936, 234 ; 000000eaH

; 598  : 	enumSLOT.PICKUP_ITEM1_COMBO1 = SLOT_PICKUP_ITEM1_COMBO1;

  00ec2	c7 05 ac 03 00
	00 eb 00 00 00	 mov	 DWORD PTR ?enumSLOT@@3UStrEnumSLOT@@A+940, 235 ; 000000ebH

; 599  : 	enumSLOT.PICKUP_ITEM1_COMBO2 = SLOT_PICKUP_ITEM1_COMBO2;

  00ecc	c7 05 b0 03 00
	00 ec 00 00 00	 mov	 DWORD PTR ?enumSLOT@@3UStrEnumSLOT@@A+944, 236 ; 000000ecH

; 600  : 	enumSLOT.PICKUP_ITEM2_COMBO1 = SLOT_PICKUP_ITEM2_COMBO1;

  00ed6	c7 05 b4 03 00
	00 ed 00 00 00	 mov	 DWORD PTR ?enumSLOT@@3UStrEnumSLOT@@A+948, 237 ; 000000edH

; 601  : 	enumSLOT.PICKUP_ITEM2_COMBO2 = SLOT_PICKUP_ITEM2_COMBO2;

  00ee0	c7 05 b8 03 00
	00 ee 00 00 00	 mov	 DWORD PTR ?enumSLOT@@3UStrEnumSLOT@@A+952, 238 ; 000000eeH

; 602  : 	enumSLOT.PICKUP_ITEM3_COMBO1 = SLOT_PICKUP_ITEM3_COMBO1;

  00eea	c7 05 bc 03 00
	00 ef 00 00 00	 mov	 DWORD PTR ?enumSLOT@@3UStrEnumSLOT@@A+956, 239 ; 000000efH

; 603  : 	enumSLOT.PICKUP_ITEM3_COMBO2 = SLOT_PICKUP_ITEM3_COMBO2;

  00ef4	c7 05 c0 03 00
	00 f0 00 00 00	 mov	 DWORD PTR ?enumSLOT@@3UStrEnumSLOT@@A+960, 240 ; 000000f0H

; 604  : 	enumSLOT.PICKUP_ITEM4_COMBO1 = SLOT_PICKUP_ITEM4_COMBO1;

  00efe	c7 05 c4 03 00
	00 f1 00 00 00	 mov	 DWORD PTR ?enumSLOT@@3UStrEnumSLOT@@A+964, 241 ; 000000f1H

; 605  : 	enumSLOT.PICKUP_ITEM4_COMBO2 = SLOT_PICKUP_ITEM4_COMBO2;

  00f08	c7 05 c8 03 00
	00 f2 00 00 00	 mov	 DWORD PTR ?enumSLOT@@3UStrEnumSLOT@@A+968, 242 ; 000000f2H

; 606  : 	enumSLOT.EXAMINE1 = SLOT_EXAMINE1;

  00f12	c7 05 cc 03 00
	00 f3 00 00 00	 mov	 DWORD PTR ?enumSLOT@@3UStrEnumSLOT@@A+972, 243 ; 000000f3H

; 607  : 	enumSLOT.EXAMINE2 = SLOT_EXAMINE2;

  00f1c	c7 05 d0 03 00
	00 f4 00 00 00	 mov	 DWORD PTR ?enumSLOT@@3UStrEnumSLOT@@A+976, 244 ; 000000f4H

; 608  : 	enumSLOT.EXAMINE3 = SLOT_EXAMINE3;

  00f26	c7 05 d4 03 00
	00 f5 00 00 00	 mov	 DWORD PTR ?enumSLOT@@3UStrEnumSLOT@@A+980, 245 ; 000000f5H

; 609  : 	enumSLOT.CROWBAR_ITEM = SLOT_CROWBAR_ITEM;

  00f30	c7 05 d8 03 00
	00 f6 00 00 00	 mov	 DWORD PTR ?enumSLOT@@3UStrEnumSLOT@@A+984, 246 ; 000000f6H

; 610  : 	enumSLOT.BURNING_TORCH_ITEM = SLOT_BURNING_TORCH_ITEM;

  00f3a	c7 05 dc 03 00
	00 f7 00 00 00	 mov	 DWORD PTR ?enumSLOT@@3UStrEnumSLOT@@A+988, 247 ; 000000f7H

; 611  : 	enumSLOT.CLOCKWORK_BEETLE = SLOT_CLOCKWORK_BEETLE;

  00f44	c7 05 e0 03 00
	00 f8 00 00 00	 mov	 DWORD PTR ?enumSLOT@@3UStrEnumSLOT@@A+992, 248 ; 000000f8H

; 612  : 	enumSLOT.CLOCKWORK_BEETLE_COMBO1 = SLOT_CLOCKWORK_BEETLE_COMBO1;

  00f4e	c7 05 e4 03 00
	00 f9 00 00 00	 mov	 DWORD PTR ?enumSLOT@@3UStrEnumSLOT@@A+996, 249 ; 000000f9H

; 613  : 	enumSLOT.CLOCKWORK_BEETLE_COMBO2 = SLOT_CLOCKWORK_BEETLE_COMBO2;

  00f58	c7 05 e8 03 00
	00 fa 00 00 00	 mov	 DWORD PTR ?enumSLOT@@3UStrEnumSLOT@@A+1000, 250 ; 000000faH

; 614  : 	enumSLOT.MINE_DETECTOR = SLOT_MINE_DETECTOR;

  00f62	c7 05 ec 03 00
	00 fb 00 00 00	 mov	 DWORD PTR ?enumSLOT@@3UStrEnumSLOT@@A+1004, 251 ; 000000fbH

; 615  : 	enumSLOT.QUEST_ITEM1 = SLOT_QUEST_ITEM1;

  00f6c	c7 05 f0 03 00
	00 fc 00 00 00	 mov	 DWORD PTR ?enumSLOT@@3UStrEnumSLOT@@A+1008, 252 ; 000000fcH

; 616  : 	enumSLOT.QUEST_ITEM2 = SLOT_QUEST_ITEM2;

  00f76	c7 05 f4 03 00
	00 fd 00 00 00	 mov	 DWORD PTR ?enumSLOT@@3UStrEnumSLOT@@A+1012, 253 ; 000000fdH

; 617  : 	enumSLOT.QUEST_ITEM3 = SLOT_QUEST_ITEM3;

  00f80	c7 05 f8 03 00
	00 fe 00 00 00	 mov	 DWORD PTR ?enumSLOT@@3UStrEnumSLOT@@A+1016, 254 ; 000000feH

; 618  : 	enumSLOT.QUEST_ITEM4 = SLOT_QUEST_ITEM4;

  00f8a	c7 05 fc 03 00
	00 ff 00 00 00	 mov	 DWORD PTR ?enumSLOT@@3UStrEnumSLOT@@A+1020, 255 ; 000000ffH

; 619  : 	enumSLOT.QUEST_ITEM5 = SLOT_QUEST_ITEM5;

  00f94	c7 05 00 04 00
	00 00 01 00 00	 mov	 DWORD PTR ?enumSLOT@@3UStrEnumSLOT@@A+1024, 256 ; 00000100H

; 620  : 	enumSLOT.QUEST_ITEM6 = SLOT_QUEST_ITEM6;

  00f9e	c7 05 04 04 00
	00 01 01 00 00	 mov	 DWORD PTR ?enumSLOT@@3UStrEnumSLOT@@A+1028, 257 ; 00000101H

; 621  : 	enumSLOT.MAP = SLOT_MAP;

  00fa8	c7 05 08 04 00
	00 02 01 00 00	 mov	 DWORD PTR ?enumSLOT@@3UStrEnumSLOT@@A+1032, 258 ; 00000102H

; 622  : 	enumSLOT.SECRET_MAP = SLOT_SECRET_MAP;

  00fb2	c7 05 0c 04 00
	00 03 01 00 00	 mov	 DWORD PTR ?enumSLOT@@3UStrEnumSLOT@@A+1036, 259 ; 00000103H

; 623  : 	enumSLOT.PUZZLE_HOLE1 = SLOT_PUZZLE_HOLE1;

  00fbc	c7 05 10 04 00
	00 04 01 00 00	 mov	 DWORD PTR ?enumSLOT@@3UStrEnumSLOT@@A+1040, 260 ; 00000104H

; 624  : 	enumSLOT.PUZZLE_HOLE2 = SLOT_PUZZLE_HOLE2;

  00fc6	c7 05 14 04 00
	00 05 01 00 00	 mov	 DWORD PTR ?enumSLOT@@3UStrEnumSLOT@@A+1044, 261 ; 00000105H

; 625  : 	enumSLOT.PUZZLE_HOLE3 = SLOT_PUZZLE_HOLE3;

  00fd0	c7 05 18 04 00
	00 06 01 00 00	 mov	 DWORD PTR ?enumSLOT@@3UStrEnumSLOT@@A+1048, 262 ; 00000106H

; 626  : 	enumSLOT.PUZZLE_HOLE4 = SLOT_PUZZLE_HOLE4;

  00fda	c7 05 1c 04 00
	00 07 01 00 00	 mov	 DWORD PTR ?enumSLOT@@3UStrEnumSLOT@@A+1052, 263 ; 00000107H

; 627  : 	enumSLOT.PUZZLE_HOLE5 = SLOT_PUZZLE_HOLE5;

  00fe4	c7 05 20 04 00
	00 08 01 00 00	 mov	 DWORD PTR ?enumSLOT@@3UStrEnumSLOT@@A+1056, 264 ; 00000108H

; 628  : 	enumSLOT.PUZZLE_HOLE6 = SLOT_PUZZLE_HOLE6;

  00fee	c7 05 24 04 00
	00 09 01 00 00	 mov	 DWORD PTR ?enumSLOT@@3UStrEnumSLOT@@A+1060, 265 ; 00000109H

; 629  : 	enumSLOT.PUZZLE_HOLE7 = SLOT_PUZZLE_HOLE7;

  00ff8	c7 05 28 04 00
	00 0a 01 00 00	 mov	 DWORD PTR ?enumSLOT@@3UStrEnumSLOT@@A+1064, 266 ; 0000010aH

; 630  : 	enumSLOT.PUZZLE_HOLE8 = SLOT_PUZZLE_HOLE8;

  01002	c7 05 2c 04 00
	00 0b 01 00 00	 mov	 DWORD PTR ?enumSLOT@@3UStrEnumSLOT@@A+1068, 267 ; 0000010bH

; 631  : 	enumSLOT.PUZZLE_HOLE9 = SLOT_PUZZLE_HOLE9;

  0100c	c7 05 30 04 00
	00 0c 01 00 00	 mov	 DWORD PTR ?enumSLOT@@3UStrEnumSLOT@@A+1072, 268 ; 0000010cH

; 632  : 	enumSLOT.PUZZLE_HOLE10 = SLOT_PUZZLE_HOLE10;

  01016	c7 05 34 04 00
	00 0d 01 00 00	 mov	 DWORD PTR ?enumSLOT@@3UStrEnumSLOT@@A+1076, 269 ; 0000010dH

; 633  : 	enumSLOT.PUZZLE_HOLE11 = SLOT_PUZZLE_HOLE11;

  01020	c7 05 38 04 00
	00 0e 01 00 00	 mov	 DWORD PTR ?enumSLOT@@3UStrEnumSLOT@@A+1080, 270 ; 0000010eH

; 634  : 	enumSLOT.PUZZLE_HOLE12 = SLOT_PUZZLE_HOLE12;

  0102a	c7 05 3c 04 00
	00 0f 01 00 00	 mov	 DWORD PTR ?enumSLOT@@3UStrEnumSLOT@@A+1084, 271 ; 0000010fH

; 635  : 	enumSLOT.PUZZLE_DONE1 = SLOT_PUZZLE_DONE1;

  01034	c7 05 40 04 00
	00 10 01 00 00	 mov	 DWORD PTR ?enumSLOT@@3UStrEnumSLOT@@A+1088, 272 ; 00000110H

; 636  : 	enumSLOT.PUZZLE_DONE2 = SLOT_PUZZLE_DONE2;

  0103e	c7 05 44 04 00
	00 11 01 00 00	 mov	 DWORD PTR ?enumSLOT@@3UStrEnumSLOT@@A+1092, 273 ; 00000111H

; 637  : 	enumSLOT.PUZZLE_DONE3 = SLOT_PUZZLE_DONE3;

  01048	c7 05 48 04 00
	00 12 01 00 00	 mov	 DWORD PTR ?enumSLOT@@3UStrEnumSLOT@@A+1096, 274 ; 00000112H

; 638  : 	enumSLOT.PUZZLE_DONE4 = SLOT_PUZZLE_DONE4;

  01052	c7 05 4c 04 00
	00 13 01 00 00	 mov	 DWORD PTR ?enumSLOT@@3UStrEnumSLOT@@A+1100, 275 ; 00000113H

; 639  : 	enumSLOT.PUZZLE_DONE5 = SLOT_PUZZLE_DONE5;

  0105c	c7 05 50 04 00
	00 14 01 00 00	 mov	 DWORD PTR ?enumSLOT@@3UStrEnumSLOT@@A+1104, 276 ; 00000114H

; 640  : 	enumSLOT.PUZZLE_DONE6 = SLOT_PUZZLE_DONE6;

  01066	c7 05 54 04 00
	00 15 01 00 00	 mov	 DWORD PTR ?enumSLOT@@3UStrEnumSLOT@@A+1108, 277 ; 00000115H

; 641  : 	enumSLOT.PUZZLE_DONE7 = SLOT_PUZZLE_DONE7;

  01070	c7 05 58 04 00
	00 16 01 00 00	 mov	 DWORD PTR ?enumSLOT@@3UStrEnumSLOT@@A+1112, 278 ; 00000116H

; 642  : 	enumSLOT.PUZZLE_DONE8 = SLOT_PUZZLE_DONE8;

  0107a	c7 05 5c 04 00
	00 17 01 00 00	 mov	 DWORD PTR ?enumSLOT@@3UStrEnumSLOT@@A+1116, 279 ; 00000117H

; 643  : 	enumSLOT.PUZZLE_DONE9 = SLOT_PUZZLE_DONE9;

  01084	c7 05 60 04 00
	00 18 01 00 00	 mov	 DWORD PTR ?enumSLOT@@3UStrEnumSLOT@@A+1120, 280 ; 00000118H

; 644  : 	enumSLOT.PUZZLE_DONE10 = SLOT_PUZZLE_DONE10;

  0108e	c7 05 64 04 00
	00 19 01 00 00	 mov	 DWORD PTR ?enumSLOT@@3UStrEnumSLOT@@A+1124, 281 ; 00000119H

; 645  : 	enumSLOT.PUZZLE_DONE11 = SLOT_PUZZLE_DONE11;

  01098	c7 05 68 04 00
	00 1a 01 00 00	 mov	 DWORD PTR ?enumSLOT@@3UStrEnumSLOT@@A+1128, 282 ; 0000011aH

; 646  : 	enumSLOT.PUZZLE_DONE12 = SLOT_PUZZLE_DONE12;

  010a2	c7 05 6c 04 00
	00 1b 01 00 00	 mov	 DWORD PTR ?enumSLOT@@3UStrEnumSLOT@@A+1132, 283 ; 0000011bH

; 647  : 	enumSLOT.KEY_HOLE1 = SLOT_KEY_HOLE1;

  010ac	c7 05 70 04 00
	00 1c 01 00 00	 mov	 DWORD PTR ?enumSLOT@@3UStrEnumSLOT@@A+1136, 284 ; 0000011cH

; 648  : 	enumSLOT.KEY_HOLE2 = SLOT_KEY_HOLE2;

  010b6	c7 05 74 04 00
	00 1d 01 00 00	 mov	 DWORD PTR ?enumSLOT@@3UStrEnumSLOT@@A+1140, 285 ; 0000011dH

; 649  : 	enumSLOT.KEY_HOLE3 = SLOT_KEY_HOLE3;

  010c0	c7 05 78 04 00
	00 1e 01 00 00	 mov	 DWORD PTR ?enumSLOT@@3UStrEnumSLOT@@A+1144, 286 ; 0000011eH

; 650  : 	enumSLOT.KEY_HOLE4 = SLOT_KEY_HOLE4;

  010ca	c7 05 7c 04 00
	00 1f 01 00 00	 mov	 DWORD PTR ?enumSLOT@@3UStrEnumSLOT@@A+1148, 287 ; 0000011fH

; 651  : 	enumSLOT.KEY_HOLE5 = SLOT_KEY_HOLE5;

  010d4	c7 05 80 04 00
	00 20 01 00 00	 mov	 DWORD PTR ?enumSLOT@@3UStrEnumSLOT@@A+1152, 288 ; 00000120H

; 652  : 	enumSLOT.KEY_HOLE6 = SLOT_KEY_HOLE6;

  010de	c7 05 84 04 00
	00 21 01 00 00	 mov	 DWORD PTR ?enumSLOT@@3UStrEnumSLOT@@A+1156, 289 ; 00000121H

; 653  : 	enumSLOT.KEY_HOLE7 = SLOT_KEY_HOLE7;

  010e8	c7 05 88 04 00
	00 22 01 00 00	 mov	 DWORD PTR ?enumSLOT@@3UStrEnumSLOT@@A+1160, 290 ; 00000122H

; 654  : 	enumSLOT.KEY_HOLE8 = SLOT_KEY_HOLE8;

  010f2	c7 05 8c 04 00
	00 23 01 00 00	 mov	 DWORD PTR ?enumSLOT@@3UStrEnumSLOT@@A+1164, 291 ; 00000123H

; 655  : 	enumSLOT.KEY_HOLE9 = SLOT_KEY_HOLE9;

  010fc	c7 05 90 04 00
	00 24 01 00 00	 mov	 DWORD PTR ?enumSLOT@@3UStrEnumSLOT@@A+1168, 292 ; 00000124H

; 656  : 	enumSLOT.KEY_HOLE10 = SLOT_KEY_HOLE10;

  01106	c7 05 94 04 00
	00 25 01 00 00	 mov	 DWORD PTR ?enumSLOT@@3UStrEnumSLOT@@A+1172, 293 ; 00000125H

; 657  : 	enumSLOT.KEY_HOLE11 = SLOT_KEY_HOLE11;

  01110	c7 05 98 04 00
	00 26 01 00 00	 mov	 DWORD PTR ?enumSLOT@@3UStrEnumSLOT@@A+1176, 294 ; 00000126H

; 658  : 	enumSLOT.KEY_HOLE12 = SLOT_KEY_HOLE12;

  0111a	c7 05 9c 04 00
	00 27 01 00 00	 mov	 DWORD PTR ?enumSLOT@@3UStrEnumSLOT@@A+1180, 295 ; 00000127H

; 659  : 	enumSLOT.WATERSKIN1_EMPTY = SLOT_WATERSKIN1_EMPTY;

  01124	c7 05 a0 04 00
	00 28 01 00 00	 mov	 DWORD PTR ?enumSLOT@@3UStrEnumSLOT@@A+1184, 296 ; 00000128H

; 660  : 	enumSLOT.WATERSKIN1_1 = SLOT_WATERSKIN1_1;

  0112e	c7 05 a4 04 00
	00 29 01 00 00	 mov	 DWORD PTR ?enumSLOT@@3UStrEnumSLOT@@A+1188, 297 ; 00000129H

; 661  : 	enumSLOT.WATERSKIN1_2 = SLOT_WATERSKIN1_2;

  01138	c7 05 a8 04 00
	00 2a 01 00 00	 mov	 DWORD PTR ?enumSLOT@@3UStrEnumSLOT@@A+1192, 298 ; 0000012aH

; 662  : 	enumSLOT.WATERSKIN1_3 = SLOT_WATERSKIN1_3;

  01142	c7 05 ac 04 00
	00 2b 01 00 00	 mov	 DWORD PTR ?enumSLOT@@3UStrEnumSLOT@@A+1196, 299 ; 0000012bH

; 663  : 	enumSLOT.WATERSKIN2_EMPTY = SLOT_WATERSKIN2_EMPTY;

  0114c	c7 05 b0 04 00
	00 2c 01 00 00	 mov	 DWORD PTR ?enumSLOT@@3UStrEnumSLOT@@A+1200, 300 ; 0000012cH

; 664  : 	enumSLOT.WATERSKIN2_1 = SLOT_WATERSKIN2_1;

  01156	c7 05 b4 04 00
	00 2d 01 00 00	 mov	 DWORD PTR ?enumSLOT@@3UStrEnumSLOT@@A+1204, 301 ; 0000012dH

; 665  : 	enumSLOT.WATERSKIN2_2 = SLOT_WATERSKIN2_2;

  01160	c7 05 b8 04 00
	00 2e 01 00 00	 mov	 DWORD PTR ?enumSLOT@@3UStrEnumSLOT@@A+1208, 302 ; 0000012eH

; 666  : 	enumSLOT.WATERSKIN2_3 = SLOT_WATERSKIN2_3;

  0116a	c7 05 bc 04 00
	00 2f 01 00 00	 mov	 DWORD PTR ?enumSLOT@@3UStrEnumSLOT@@A+1212, 303 ; 0000012fH

; 667  : 	enumSLOT.WATERSKIN2_4 = SLOT_WATERSKIN2_4;

  01174	c7 05 c0 04 00
	00 30 01 00 00	 mov	 DWORD PTR ?enumSLOT@@3UStrEnumSLOT@@A+1216, 304 ; 00000130H

; 668  : 	enumSLOT.WATERSKIN2_5 = SLOT_WATERSKIN2_5;

  0117e	c7 05 c4 04 00
	00 31 01 00 00	 mov	 DWORD PTR ?enumSLOT@@3UStrEnumSLOT@@A+1220, 305 ; 00000131H

; 669  : 	enumSLOT.SWITCH_TYPE1 = SLOT_SWITCH_TYPE1;

  01188	c7 05 c8 04 00
	00 32 01 00 00	 mov	 DWORD PTR ?enumSLOT@@3UStrEnumSLOT@@A+1224, 306 ; 00000132H

; 670  : 	enumSLOT.SWITCH_TYPE2 = SLOT_SWITCH_TYPE2;

  01192	c7 05 cc 04 00
	00 33 01 00 00	 mov	 DWORD PTR ?enumSLOT@@3UStrEnumSLOT@@A+1228, 307 ; 00000133H

; 671  : 	enumSLOT.SWITCH_TYPE3 = SLOT_SWITCH_TYPE3;

  0119c	c7 05 d0 04 00
	00 34 01 00 00	 mov	 DWORD PTR ?enumSLOT@@3UStrEnumSLOT@@A+1232, 308 ; 00000134H

; 672  : 	enumSLOT.SWITCH_TYPE4 = SLOT_SWITCH_TYPE4;

  011a6	c7 05 d4 04 00
	00 35 01 00 00	 mov	 DWORD PTR ?enumSLOT@@3UStrEnumSLOT@@A+1236, 309 ; 00000135H

; 673  : 	enumSLOT.SWITCH_TYPE5 = SLOT_SWITCH_TYPE5;

  011b0	c7 05 d8 04 00
	00 36 01 00 00	 mov	 DWORD PTR ?enumSLOT@@3UStrEnumSLOT@@A+1240, 310 ; 00000136H

; 674  : 	enumSLOT.SWITCH_TYPE6 = SLOT_SWITCH_TYPE6;

  011ba	c7 05 dc 04 00
	00 37 01 00 00	 mov	 DWORD PTR ?enumSLOT@@3UStrEnumSLOT@@A+1244, 311 ; 00000137H

; 675  : 	enumSLOT.SWITCH_TYPE7 = SLOT_SWITCH_TYPE7;

  011c4	c7 05 e0 04 00
	00 38 01 00 00	 mov	 DWORD PTR ?enumSLOT@@3UStrEnumSLOT@@A+1248, 312 ; 00000138H

; 676  : 	enumSLOT.SWITCH_TYPE8 = SLOT_SWITCH_TYPE8;

  011ce	c7 05 e4 04 00
	00 39 01 00 00	 mov	 DWORD PTR ?enumSLOT@@3UStrEnumSLOT@@A+1252, 313 ; 00000139H

; 677  : 	enumSLOT.UNDERWATER_SWITCH1 = SLOT_UNDERWATER_SWITCH1;

  011d8	c7 05 e8 04 00
	00 3a 01 00 00	 mov	 DWORD PTR ?enumSLOT@@3UStrEnumSLOT@@A+1256, 314 ; 0000013aH

; 678  : 	enumSLOT.UNDERWATER_SWITCH2 = SLOT_UNDERWATER_SWITCH2;

  011e2	c7 05 ec 04 00
	00 3b 01 00 00	 mov	 DWORD PTR ?enumSLOT@@3UStrEnumSLOT@@A+1260, 315 ; 0000013bH

; 679  : 	enumSLOT.TURN_SWITCH = SLOT_TURN_SWITCH;

  011ec	c7 05 f0 04 00
	00 3c 01 00 00	 mov	 DWORD PTR ?enumSLOT@@3UStrEnumSLOT@@A+1264, 316 ; 0000013cH

; 680  : 	enumSLOT.COG_SWITCH = SLOT_COG_SWITCH;

  011f6	c7 05 f4 04 00
	00 3d 01 00 00	 mov	 DWORD PTR ?enumSLOT@@3UStrEnumSLOT@@A+1268, 317 ; 0000013dH

; 681  : 	enumSLOT.LEVER_SWITCH = SLOT_LEVER_SWITCH;

  01200	c7 05 f8 04 00
	00 3e 01 00 00	 mov	 DWORD PTR ?enumSLOT@@3UStrEnumSLOT@@A+1272, 318 ; 0000013eH

; 682  : 	enumSLOT.JUMP_SWITCH = SLOT_JUMP_SWITCH;

  0120a	c7 05 fc 04 00
	00 3f 01 00 00	 mov	 DWORD PTR ?enumSLOT@@3UStrEnumSLOT@@A+1276, 319 ; 0000013fH

; 683  : 	enumSLOT.CROWBAR_SWITCH = SLOT_CROWBAR_SWITCH;

  01214	c7 05 00 05 00
	00 40 01 00 00	 mov	 DWORD PTR ?enumSLOT@@3UStrEnumSLOT@@A+1280, 320 ; 00000140H

; 684  : 	enumSLOT.PULLEY = SLOT_PULLEY;

  0121e	c7 05 04 05 00
	00 41 01 00 00	 mov	 DWORD PTR ?enumSLOT@@3UStrEnumSLOT@@A+1284, 321 ; 00000141H

; 685  : 	enumSLOT.DOOR_TYPE1 = SLOT_DOOR_TYPE1;

  01228	c7 05 08 05 00
	00 42 01 00 00	 mov	 DWORD PTR ?enumSLOT@@3UStrEnumSLOT@@A+1288, 322 ; 00000142H

; 686  : 	enumSLOT.DOOR_TYPE2 = SLOT_DOOR_TYPE2;

  01232	c7 05 0c 05 00
	00 43 01 00 00	 mov	 DWORD PTR ?enumSLOT@@3UStrEnumSLOT@@A+1292, 323 ; 00000143H

; 687  : 	enumSLOT.DOOR_TYPE3 = SLOT_DOOR_TYPE3;

  0123c	c7 05 10 05 00
	00 44 01 00 00	 mov	 DWORD PTR ?enumSLOT@@3UStrEnumSLOT@@A+1296, 324 ; 00000144H

; 688  : 	enumSLOT.DOOR_TYPE4 = SLOT_DOOR_TYPE4;

  01246	c7 05 14 05 00
	00 45 01 00 00	 mov	 DWORD PTR ?enumSLOT@@3UStrEnumSLOT@@A+1300, 325 ; 00000145H

; 689  : 	enumSLOT.DOOR_TYPE5 = SLOT_DOOR_TYPE5;

  01250	c7 05 18 05 00
	00 46 01 00 00	 mov	 DWORD PTR ?enumSLOT@@3UStrEnumSLOT@@A+1304, 326 ; 00000146H

; 690  : 	enumSLOT.DOOR_TYPE6 = SLOT_DOOR_TYPE6;

  0125a	c7 05 1c 05 00
	00 47 01 00 00	 mov	 DWORD PTR ?enumSLOT@@3UStrEnumSLOT@@A+1308, 327 ; 00000147H

; 691  : 	enumSLOT.DOOR_TYPE7 = SLOT_DOOR_TYPE7;

  01264	c7 05 20 05 00
	00 48 01 00 00	 mov	 DWORD PTR ?enumSLOT@@3UStrEnumSLOT@@A+1312, 328 ; 00000148H

; 692  : 	enumSLOT.DOOR_TYPE8 = SLOT_DOOR_TYPE8;

  0126e	c7 05 24 05 00
	00 49 01 00 00	 mov	 DWORD PTR ?enumSLOT@@3UStrEnumSLOT@@A+1316, 329 ; 00000149H

; 693  : 	enumSLOT.PUSHPULL_DOOR1 = SLOT_PUSHPULL_DOOR1;

  01278	c7 05 28 05 00
	00 4a 01 00 00	 mov	 DWORD PTR ?enumSLOT@@3UStrEnumSLOT@@A+1320, 330 ; 0000014aH

; 694  : 	enumSLOT.PUSHPULL_DOOR2 = SLOT_PUSHPULL_DOOR2;

  01282	c7 05 2c 05 00
	00 4b 01 00 00	 mov	 DWORD PTR ?enumSLOT@@3UStrEnumSLOT@@A+1324, 331 ; 0000014bH

; 695  : 	enumSLOT.KICK_DOOR1 = SLOT_KICK_DOOR1;

  0128c	c7 05 30 05 00
	00 4c 01 00 00	 mov	 DWORD PTR ?enumSLOT@@3UStrEnumSLOT@@A+1328, 332 ; 0000014cH

; 696  : 	enumSLOT.KICK_DOOR2 = SLOT_KICK_DOOR2;

  01296	c7 05 34 05 00
	00 4d 01 00 00	 mov	 DWORD PTR ?enumSLOT@@3UStrEnumSLOT@@A+1332, 333 ; 0000014dH

; 697  : 	enumSLOT.UNDERWATER_DOOR = SLOT_UNDERWATER_DOOR;

  012a0	c7 05 38 05 00
	00 4e 01 00 00	 mov	 DWORD PTR ?enumSLOT@@3UStrEnumSLOT@@A+1336, 334 ; 0000014eH

; 698  : 	enumSLOT.DOUBLE_DOORS = SLOT_DOUBLE_DOORS;

  012aa	c7 05 3c 05 00
	00 4f 01 00 00	 mov	 DWORD PTR ?enumSLOT@@3UStrEnumSLOT@@A+1340, 335 ; 0000014fH

; 699  : 	enumSLOT.BRIDGE_FLAT = SLOT_BRIDGE_FLAT;

  012b4	c7 05 40 05 00
	00 50 01 00 00	 mov	 DWORD PTR ?enumSLOT@@3UStrEnumSLOT@@A+1344, 336 ; 00000150H

; 700  : 	enumSLOT.BRIDGE_TILT1 = SLOT_BRIDGE_TILT1;

  012be	c7 05 44 05 00
	00 51 01 00 00	 mov	 DWORD PTR ?enumSLOT@@3UStrEnumSLOT@@A+1348, 337 ; 00000151H

; 701  : 	enumSLOT.BRIDGE_TILT2 = SLOT_BRIDGE_TILT2;

  012c8	c7 05 48 05 00
	00 52 01 00 00	 mov	 DWORD PTR ?enumSLOT@@3UStrEnumSLOT@@A+1352, 338 ; 00000152H

; 702  : 	enumSLOT.SARCOPHAGUS = SLOT_SARCOPHAGUS;

  012d2	c7 05 4c 05 00
	00 53 01 00 00	 mov	 DWORD PTR ?enumSLOT@@3UStrEnumSLOT@@A+1356, 339 ; 00000153H

; 703  : 	enumSLOT.SEQUENCE_DOOR1 = SLOT_SEQUENCE_DOOR1;

  012dc	c7 05 50 05 00
	00 54 01 00 00	 mov	 DWORD PTR ?enumSLOT@@3UStrEnumSLOT@@A+1360, 340 ; 00000154H

; 704  : 	enumSLOT.SEQUENCE_SWITCH1 = SLOT_SEQUENCE_SWITCH1;

  012e6	c7 05 54 05 00
	00 55 01 00 00	 mov	 DWORD PTR ?enumSLOT@@3UStrEnumSLOT@@A+1364, 341 ; 00000155H

; 705  : 	enumSLOT.SEQUENCE_SWITCH2 = SLOT_SEQUENCE_SWITCH2;

  012f0	c7 05 58 05 00
	00 56 01 00 00	 mov	 DWORD PTR ?enumSLOT@@3UStrEnumSLOT@@A+1368, 342 ; 00000156H

; 706  : 	enumSLOT.SEQUENCE_SWITCH3 = SLOT_SEQUENCE_SWITCH3;

  012fa	c7 05 5c 05 00
	00 57 01 00 00	 mov	 DWORD PTR ?enumSLOT@@3UStrEnumSLOT@@A+1372, 343 ; 00000157H

; 707  : 	enumSLOT.SARCOPHAGUS_CUT = SLOT_SARCOPHAGUS_CUT;

  01304	c7 05 60 05 00
	00 58 01 00 00	 mov	 DWORD PTR ?enumSLOT@@3UStrEnumSLOT@@A+1376, 344 ; 00000158H

; 708  : 	enumSLOT.HORUS_STATUE = SLOT_HORUS_STATUE;

  0130e	c7 05 64 05 00
	00 59 01 00 00	 mov	 DWORD PTR ?enumSLOT@@3UStrEnumSLOT@@A+1380, 345 ; 00000159H

; 709  : 	enumSLOT.GOD_HEAD = SLOT_GOD_HEAD;

  01318	c7 05 68 05 00
	00 5a 01 00 00	 mov	 DWORD PTR ?enumSLOT@@3UStrEnumSLOT@@A+1384, 346 ; 0000015aH

; 710  : 	enumSLOT.SETH_DOOR = SLOT_SETH_DOOR;

  01322	c7 05 6c 05 00
	00 5b 01 00 00	 mov	 DWORD PTR ?enumSLOT@@3UStrEnumSLOT@@A+1388, 347 ; 0000015bH

; 711  : 	enumSLOT.STATUE_PLINTH = SLOT_STATUE_PLINTH;

  0132c	c7 05 70 05 00
	00 5c 01 00 00	 mov	 DWORD PTR ?enumSLOT@@3UStrEnumSLOT@@A+1392, 348 ; 0000015cH

; 712  : 	enumSLOT.PISTOLS_ITEM = SLOT_PISTOLS_ITEM;

  01336	c7 05 74 05 00
	00 5d 01 00 00	 mov	 DWORD PTR ?enumSLOT@@3UStrEnumSLOT@@A+1396, 349 ; 0000015dH

; 713  : 	enumSLOT.PISTOLS_AMMO_ITEM = SLOT_PISTOLS_AMMO_ITEM;

  01340	c7 05 78 05 00
	00 5e 01 00 00	 mov	 DWORD PTR ?enumSLOT@@3UStrEnumSLOT@@A+1400, 350 ; 0000015eH

; 714  : 	enumSLOT.UZI_ITEM = SLOT_UZI_ITEM;

  0134a	c7 05 7c 05 00
	00 5f 01 00 00	 mov	 DWORD PTR ?enumSLOT@@3UStrEnumSLOT@@A+1404, 351 ; 0000015fH

; 715  : 	enumSLOT.UZI_AMMO_ITEM = SLOT_UZI_AMMO_ITEM;

  01354	c7 05 80 05 00
	00 60 01 00 00	 mov	 DWORD PTR ?enumSLOT@@3UStrEnumSLOT@@A+1408, 352 ; 00000160H

; 716  : 	enumSLOT.SHOTGUN_ITEM = SLOT_SHOTGUN_ITEM;

  0135e	c7 05 84 05 00
	00 61 01 00 00	 mov	 DWORD PTR ?enumSLOT@@3UStrEnumSLOT@@A+1412, 353 ; 00000161H

; 717  : 	enumSLOT.SHOTGUN_AMMO1_ITEM = SLOT_SHOTGUN_AMMO1_ITEM;

  01368	c7 05 88 05 00
	00 62 01 00 00	 mov	 DWORD PTR ?enumSLOT@@3UStrEnumSLOT@@A+1416, 354 ; 00000162H

; 718  : 	enumSLOT.SHOTGUN_AMMO2_ITEM = SLOT_SHOTGUN_AMMO2_ITEM;

  01372	c7 05 8c 05 00
	00 63 01 00 00	 mov	 DWORD PTR ?enumSLOT@@3UStrEnumSLOT@@A+1420, 355 ; 00000163H

; 719  : 	enumSLOT.CROSSBOW_ITEM = SLOT_CROSSBOW_ITEM;

  0137c	c7 05 90 05 00
	00 64 01 00 00	 mov	 DWORD PTR ?enumSLOT@@3UStrEnumSLOT@@A+1424, 356 ; 00000164H

; 720  : 	enumSLOT.CROSSBOW_AMMO1_ITEM = SLOT_CROSSBOW_AMMO1_ITEM;

  01386	c7 05 94 05 00
	00 65 01 00 00	 mov	 DWORD PTR ?enumSLOT@@3UStrEnumSLOT@@A+1428, 357 ; 00000165H

; 721  : 	enumSLOT.CROSSBOW_AMMO2_ITEM = SLOT_CROSSBOW_AMMO2_ITEM;

  01390	c7 05 98 05 00
	00 66 01 00 00	 mov	 DWORD PTR ?enumSLOT@@3UStrEnumSLOT@@A+1432, 358 ; 00000166H

; 722  : 	enumSLOT.CROSSBOW_AMMO3_ITEM = SLOT_CROSSBOW_AMMO3_ITEM;

  0139a	c7 05 9c 05 00
	00 67 01 00 00	 mov	 DWORD PTR ?enumSLOT@@3UStrEnumSLOT@@A+1436, 359 ; 00000167H

; 723  : 	enumSLOT.CROSSBOW_BOLT = SLOT_CROSSBOW_BOLT;

  013a4	c7 05 a0 05 00
	00 68 01 00 00	 mov	 DWORD PTR ?enumSLOT@@3UStrEnumSLOT@@A+1440, 360 ; 00000168H

; 724  : 	enumSLOT.GRENADE_GUN_ITEM = SLOT_GRENADE_GUN_ITEM;

  013ae	c7 05 a4 05 00
	00 69 01 00 00	 mov	 DWORD PTR ?enumSLOT@@3UStrEnumSLOT@@A+1444, 361 ; 00000169H

; 725  : 	enumSLOT.GRENADE_GUN_AMMO1_ITEM = SLOT_GRENADE_GUN_AMMO1_ITEM;

  013b8	c7 05 a8 05 00
	00 6a 01 00 00	 mov	 DWORD PTR ?enumSLOT@@3UStrEnumSLOT@@A+1448, 362 ; 0000016aH

; 726  : 	enumSLOT.GRENADE_GUN_AMMO2_ITEM = SLOT_GRENADE_GUN_AMMO2_ITEM;

  013c2	c7 05 ac 05 00
	00 6b 01 00 00	 mov	 DWORD PTR ?enumSLOT@@3UStrEnumSLOT@@A+1452, 363 ; 0000016bH

; 727  : 	enumSLOT.GRENADE_GUN_AMMO3_ITEM = SLOT_GRENADE_GUN_AMMO3_ITEM;

  013cc	c7 05 b0 05 00
	00 6c 01 00 00	 mov	 DWORD PTR ?enumSLOT@@3UStrEnumSLOT@@A+1456, 364 ; 0000016cH

; 728  : 	enumSLOT.GRENADE = SLOT_GRENADE;

  013d6	c7 05 b4 05 00
	00 6d 01 00 00	 mov	 DWORD PTR ?enumSLOT@@3UStrEnumSLOT@@A+1460, 365 ; 0000016dH

; 729  : 	enumSLOT.SIXSHOOTER_ITEM = SLOT_SIXSHOOTER_ITEM;

  013e0	c7 05 b8 05 00
	00 6e 01 00 00	 mov	 DWORD PTR ?enumSLOT@@3UStrEnumSLOT@@A+1464, 366 ; 0000016eH

; 730  : 	enumSLOT.SIXSHOOTER_AMMO_ITEM = SLOT_SIXSHOOTER_AMMO_ITEM;

  013ea	c7 05 bc 05 00
	00 6f 01 00 00	 mov	 DWORD PTR ?enumSLOT@@3UStrEnumSLOT@@A+1468, 367 ; 0000016fH

; 731  : 	enumSLOT.BIGMEDI_ITEM = SLOT_BIGMEDI_ITEM;

  013f4	c7 05 c0 05 00
	00 70 01 00 00	 mov	 DWORD PTR ?enumSLOT@@3UStrEnumSLOT@@A+1472, 368 ; 00000170H

; 732  : 	enumSLOT.SMALLMEDI_ITEM = SLOT_SMALLMEDI_ITEM;

  013fe	c7 05 c4 05 00
	00 71 01 00 00	 mov	 DWORD PTR ?enumSLOT@@3UStrEnumSLOT@@A+1476, 369 ; 00000171H

; 733  : 	enumSLOT.LASERSIGHT_ITEM = SLOT_LASERSIGHT_ITEM;

  01408	c7 05 c8 05 00
	00 72 01 00 00	 mov	 DWORD PTR ?enumSLOT@@3UStrEnumSLOT@@A+1480, 370 ; 00000172H

; 734  : 	enumSLOT.BINOCULARS_ITEM = SLOT_BINOCULARS_ITEM;

  01412	c7 05 cc 05 00
	00 73 01 00 00	 mov	 DWORD PTR ?enumSLOT@@3UStrEnumSLOT@@A+1484, 371 ; 00000173H

; 735  : 	enumSLOT.FLARE_ITEM = SLOT_FLARE_ITEM;

  0141c	c7 05 d0 05 00
	00 74 01 00 00	 mov	 DWORD PTR ?enumSLOT@@3UStrEnumSLOT@@A+1488, 372 ; 00000174H

; 736  : 	enumSLOT.FLARE_INV_ITEM = SLOT_FLARE_INV_ITEM;

  01426	c7 05 d4 05 00
	00 75 01 00 00	 mov	 DWORD PTR ?enumSLOT@@3UStrEnumSLOT@@A+1492, 373 ; 00000175H

; 737  : 	enumSLOT.DIARY_ITEM = SLOT_DIARY_ITEM;

  01430	c7 05 d8 05 00
	00 76 01 00 00	 mov	 DWORD PTR ?enumSLOT@@3UStrEnumSLOT@@A+1496, 374 ; 00000176H

; 738  : 	enumSLOT.COMPASS_ITEM = SLOT_COMPASS_ITEM;

  0143a	c7 05 dc 05 00
	00 77 01 00 00	 mov	 DWORD PTR ?enumSLOT@@3UStrEnumSLOT@@A+1500, 375 ; 00000177H

; 739  : 	enumSLOT.MEMCARD_LOAD_INV_ITEM = SLOT_MEMCARD_LOAD_INV_ITEM;

  01444	c7 05 e0 05 00
	00 78 01 00 00	 mov	 DWORD PTR ?enumSLOT@@3UStrEnumSLOT@@A+1504, 376 ; 00000178H

; 740  : 	enumSLOT.MEMCARD_SAVE_INV_ITEM = SLOT_MEMCARD_SAVE_INV_ITEM;

  0144e	c7 05 e4 05 00
	00 79 01 00 00	 mov	 DWORD PTR ?enumSLOT@@3UStrEnumSLOT@@A+1508, 377 ; 00000179H

; 741  : 	enumSLOT.PC_LOAD_INV_ITEM = SLOT_PC_LOAD_INV_ITEM;

  01458	c7 05 e8 05 00
	00 7a 01 00 00	 mov	 DWORD PTR ?enumSLOT@@3UStrEnumSLOT@@A+1512, 378 ; 0000017aH

; 742  : 	enumSLOT.PC_SAVE_INV_ITEM = SLOT_PC_SAVE_INV_ITEM;

  01462	c7 05 ec 05 00
	00 7b 01 00 00	 mov	 DWORD PTR ?enumSLOT@@3UStrEnumSLOT@@A+1516, 379 ; 0000017bH

; 743  : 	enumSLOT.SMOKE_EMITTER_WHITE = SLOT_SMOKE_EMITTER_WHITE;

  0146c	c7 05 f0 05 00
	00 7c 01 00 00	 mov	 DWORD PTR ?enumSLOT@@3UStrEnumSLOT@@A+1520, 380 ; 0000017cH

; 744  : 	enumSLOT.SMOKE_EMITTER_BLACK = SLOT_SMOKE_EMITTER_BLACK;

  01476	c7 05 f4 05 00
	00 7d 01 00 00	 mov	 DWORD PTR ?enumSLOT@@3UStrEnumSLOT@@A+1524, 381 ; 0000017dH

; 745  : 	enumSLOT.STEAM_EMITTER = SLOT_STEAM_EMITTER;

  01480	c7 05 f8 05 00
	00 7e 01 00 00	 mov	 DWORD PTR ?enumSLOT@@3UStrEnumSLOT@@A+1528, 382 ; 0000017eH

; 746  : 	enumSLOT.EARTHQUAKE = SLOT_EARTHQUAKE;

  0148a	c7 05 fc 05 00
	00 7f 01 00 00	 mov	 DWORD PTR ?enumSLOT@@3UStrEnumSLOT@@A+1532, 383 ; 0000017fH

; 747  : 	enumSLOT.BUBBLES = SLOT_BUBBLES;

  01494	c7 05 00 06 00
	00 80 01 00 00	 mov	 DWORD PTR ?enumSLOT@@3UStrEnumSLOT@@A+1536, 384 ; 00000180H

; 748  : 	enumSLOT.WATERFALLMIST = SLOT_WATERFALLMIST;

  0149e	c7 05 04 06 00
	00 81 01 00 00	 mov	 DWORD PTR ?enumSLOT@@3UStrEnumSLOT@@A+1540, 385 ; 00000181H

; 749  : 	enumSLOT.GUNSHELL = SLOT_GUNSHELL;

  014a8	c7 05 08 06 00
	00 82 01 00 00	 mov	 DWORD PTR ?enumSLOT@@3UStrEnumSLOT@@A+1544, 386 ; 00000182H

; 750  : 	enumSLOT.SHOTGUNSHELL = SLOT_SHOTGUNSHELL;

  014b2	c7 05 0c 06 00
	00 83 01 00 00	 mov	 DWORD PTR ?enumSLOT@@3UStrEnumSLOT@@A+1548, 387 ; 00000183H

; 751  : 	enumSLOT.GUN_FLASH = SLOT_GUN_FLASH;

  014bc	c7 05 10 06 00
	00 84 01 00 00	 mov	 DWORD PTR ?enumSLOT@@3UStrEnumSLOT@@A+1552, 388 ; 00000184H

; 752  : 	enumSLOT.BUTTERFLY = SLOT_BUTTERFLY;

  014c6	c7 05 14 06 00
	00 85 01 00 00	 mov	 DWORD PTR ?enumSLOT@@3UStrEnumSLOT@@A+1556, 389 ; 00000185H

; 753  : 	enumSLOT.SPRINKLER = SLOT_SPRINKLER;

  014d0	c7 05 18 06 00
	00 86 01 00 00	 mov	 DWORD PTR ?enumSLOT@@3UStrEnumSLOT@@A+1560, 390 ; 00000186H

; 754  : 	enumSLOT.RED_LIGHT = SLOT_RED_LIGHT;

  014da	c7 05 1c 06 00
	00 87 01 00 00	 mov	 DWORD PTR ?enumSLOT@@3UStrEnumSLOT@@A+1564, 391 ; 00000187H

; 755  : 	enumSLOT.GREEN_LIGHT = SLOT_GREEN_LIGHT;

  014e4	c7 05 20 06 00
	00 88 01 00 00	 mov	 DWORD PTR ?enumSLOT@@3UStrEnumSLOT@@A+1568, 392 ; 00000188H

; 756  : 	enumSLOT.BLUE_LIGHT = SLOT_BLUE_LIGHT;

  014ee	c7 05 24 06 00
	00 89 01 00 00	 mov	 DWORD PTR ?enumSLOT@@3UStrEnumSLOT@@A+1572, 393 ; 00000189H

; 757  : 	enumSLOT.AMBER_LIGHT = SLOT_AMBER_LIGHT;

  014f8	c7 05 28 06 00
	00 8a 01 00 00	 mov	 DWORD PTR ?enumSLOT@@3UStrEnumSLOT@@A+1576, 394 ; 0000018aH

; 758  : 	enumSLOT.WHITE_LIGHT = SLOT_WHITE_LIGHT;

  01502	c7 05 2c 06 00
	00 8b 01 00 00	 mov	 DWORD PTR ?enumSLOT@@3UStrEnumSLOT@@A+1580, 395 ; 0000018bH

; 759  : 	enumSLOT.BLINKING_LIGHT = SLOT_BLINKING_LIGHT;

  0150c	c7 05 30 06 00
	00 8c 01 00 00	 mov	 DWORD PTR ?enumSLOT@@3UStrEnumSLOT@@A+1584, 396 ; 0000018cH

; 760  : 	enumSLOT.LENS_FLARE = SLOT_LENS_FLARE;

  01516	c7 05 34 06 00
	00 8d 01 00 00	 mov	 DWORD PTR ?enumSLOT@@3UStrEnumSLOT@@A+1588, 397 ; 0000018dH

; 761  : 	enumSLOT.AI_GUARD = SLOT_AI_GUARD;

  01520	c7 05 38 06 00
	00 8e 01 00 00	 mov	 DWORD PTR ?enumSLOT@@3UStrEnumSLOT@@A+1592, 398 ; 0000018eH

; 762  : 	enumSLOT.AI_AMBUSH = SLOT_AI_AMBUSH;

  0152a	c7 05 3c 06 00
	00 8f 01 00 00	 mov	 DWORD PTR ?enumSLOT@@3UStrEnumSLOT@@A+1596, 399 ; 0000018fH

; 763  : 	enumSLOT.AI_PATROL1 = SLOT_AI_PATROL1;

  01534	c7 05 40 06 00
	00 90 01 00 00	 mov	 DWORD PTR ?enumSLOT@@3UStrEnumSLOT@@A+1600, 400 ; 00000190H

; 764  : 	enumSLOT.AI_MODIFY = SLOT_AI_MODIFY;

  0153e	c7 05 44 06 00
	00 91 01 00 00	 mov	 DWORD PTR ?enumSLOT@@3UStrEnumSLOT@@A+1604, 401 ; 00000191H

; 765  : 	enumSLOT.AI_FOLLOW = SLOT_AI_FOLLOW;

  01548	c7 05 48 06 00
	00 92 01 00 00	 mov	 DWORD PTR ?enumSLOT@@3UStrEnumSLOT@@A+1608, 402 ; 00000192H

; 766  : 	enumSLOT.AI_PATROL2 = SLOT_AI_PATROL2;

  01552	c7 05 4c 06 00
	00 93 01 00 00	 mov	 DWORD PTR ?enumSLOT@@3UStrEnumSLOT@@A+1612, 403 ; 00000193H

; 767  : 	enumSLOT.AI_X1 = SLOT_AI_X1;

  0155c	c7 05 50 06 00
	00 94 01 00 00	 mov	 DWORD PTR ?enumSLOT@@3UStrEnumSLOT@@A+1616, 404 ; 00000194H

; 768  : 	enumSLOT.AI_X2 = SLOT_AI_X2;

  01566	c7 05 54 06 00
	00 95 01 00 00	 mov	 DWORD PTR ?enumSLOT@@3UStrEnumSLOT@@A+1620, 405 ; 00000195H

; 769  : 	enumSLOT.LARA_START_POS = SLOT_LARA_START_POS;

  01570	c7 05 58 06 00
	00 96 01 00 00	 mov	 DWORD PTR ?enumSLOT@@3UStrEnumSLOT@@A+1624, 406 ; 00000196H

; 770  : 	enumSLOT.KILL_ALL_TRIGGERS = SLOT_KILL_ALL_TRIGGERS;

  0157a	c7 05 5c 06 00
	00 97 01 00 00	 mov	 DWORD PTR ?enumSLOT@@3UStrEnumSLOT@@A+1628, 407 ; 00000197H

; 771  : 	enumSLOT.TRIGGER_TRIGGERER = SLOT_TRIGGER_TRIGGERER;

  01584	c7 05 60 06 00
	00 98 01 00 00	 mov	 DWORD PTR ?enumSLOT@@3UStrEnumSLOT@@A+1632, 408 ; 00000198H

; 772  : 	enumSLOT.SMASH_OBJECT1 = SLOT_SMASH_OBJECT1;

  0158e	c7 05 64 06 00
	00 99 01 00 00	 mov	 DWORD PTR ?enumSLOT@@3UStrEnumSLOT@@A+1636, 409 ; 00000199H

; 773  : 	enumSLOT.SMASH_OBJECT2 = SLOT_SMASH_OBJECT2;

  01598	c7 05 68 06 00
	00 9a 01 00 00	 mov	 DWORD PTR ?enumSLOT@@3UStrEnumSLOT@@A+1640, 410 ; 0000019aH

; 774  : 	enumSLOT.SMASH_OBJECT3 = SLOT_SMASH_OBJECT3;

  015a2	c7 05 6c 06 00
	00 9b 01 00 00	 mov	 DWORD PTR ?enumSLOT@@3UStrEnumSLOT@@A+1644, 411 ; 0000019bH

; 775  : 	enumSLOT.SMASH_OBJECT4 = SLOT_SMASH_OBJECT4;

  015ac	c7 05 70 06 00
	00 9c 01 00 00	 mov	 DWORD PTR ?enumSLOT@@3UStrEnumSLOT@@A+1648, 412 ; 0000019cH

; 776  : 	enumSLOT.SMASH_OBJECT5 = SLOT_SMASH_OBJECT5;

  015b6	c7 05 74 06 00
	00 9d 01 00 00	 mov	 DWORD PTR ?enumSLOT@@3UStrEnumSLOT@@A+1652, 413 ; 0000019dH

; 777  : 	enumSLOT.SMASH_OBJECT6 = SLOT_SMASH_OBJECT6;

  015c0	c7 05 78 06 00
	00 9e 01 00 00	 mov	 DWORD PTR ?enumSLOT@@3UStrEnumSLOT@@A+1656, 414 ; 0000019eH

; 778  : 	enumSLOT.SMASH_OBJECT7 = SLOT_SMASH_OBJECT7;

  015ca	c7 05 7c 06 00
	00 9f 01 00 00	 mov	 DWORD PTR ?enumSLOT@@3UStrEnumSLOT@@A+1660, 415 ; 0000019fH

; 779  : 	enumSLOT.SMASH_OBJECT8 = SLOT_SMASH_OBJECT8;

  015d4	c7 05 80 06 00
	00 a0 01 00 00	 mov	 DWORD PTR ?enumSLOT@@3UStrEnumSLOT@@A+1664, 416 ; 000001a0H

; 780  : 	enumSLOT.MESHSWAP1 = SLOT_MESHSWAP1;

  015de	c7 05 84 06 00
	00 a1 01 00 00	 mov	 DWORD PTR ?enumSLOT@@3UStrEnumSLOT@@A+1668, 417 ; 000001a1H

; 781  : 	enumSLOT.MESHSWAP2 = SLOT_MESHSWAP2;

  015e8	c7 05 88 06 00
	00 a2 01 00 00	 mov	 DWORD PTR ?enumSLOT@@3UStrEnumSLOT@@A+1672, 418 ; 000001a2H

; 782  : 	enumSLOT.MESHSWAP3 = SLOT_MESHSWAP3;

  015f2	c7 05 8c 06 00
	00 a3 01 00 00	 mov	 DWORD PTR ?enumSLOT@@3UStrEnumSLOT@@A+1676, 419 ; 000001a3H

; 783  : 	enumSLOT.DEATH_SLIDE = SLOT_DEATH_SLIDE;

  015fc	c7 05 90 06 00
	00 a4 01 00 00	 mov	 DWORD PTR ?enumSLOT@@3UStrEnumSLOT@@A+1680, 420 ; 000001a4H

; 784  : 	enumSLOT.BODY_PART = SLOT_BODY_PART;

  01606	c7 05 94 06 00
	00 a5 01 00 00	 mov	 DWORD PTR ?enumSLOT@@3UStrEnumSLOT@@A+1684, 421 ; 000001a5H

; 785  : 	enumSLOT.CAMERA_TARGET = SLOT_CAMERA_TARGET;

  01610	c7 05 98 06 00
	00 a6 01 00 00	 mov	 DWORD PTR ?enumSLOT@@3UStrEnumSLOT@@A+1688, 422 ; 000001a6H

; 786  : 	enumSLOT.WATERFALL1 = SLOT_WATERFALL1;

  0161a	c7 05 9c 06 00
	00 a7 01 00 00	 mov	 DWORD PTR ?enumSLOT@@3UStrEnumSLOT@@A+1692, 423 ; 000001a7H

; 787  : 	enumSLOT.WATERFALL2 = SLOT_WATERFALL2;

  01624	c7 05 a0 06 00
	00 a8 01 00 00	 mov	 DWORD PTR ?enumSLOT@@3UStrEnumSLOT@@A+1696, 424 ; 000001a8H

; 788  : 	enumSLOT.WATERFALL3 = SLOT_WATERFALL3;

  0162e	c7 05 a4 06 00
	00 a9 01 00 00	 mov	 DWORD PTR ?enumSLOT@@3UStrEnumSLOT@@A+1700, 425 ; 000001a9H

; 789  : 	enumSLOT.PLANET_EFFECT = SLOT_PLANET_EFFECT;

  01638	c7 05 a8 06 00
	00 aa 01 00 00	 mov	 DWORD PTR ?enumSLOT@@3UStrEnumSLOT@@A+1704, 426 ; 000001aaH

; 790  : 	enumSLOT.ANIMATING1 = SLOT_ANIMATING1;

  01642	c7 05 ac 06 00
	00 ab 01 00 00	 mov	 DWORD PTR ?enumSLOT@@3UStrEnumSLOT@@A+1708, 427 ; 000001abH

; 791  : 	enumSLOT.ANIMATING1_MIP = SLOT_ANIMATING1_MIP;

  0164c	c7 05 b0 06 00
	00 ac 01 00 00	 mov	 DWORD PTR ?enumSLOT@@3UStrEnumSLOT@@A+1712, 428 ; 000001acH

; 792  : 	enumSLOT.ANIMATING2 = SLOT_ANIMATING2;

  01656	c7 05 b4 06 00
	00 ad 01 00 00	 mov	 DWORD PTR ?enumSLOT@@3UStrEnumSLOT@@A+1716, 429 ; 000001adH

; 793  : 	enumSLOT.ANIMATING2_MIP = SLOT_ANIMATING2_MIP;

  01660	c7 05 b8 06 00
	00 ae 01 00 00	 mov	 DWORD PTR ?enumSLOT@@3UStrEnumSLOT@@A+1720, 430 ; 000001aeH

; 794  : 	enumSLOT.ANIMATING3 = SLOT_ANIMATING3;

  0166a	c7 05 bc 06 00
	00 af 01 00 00	 mov	 DWORD PTR ?enumSLOT@@3UStrEnumSLOT@@A+1724, 431 ; 000001afH

; 795  : 	enumSLOT.ANIMATING3_MIP = SLOT_ANIMATING3_MIP;

  01674	c7 05 c0 06 00
	00 b0 01 00 00	 mov	 DWORD PTR ?enumSLOT@@3UStrEnumSLOT@@A+1728, 432 ; 000001b0H

; 796  : 	enumSLOT.ANIMATING4 = SLOT_ANIMATING4;

  0167e	c7 05 c4 06 00
	00 b1 01 00 00	 mov	 DWORD PTR ?enumSLOT@@3UStrEnumSLOT@@A+1732, 433 ; 000001b1H

; 797  : 	enumSLOT.ANIMATING4_MIP = SLOT_ANIMATING4_MIP;

  01688	c7 05 c8 06 00
	00 b2 01 00 00	 mov	 DWORD PTR ?enumSLOT@@3UStrEnumSLOT@@A+1736, 434 ; 000001b2H

; 798  : 	enumSLOT.ANIMATING5 = SLOT_ANIMATING5;

  01692	c7 05 cc 06 00
	00 b3 01 00 00	 mov	 DWORD PTR ?enumSLOT@@3UStrEnumSLOT@@A+1740, 435 ; 000001b3H

; 799  : 	enumSLOT.ANIMATING5_MIP = SLOT_ANIMATING5_MIP;

  0169c	c7 05 d0 06 00
	00 b4 01 00 00	 mov	 DWORD PTR ?enumSLOT@@3UStrEnumSLOT@@A+1744, 436 ; 000001b4H

; 800  : 	enumSLOT.ANIMATING6 = SLOT_ANIMATING6;

  016a6	c7 05 d4 06 00
	00 b5 01 00 00	 mov	 DWORD PTR ?enumSLOT@@3UStrEnumSLOT@@A+1748, 437 ; 000001b5H

; 801  : 	enumSLOT.ANIMATING6_MIP = SLOT_ANIMATING6_MIP;

  016b0	c7 05 d8 06 00
	00 b6 01 00 00	 mov	 DWORD PTR ?enumSLOT@@3UStrEnumSLOT@@A+1752, 438 ; 000001b6H

; 802  : 	enumSLOT.ANIMATING7 = SLOT_ANIMATING7;

  016ba	c7 05 dc 06 00
	00 b7 01 00 00	 mov	 DWORD PTR ?enumSLOT@@3UStrEnumSLOT@@A+1756, 439 ; 000001b7H

; 803  : 	enumSLOT.ANIMATING7_MIP = SLOT_ANIMATING7_MIP;

  016c4	c7 05 e0 06 00
	00 b8 01 00 00	 mov	 DWORD PTR ?enumSLOT@@3UStrEnumSLOT@@A+1760, 440 ; 000001b8H

; 804  : 	enumSLOT.ANIMATING8 = SLOT_ANIMATING8;

  016ce	c7 05 e4 06 00
	00 b9 01 00 00	 mov	 DWORD PTR ?enumSLOT@@3UStrEnumSLOT@@A+1764, 441 ; 000001b9H

; 805  : 	enumSLOT.ANIMATING8_MIP = SLOT_ANIMATING8_MIP;

  016d8	c7 05 e8 06 00
	00 ba 01 00 00	 mov	 DWORD PTR ?enumSLOT@@3UStrEnumSLOT@@A+1768, 442 ; 000001baH

; 806  : 	enumSLOT.ANIMATING9 = SLOT_ANIMATING9;

  016e2	c7 05 ec 06 00
	00 bb 01 00 00	 mov	 DWORD PTR ?enumSLOT@@3UStrEnumSLOT@@A+1772, 443 ; 000001bbH

; 807  : 	enumSLOT.ANIMATING9_MIP = SLOT_ANIMATING9_MIP;

  016ec	c7 05 f0 06 00
	00 bc 01 00 00	 mov	 DWORD PTR ?enumSLOT@@3UStrEnumSLOT@@A+1776, 444 ; 000001bcH

; 808  : 	enumSLOT.ANIMATING10 = SLOT_ANIMATING10;

  016f6	c7 05 f4 06 00
	00 bd 01 00 00	 mov	 DWORD PTR ?enumSLOT@@3UStrEnumSLOT@@A+1780, 445 ; 000001bdH

; 809  : 	enumSLOT.ANIMATING10_MIP = SLOT_ANIMATING10_MIP;

  01700	c7 05 f8 06 00
	00 be 01 00 00	 mov	 DWORD PTR ?enumSLOT@@3UStrEnumSLOT@@A+1784, 446 ; 000001beH

; 810  : 	enumSLOT.ANIMATING11 = SLOT_ANIMATING11;

  0170a	c7 05 fc 06 00
	00 bf 01 00 00	 mov	 DWORD PTR ?enumSLOT@@3UStrEnumSLOT@@A+1788, 447 ; 000001bfH

; 811  : 	enumSLOT.ANIMATING11_MIP = SLOT_ANIMATING11_MIP;

  01714	c7 05 00 07 00
	00 c0 01 00 00	 mov	 DWORD PTR ?enumSLOT@@3UStrEnumSLOT@@A+1792, 448 ; 000001c0H

; 812  : 	enumSLOT.ANIMATING12 = SLOT_ANIMATING12;

  0171e	c7 05 04 07 00
	00 c1 01 00 00	 mov	 DWORD PTR ?enumSLOT@@3UStrEnumSLOT@@A+1796, 449 ; 000001c1H

; 813  : 	enumSLOT.ANIMATING12_MIP = SLOT_ANIMATING12_MIP;

  01728	c7 05 08 07 00
	00 c2 01 00 00	 mov	 DWORD PTR ?enumSLOT@@3UStrEnumSLOT@@A+1800, 450 ; 000001c2H

; 814  : 	enumSLOT.ANIMATING13 = SLOT_ANIMATING13;

  01732	c7 05 0c 07 00
	00 c3 01 00 00	 mov	 DWORD PTR ?enumSLOT@@3UStrEnumSLOT@@A+1804, 451 ; 000001c3H

; 815  : 	enumSLOT.ANIMATING13_MIP = SLOT_ANIMATING13_MIP;

  0173c	c7 05 10 07 00
	00 c4 01 00 00	 mov	 DWORD PTR ?enumSLOT@@3UStrEnumSLOT@@A+1808, 452 ; 000001c4H

; 816  : 	enumSLOT.ANIMATING14 = SLOT_ANIMATING14;

  01746	c7 05 14 07 00
	00 c5 01 00 00	 mov	 DWORD PTR ?enumSLOT@@3UStrEnumSLOT@@A+1812, 453 ; 000001c5H

; 817  : 	enumSLOT.ANIMATING14_MIP = SLOT_ANIMATING14_MIP;

  01750	c7 05 18 07 00
	00 c6 01 00 00	 mov	 DWORD PTR ?enumSLOT@@3UStrEnumSLOT@@A+1816, 454 ; 000001c6H

; 818  : 	enumSLOT.ANIMATING15 = SLOT_ANIMATING15;

  0175a	c7 05 1c 07 00
	00 c7 01 00 00	 mov	 DWORD PTR ?enumSLOT@@3UStrEnumSLOT@@A+1820, 455 ; 000001c7H

; 819  : 	enumSLOT.ANIMATING15_MIP = SLOT_ANIMATING15_MIP;

  01764	c7 05 20 07 00
	00 c8 01 00 00	 mov	 DWORD PTR ?enumSLOT@@3UStrEnumSLOT@@A+1824, 456 ; 000001c8H

; 820  : 	enumSLOT.ANIMATING16 = SLOT_ANIMATING16;

  0176e	c7 05 24 07 00
	00 c9 01 00 00	 mov	 DWORD PTR ?enumSLOT@@3UStrEnumSLOT@@A+1828, 457 ; 000001c9H

; 821  : 	enumSLOT.ANIMATING16_MIP = SLOT_ANIMATING16_MIP;

  01778	c7 05 28 07 00
	00 ca 01 00 00	 mov	 DWORD PTR ?enumSLOT@@3UStrEnumSLOT@@A+1832, 458 ; 000001caH

; 822  : 	enumSLOT.HORIZON = SLOT_HORIZON;

  01782	c7 05 2c 07 00
	00 cb 01 00 00	 mov	 DWORD PTR ?enumSLOT@@3UStrEnumSLOT@@A+1836, 459 ; 000001cbH

; 823  : 	enumSLOT.SKY_GRAPHICS = SLOT_SKY_GRAPHICS;

  0178c	c7 05 30 07 00
	00 cc 01 00 00	 mov	 DWORD PTR ?enumSLOT@@3UStrEnumSLOT@@A+1840, 460 ; 000001ccH

; 824  : 	enumSLOT.BINOCULAR_GRAPHICS = SLOT_BINOCULAR_GRAPHICS;

  01796	c7 05 34 07 00
	00 cd 01 00 00	 mov	 DWORD PTR ?enumSLOT@@3UStrEnumSLOT@@A+1844, 461 ; 000001cdH

; 825  : 	enumSLOT.TARGET_GRAPHICS = SLOT_TARGET_GRAPHICS;

  017a0	c7 05 38 07 00
	00 ce 01 00 00	 mov	 DWORD PTR ?enumSLOT@@3UStrEnumSLOT@@A+1848, 462 ; 000001ceH

; 826  : 	enumSLOT.DEFAULT_SPRITES = SLOT_DEFAULT_SPRITES;

  017aa	c7 05 3c 07 00
	00 cf 01 00 00	 mov	 DWORD PTR ?enumSLOT@@3UStrEnumSLOT@@A+1852, 463 ; 000001cfH

; 827  : 	enumSLOT.MISC_SPRITES = SLOT_MISC_SPRITES;

  017b4	c7 05 40 07 00
	00 d0 01 00 00	 mov	 DWORD PTR ?enumSLOT@@3UStrEnumSLOT@@A+1856, 464 ; 000001d0H

; 828  : 	enumSLOT.MOTOR_BOAT = SLOT_MOTOR_BOAT;

  017be	c7 05 44 07 00
	00 d1 01 00 00	 mov	 DWORD PTR ?enumSLOT@@3UStrEnumSLOT@@A+1860, 465 ; 000001d1H

; 829  : 	enumSLOT.MOTOR_BOAT_LARA = SLOT_MOTOR_BOAT_LARA;

  017c8	c7 05 48 07 00
	00 d2 01 00 00	 mov	 DWORD PTR ?enumSLOT@@3UStrEnumSLOT@@A+1864, 466 ; 000001d2H

; 830  : 	enumSLOT.RUBBER_BOAT = SLOT_RUBBER_BOAT;

  017d2	c7 05 4c 07 00
	00 d3 01 00 00	 mov	 DWORD PTR ?enumSLOT@@3UStrEnumSLOT@@A+1868, 467 ; 000001d3H

; 831  : 	enumSLOT.RUBBER_BOAT_LARA = SLOT_RUBBER_BOAT_LARA;

  017dc	c7 05 50 07 00
	00 d4 01 00 00	 mov	 DWORD PTR ?enumSLOT@@3UStrEnumSLOT@@A+1872, 468 ; 000001d4H

; 832  : 	enumSLOT.MOTORBIKE_LARA = SLOT_MOTORBIKE_LARA;

  017e6	c7 05 54 07 00
	00 d5 01 00 00	 mov	 DWORD PTR ?enumSLOT@@3UStrEnumSLOT@@A+1876, 469 ; 000001d5H

; 833  : 	enumSLOT.FONT_GRAPHICS = SLOT_FONT_GRAPHICS;

  017f0	c7 05 58 07 00
	00 d6 01 00 00	 mov	 DWORD PTR ?enumSLOT@@3UStrEnumSLOT@@A+1880, 470 ; 000001d6H

; 834  : 	enumSLOT.PARALLEL_BARS = SLOT_PARALLEL_BARS;

  017fa	c7 05 5c 07 00
	00 d7 01 00 00	 mov	 DWORD PTR ?enumSLOT@@3UStrEnumSLOT@@A+1884, 471 ; 000001d7H

; 835  : 	enumSLOT.PANEL_BORDER = SLOT_PANEL_BORDER;

  01804	c7 05 60 07 00
	00 d8 01 00 00	 mov	 DWORD PTR ?enumSLOT@@3UStrEnumSLOT@@A+1888, 472 ; 000001d8H

; 836  : 	enumSLOT.PANEL_MIDDLE = SLOT_PANEL_MIDDLE;

  0180e	c7 05 64 07 00
	00 d9 01 00 00	 mov	 DWORD PTR ?enumSLOT@@3UStrEnumSLOT@@A+1892, 473 ; 000001d9H

; 837  : 	enumSLOT.PANEL_CORNER = SLOT_PANEL_CORNER;

  01818	c7 05 68 07 00
	00 da 01 00 00	 mov	 DWORD PTR ?enumSLOT@@3UStrEnumSLOT@@A+1896, 474 ; 000001daH

; 838  : 	enumSLOT.PANEL_DIAGONAL = SLOT_PANEL_DIAGONAL;

  01822	c7 05 6c 07 00
	00 db 01 00 00	 mov	 DWORD PTR ?enumSLOT@@3UStrEnumSLOT@@A+1900, 475 ; 000001dbH

; 839  : 	enumSLOT.PANEL_STRIP = SLOT_PANEL_STRIP;

  0182c	c7 05 70 07 00
	00 dc 01 00 00	 mov	 DWORD PTR ?enumSLOT@@3UStrEnumSLOT@@A+1904, 476 ; 000001dcH

; 840  : 	enumSLOT.PANEL_HALF_BORDER1 = SLOT_PANEL_HALF_BORDER1;

  01836	c7 05 74 07 00
	00 dd 01 00 00	 mov	 DWORD PTR ?enumSLOT@@3UStrEnumSLOT@@A+1908, 477 ; 000001ddH

; 841  : 	enumSLOT.PANEL_HALF_BORDER2 = SLOT_PANEL_HALF_BORDER2;

  01840	c7 05 78 07 00
	00 de 01 00 00	 mov	 DWORD PTR ?enumSLOT@@3UStrEnumSLOT@@A+1912, 478 ; 000001deH

; 842  : 	enumSLOT.PANEL_MIDDLE_CORNER = SLOT_PANEL_MIDDLE_CORNER;

  0184a	c7 05 7c 07 00
	00 df 01 00 00	 mov	 DWORD PTR ?enumSLOT@@3UStrEnumSLOT@@A+1916, 479 ; 000001dfH

; 843  : 	enumSLOT.TIGHT_ROPE = SLOT_TIGHT_ROPE;

  01854	c7 05 80 07 00
	00 e0 01 00 00	 mov	 DWORD PTR ?enumSLOT@@3UStrEnumSLOT@@A+1920, 480 ; 000001e0H

; 844  : 	enumSLOT.LASER_HEAD = SLOT_LASER_HEAD;

  0185e	c7 05 84 07 00
	00 e1 01 00 00	 mov	 DWORD PTR ?enumSLOT@@3UStrEnumSLOT@@A+1924, 481 ; 000001e1H

; 845  : 	enumSLOT.LASER_HEAD_BASE = SLOT_LASER_HEAD_BASE;

  01868	c7 05 88 07 00
	00 e2 01 00 00	 mov	 DWORD PTR ?enumSLOT@@3UStrEnumSLOT@@A+1928, 482 ; 000001e2H

; 846  : 	enumSLOT.LASER_HEAD_TENTACLE = SLOT_LASER_HEAD_TENTACLE;

  01872	c7 05 8c 07 00
	00 e3 01 00 00	 mov	 DWORD PTR ?enumSLOT@@3UStrEnumSLOT@@A+1932, 483 ; 000001e3H

; 847  : 	enumSLOT.HYDRA = SLOT_HYDRA;

  0187c	c7 05 90 07 00
	00 e4 01 00 00	 mov	 DWORD PTR ?enumSLOT@@3UStrEnumSLOT@@A+1936, 484 ; 000001e4H

; 848  : 	enumSLOT.HYDRA_MISSILE = SLOT_HYDRA_MISSILE;

  01886	c7 05 94 07 00
	00 e5 01 00 00	 mov	 DWORD PTR ?enumSLOT@@3UStrEnumSLOT@@A+1940, 485 ; 000001e5H

; 849  : 	enumSLOT.ENEMY_SUB_MARINE = SLOT_ENEMY_SUB_MARINE;

  01890	c7 05 98 07 00
	00 e6 01 00 00	 mov	 DWORD PTR ?enumSLOT@@3UStrEnumSLOT@@A+1944, 486 ; 000001e6H

; 850  : 	enumSLOT.ENEMY_SUB_MARINE_MIP = SLOT_ENEMY_SUB_MARINE_MIP;

  0189a	c7 05 9c 07 00
	00 e7 01 00 00	 mov	 DWORD PTR ?enumSLOT@@3UStrEnumSLOT@@A+1948, 487 ; 000001e7H

; 851  : 	enumSLOT.SUB_MARINE_MISSILE = SLOT_SUB_MARINE_MISSILE;

  018a4	c7 05 a0 07 00
	00 e8 01 00 00	 mov	 DWORD PTR ?enumSLOT@@3UStrEnumSLOT@@A+1952, 488 ; 000001e8H

; 852  : 	enumSLOT.FROG_MAN = SLOT_FROG_MAN;

  018ae	c7 05 a4 07 00
	00 e9 01 00 00	 mov	 DWORD PTR ?enumSLOT@@3UStrEnumSLOT@@A+1956, 489 ; 000001e9H

; 853  : 	enumSLOT.FROG_MAN_HARPOON = SLOT_FROG_MAN_HARPOON;

  018b8	c7 05 a8 07 00
	00 ea 01 00 00	 mov	 DWORD PTR ?enumSLOT@@3UStrEnumSLOT@@A+1960, 490 ; 000001eaH

; 854  : 	enumSLOT.FISH_EMITTER = SLOT_FISH_EMITTER;

  018c2	c7 05 ac 07 00
	00 eb 01 00 00	 mov	 DWORD PTR ?enumSLOT@@3UStrEnumSLOT@@A+1964, 491 ; 000001ebH

; 855  : 	enumSLOT.KAYAK = SLOT_KAYAK;

  018cc	c7 05 b0 07 00
	00 ec 01 00 00	 mov	 DWORD PTR ?enumSLOT@@3UStrEnumSLOT@@A+1968, 492 ; 000001ecH

; 856  : 	enumSLOT.KAYAK_LARA = SLOT_KAYAK_LARA;

  018d6	c7 05 b4 07 00
	00 ed 01 00 00	 mov	 DWORD PTR ?enumSLOT@@3UStrEnumSLOT@@A+1972, 493 ; 000001edH

; 857  : 	enumSLOT.CUSTOM_SPRITES = SLOT_CUSTOM_SPRITES;

  018e0	c7 05 b8 07 00
	00 ee 01 00 00	 mov	 DWORD PTR ?enumSLOT@@3UStrEnumSLOT@@A+1976, 494 ; 000001eeH

; 858  : 	enumSLOT.BRIDGE_TILT3 = SLOT_BRIDGE_TILT3;

  018ea	c7 05 bc 07 00
	00 ef 01 00 00	 mov	 DWORD PTR ?enumSLOT@@3UStrEnumSLOT@@A+1980, 495 ; 000001efH

; 859  : 	enumSLOT.BRIDGE_TILT4 = SLOT_BRIDGE_TILT4;

  018f4	c7 05 c0 07 00
	00 f0 01 00 00	 mov	 DWORD PTR ?enumSLOT@@3UStrEnumSLOT@@A+1984, 496 ; 000001f0H

; 860  : 	enumSLOT.BRIDGE_CUSTOM = SLOT_BRIDGE_CUSTOM;

  018fe	c7 05 c4 07 00
	00 f1 01 00 00	 mov	 DWORD PTR ?enumSLOT@@3UStrEnumSLOT@@A+1988, 497 ; 000001f1H

; 861  : 	enumSLOT.ROBOT_CLEANER = SLOT_ROBOT_CLEANER;

  01908	c7 05 c8 07 00
	00 f2 01 00 00	 mov	 DWORD PTR ?enumSLOT@@3UStrEnumSLOT@@A+1992, 498 ; 000001f2H

; 862  : 	enumSLOT.ROBOT_STAR_WARS = SLOT_ROBOT_STAR_WARS;

  01912	c7 05 cc 07 00
	00 f3 01 00 00	 mov	 DWORD PTR ?enumSLOT@@3UStrEnumSLOT@@A+1996, 499 ; 000001f3H

; 863  : 	enumSLOT.MECH_WARRIOR = SLOT_MECH_WARRIOR;

  0191c	c7 05 d0 07 00
	00 f4 01 00 00	 mov	 DWORD PTR ?enumSLOT@@3UStrEnumSLOT@@A+2000, 500 ; 000001f4H

; 864  : 	enumSLOT.MECH_WARRIOR_LARA = SLOT_MECH_WARRIOR_LARA;

  01926	c7 05 d4 07 00
	00 f5 01 00 00	 mov	 DWORD PTR ?enumSLOT@@3UStrEnumSLOT@@A+2004, 501 ; 000001f5H

; 865  : 	enumSLOT.UW_PROPULSOR = SLOT_UW_PROPULSOR;

  01930	c7 05 d8 07 00
	00 f6 01 00 00	 mov	 DWORD PTR ?enumSLOT@@3UStrEnumSLOT@@A+2008, 502 ; 000001f6H

; 866  : 	enumSLOT.UW_PROPULSOR_LARA = SLOT_UW_PROPULSOR_LARA;

  0193a	c7 05 dc 07 00
	00 f7 01 00 00	 mov	 DWORD PTR ?enumSLOT@@3UStrEnumSLOT@@A+2012, 503 ; 000001f7H

; 867  : 	enumSLOT.MINE_CART = SLOT_MINE_CART;

  01944	c7 05 e0 07 00
	00 f8 01 00 00	 mov	 DWORD PTR ?enumSLOT@@3UStrEnumSLOT@@A+2016, 504 ; 000001f8H

; 868  : 	enumSLOT.MINE_CART_LARA = SLOT_MINE_CART_LARA;

  0194e	c7 05 e4 07 00
	00 f9 01 00 00	 mov	 DWORD PTR ?enumSLOT@@3UStrEnumSLOT@@A+2020, 505 ; 000001f9H

; 869  : 	enumSLOT.NEW_SLOT5 = SLOT_NEW_SLOT5;

  01958	c7 05 e8 07 00
	00 fa 01 00 00	 mov	 DWORD PTR ?enumSLOT@@3UStrEnumSLOT@@A+2024, 506 ; 000001faH

; 870  : 	enumSLOT.NEW_SLOT6 = SLOT_NEW_SLOT6;

  01962	c7 05 ec 07 00
	00 fb 01 00 00	 mov	 DWORD PTR ?enumSLOT@@3UStrEnumSLOT@@A+2028, 507 ; 000001fbH

; 871  : 	enumSLOT.NEW_SLOT7 = SLOT_NEW_SLOT7;

  0196c	c7 05 f0 07 00
	00 fc 01 00 00	 mov	 DWORD PTR ?enumSLOT@@3UStrEnumSLOT@@A+2032, 508 ; 000001fcH

; 872  : 	enumSLOT.NEW_SLOT8 = SLOT_NEW_SLOT8;

  01976	c7 05 f4 07 00
	00 fd 01 00 00	 mov	 DWORD PTR ?enumSLOT@@3UStrEnumSLOT@@A+2036, 509 ; 000001fdH

; 873  : 	enumSLOT.NEW_SLOT9 = SLOT_NEW_SLOT9;

  01980	c7 05 f8 07 00
	00 fe 01 00 00	 mov	 DWORD PTR ?enumSLOT@@3UStrEnumSLOT@@A+2040, 510 ; 000001feH

; 874  : 	enumSLOT.NEW_SLOT10 = SLOT_NEW_SLOT10;

  0198a	c7 05 fc 07 00
	00 ff 01 00 00	 mov	 DWORD PTR ?enumSLOT@@3UStrEnumSLOT@@A+2044, 511 ; 000001ffH

; 875  : 	enumSLOT.NEW_SLOT11 = SLOT_NEW_SLOT11;

  01994	c7 05 00 08 00
	00 00 02 00 00	 mov	 DWORD PTR ?enumSLOT@@3UStrEnumSLOT@@A+2048, 512 ; 00000200H

; 876  : 	enumSLOT.NEW_SLOT12 = SLOT_NEW_SLOT12;

  0199e	c7 05 04 08 00
	00 01 02 00 00	 mov	 DWORD PTR ?enumSLOT@@3UStrEnumSLOT@@A+2052, 513 ; 00000201H

; 877  : 	enumSLOT.NEW_SLOT13 = SLOT_NEW_SLOT13;

  019a8	c7 05 08 08 00
	00 02 02 00 00	 mov	 DWORD PTR ?enumSLOT@@3UStrEnumSLOT@@A+2056, 514 ; 00000202H

; 878  : 	enumSLOT.NEW_SLOT14 = SLOT_NEW_SLOT14;

  019b2	c7 05 0c 08 00
	00 03 02 00 00	 mov	 DWORD PTR ?enumSLOT@@3UStrEnumSLOT@@A+2060, 515 ; 00000203H

; 879  : 	enumSLOT.NEW_SLOT15 = SLOT_NEW_SLOT15;

  019bc	c7 05 10 08 00
	00 04 02 00 00	 mov	 DWORD PTR ?enumSLOT@@3UStrEnumSLOT@@A+2064, 516 ; 00000204H

; 880  : 	enumSLOT.NEW_SLOT16 = SLOT_NEW_SLOT16;

  019c6	c7 05 14 08 00
	00 05 02 00 00	 mov	 DWORD PTR ?enumSLOT@@3UStrEnumSLOT@@A+2068, 517 ; 00000205H

; 881  : 	enumSLOT.NEW_SLOT17 = SLOT_NEW_SLOT17;

  019d0	c7 05 18 08 00
	00 06 02 00 00	 mov	 DWORD PTR ?enumSLOT@@3UStrEnumSLOT@@A+2072, 518 ; 00000206H

; 882  : 	enumSLOT.NEW_SLOT18 = SLOT_NEW_SLOT18;

  019da	c7 05 1c 08 00
	00 07 02 00 00	 mov	 DWORD PTR ?enumSLOT@@3UStrEnumSLOT@@A+2076, 519 ; 00000207H

; 883  : 	enumSLOT.NUMBER_OBJECTS = SLOT_NUMBER_OBJECTS;

  019e4	c7 05 20 08 00
	00 08 02 00 00	 mov	 DWORD PTR ?enumSLOT@@3UStrEnumSLOT@@A+2080, 520 ; 00000208H

; 884  : 
; 885  : //  --------------- LOAD CONSTANTS FOR ENUM STRUCTURE: enumGET----------------------
; 886  : 	enumGET.LARA = GET_LARA;

  019ee	c7 05 00 00 00
	00 00 00 00 00	 mov	 DWORD PTR ?enumGET@@3UStrEnumGET@@A, 0

; 887  : 	enumGET.ITEM = GET_ITEM;

  019f8	a3 04 00 00 00	 mov	 DWORD PTR ?enumGET@@3UStrEnumGET@@A+4, eax

; 888  : 	enumGET.STATIC = GET_STATIC;

  019fd	89 0d 08 00 00
	00		 mov	 DWORD PTR ?enumGET@@3UStrEnumGET@@A+8, ecx

; 889  : 	enumGET.ROOM = GET_ROOM;

  01a03	c7 05 0c 00 00
	00 03 00 00 00	 mov	 DWORD PTR ?enumGET@@3UStrEnumGET@@A+12, 3

; 890  : 	enumGET.ITEM_COLL_BOX = GET_ITEM_COLL_BOX;

  01a0d	89 15 10 00 00
	00		 mov	 DWORD PTR ?enumGET@@3UStrEnumGET@@A+16, edx

; 891  : 	enumGET.STATIC_COLL_BOX = GET_STATIC_COLL_BOX;

  01a13	c7 05 14 00 00
	00 05 00 00 00	 mov	 DWORD PTR ?enumGET@@3UStrEnumGET@@A+20, 5

; 892  : 	enumGET.STATIC_VIEW_BOX = GET_STATIC_VIEW_BOX;

  01a1d	c7 05 18 00 00
	00 06 00 00 00	 mov	 DWORD PTR ?enumGET@@3UStrEnumGET@@A+24, 6

; 893  : 	enumGET.DOOR_OF_ROOM = GET_DOOR_OF_ROOM;

  01a27	c7 05 1c 00 00
	00 07 00 00 00	 mov	 DWORD PTR ?enumGET@@3UStrEnumGET@@A+28, 7

; 894  : 	enumGET.INFO_LARA = GET_INFO_LARA;

  01a31	89 35 20 00 00
	00		 mov	 DWORD PTR ?enumGET@@3UStrEnumGET@@A+32, esi

; 895  : 	enumGET.MY_PARAMETER_COMMAND = GET_MY_PARAMETER_COMMAND;

  01a37	c7 05 24 00 00
	00 09 00 00 00	 mov	 DWORD PTR ?enumGET@@3UStrEnumGET@@A+36, 9

; 896  : 	enumGET.MY_CUSTOMIZE_COMMAND = GET_MY_CUSTOMIZE_COMMAND;

  01a41	c7 05 28 00 00
	00 0a 00 00 00	 mov	 DWORD PTR ?enumGET@@3UStrEnumGET@@A+40, 10 ; 0000000aH

; 897  : 	enumGET.INPUT = GET_INPUT;

  01a4b	c7 05 2c 00 00
	00 0b 00 00 00	 mov	 DWORD PTR ?enumGET@@3UStrEnumGET@@A+44, 11 ; 0000000bH

; 898  : 	enumGET.STRINGNG = GET_STRINGNG;

  01a55	c7 05 30 00 00
	00 0c 00 00 00	 mov	 DWORD PTR ?enumGET@@3UStrEnumGET@@A+48, 12 ; 0000000cH

; 899  : 	enumGET.STRING = GET_STRING;

  01a5f	c7 05 34 00 00
	00 0d 00 00 00	 mov	 DWORD PTR ?enumGET@@3UStrEnumGET@@A+52, 13 ; 0000000dH

; 900  : 	enumGET.BIG_NUMBER = GET_BIG_NUMBER;

  01a69	c7 05 38 00 00
	00 0e 00 00 00	 mov	 DWORD PTR ?enumGET@@3UStrEnumGET@@A+56, 14 ; 0000000eH

; 901  : 	enumGET.SCRIPT_SETTINGS = GET_SCRIPT_SETTINGS;

  01a73	c7 05 3c 00 00
	00 0f 00 00 00	 mov	 DWORD PTR ?enumGET@@3UStrEnumGET@@A+60, 15 ; 0000000fH

; 902  : 	enumGET.PROGRESSIVE_ACTION = GET_PROGRESSIVE_ACTION;

  01a7d	89 3d 40 00 00
	00		 mov	 DWORD PTR ?enumGET@@3UStrEnumGET@@A+64, edi

; 903  : 	enumGET.AI_ITEM = GET_AI_ITEM;

  01a83	c7 05 44 00 00
	00 11 00 00 00	 mov	 DWORD PTR ?enumGET@@3UStrEnumGET@@A+68, 17 ; 00000011H

; 904  : 	enumGET.LIGHT = GET_LIGHT;

  01a8d	c7 05 48 00 00
	00 12 00 00 00	 mov	 DWORD PTR ?enumGET@@3UStrEnumGET@@A+72, 18 ; 00000012H

; 905  : 	enumGET.CAMERA = GET_CAMERA;

  01a97	c7 05 4c 00 00
	00 13 00 00 00	 mov	 DWORD PTR ?enumGET@@3UStrEnumGET@@A+76, 19 ; 00000013H

; 906  : 	enumGET.CAMERA_FLY = GET_CAMERA_FLY;

  01aa1	c7 05 50 00 00
	00 14 00 00 00	 mov	 DWORD PTR ?enumGET@@3UStrEnumGET@@A+80, 20 ; 00000014H

; 907  : 	enumGET.COLOR_RGB = GET_COLOR_RGB;

  01aab	c7 05 54 00 00
	00 15 00 00 00	 mov	 DWORD PTR ?enumGET@@3UStrEnumGET@@A+84, 21 ; 00000015H

; 908  : 	enumGET.GAME_INFO = GET_GAME_INFO;

  01ab5	c7 05 58 00 00
	00 16 00 00 00	 mov	 DWORD PTR ?enumGET@@3UStrEnumGET@@A+88, 22 ; 00000016H

; 909  : 	enumGET.SLOT = GET_SLOT;

  01abf	c7 05 5c 00 00
	00 17 00 00 00	 mov	 DWORD PTR ?enumGET@@3UStrEnumGET@@A+92, 23 ; 00000017H

; 910  : 	enumGET.INVENTORY = GET_INVENTORY;

  01ac9	c7 05 60 00 00
	00 18 00 00 00	 mov	 DWORD PTR ?enumGET@@3UStrEnumGET@@A+96, 24 ; 00000018H

; 911  : 	enumGET.ANIMATION = GET_ANIMATION;

  01ad3	c7 05 64 00 00
	00 19 00 00 00	 mov	 DWORD PTR ?enumGET@@3UStrEnumGET@@A+100, 25 ; 00000019H

; 912  : 	enumGET.INFO_ITEM = GET_INFO_ITEM;

  01add	c7 05 68 00 00
	00 1a 00 00 00	 mov	 DWORD PTR ?enumGET@@3UStrEnumGET@@A+104, 26 ; 0000001aH

; 913  : 	enumGET.VARIABLES = GET_VARIABLES;

  01ae7	c7 05 6c 00 00
	00 1b 00 00 00	 mov	 DWORD PTR ?enumGET@@3UStrEnumGET@@A+108, 27 ; 0000001bH

; 914  : 	enumGET.FLIPMAPS = GET_FLIPMAPS;

  01af1	c7 05 70 00 00
	00 1c 00 00 00	 mov	 DWORD PTR ?enumGET@@3UStrEnumGET@@A+112, 28 ; 0000001cH

; 915  : 
; 916  : //  --------------- LOAD CONSTANTS FOR ENUM STRUCTURE: enumSKIP----------------------
; 917  : 	enumSKIP.NONE = SKIP_NONE;

  01afb	c7 05 00 00 00
	00 00 00 00 00	 mov	 DWORD PTR ?enumSKIP@@3UStrEnumSKIP@@A, 0

; 918  : 	enumSKIP.FIXED_CAMERA = SKIP_FIXED_CAMERA;

  01b05	a3 04 00 00 00	 mov	 DWORD PTR ?enumSKIP@@3UStrEnumSKIP@@A+4, eax

; 919  : 	enumSKIP.FLY_CAMERA = SKIP_FLY_CAMERA;

  01b0a	89 0d 08 00 00
	00		 mov	 DWORD PTR ?enumSKIP@@3UStrEnumSKIP@@A+8, ecx

; 920  : 	enumSKIP.LOADING_LEVEL = SKIP_LOADING_LEVEL;

  01b10	89 15 0c 00 00
	00		 mov	 DWORD PTR ?enumSKIP@@3UStrEnumSKIP@@A+12, edx

; 921  : 	enumSKIP.FADE = SKIP_FADE;

  01b16	89 35 10 00 00
	00		 mov	 DWORD PTR ?enumSKIP@@3UStrEnumSKIP@@A+16, esi

; 922  : 	enumSKIP.TITLE_LEVEL = SKIP_TITLE_LEVEL;

  01b1c	89 3d 14 00 00
	00		 mov	 DWORD PTR ?enumSKIP@@3UStrEnumSKIP@@A+20, edi

; 923  : 	enumSKIP.GRAY_SCREEN = SKIP_GRAY_SCREEN;

  01b22	89 1d 18 00 00
	00		 mov	 DWORD PTR ?enumSKIP@@3UStrEnumSKIP@@A+24, ebx

; 924  : 	enumSKIP.NO_VIEW_OGGETTI = SKIP_NO_VIEW_OGGETTI;

  01b28	c7 05 1c 00 00
	00 40 00 00 00	 mov	 DWORD PTR ?enumSKIP@@3UStrEnumSKIP@@A+28, 64 ; 00000040H

; 925  : 	enumSKIP.BINOCULARS = SKIP_BINOCULARS;

  01b32	c7 05 20 00 00
	00 80 00 00 00	 mov	 DWORD PTR ?enumSKIP@@3UStrEnumSKIP@@A+32, 128 ; 00000080H

; 926  : 	enumSKIP.LASER_SIGHT = SKIP_LASER_SIGHT;

  01b3c	c7 05 24 00 00
	00 00 01 00 00	 mov	 DWORD PTR ?enumSKIP@@3UStrEnumSKIP@@A+36, 256 ; 00000100H

; 927  : 	enumSKIP.FULL_IMAGE = SKIP_FULL_IMAGE;

  01b46	c7 05 28 00 00
	00 00 02 00 00	 mov	 DWORD PTR ?enumSKIP@@3UStrEnumSKIP@@A+40, 512 ; 00000200H

; 928  : 
; 929  : //  --------------- LOAD CONSTANTS FOR ENUM STRUCTURE: enumFL2----------------------
; 930  : 	enumFL2.OVER_MINE_TRIGGER = FL2_OVER_MINE_TRIGGER;

  01b50	a3 00 00 00 00	 mov	 DWORD PTR ?enumFL2@@3UStrEnumFL2@@A, eax

; 931  : 	enumFL2.IS_BURNING = FL2_IS_BURNING;

  01b55	89 0d 04 00 00
	00		 mov	 DWORD PTR ?enumFL2@@3UStrEnumFL2@@A+4, ecx

; 932  : 	enumFL2.IS_DUCK = FL2_IS_DUCK;

  01b5b	89 15 08 00 00
	00		 mov	 DWORD PTR ?enumFL2@@3UStrEnumFL2@@A+8, edx

; 933  : 	enumFL2.IS_INVULNERABLE = FL2_IS_INVULNERABLE;

  01b61	89 35 0c 00 00
	00		 mov	 DWORD PTR ?enumFL2@@3UStrEnumFL2@@A+12, esi

; 934  : 	enumFL2.IS_USING_LASER_SIGHT_OR_BINOCULARS = FL2_IS_USING_LASER_SIGHT_OR_BINOCULARS;

  01b67	89 3d 10 00 00
	00		 mov	 DWORD PTR ?enumFL2@@3UStrEnumFL2@@A+16, edi

; 935  : 	enumFL2.TORCH_IS_BURNING = FL2_TORCH_IS_BURNING;

  01b6d	89 1d 14 00 00
	00		 mov	 DWORD PTR ?enumFL2@@3UStrEnumFL2@@A+20, ebx

; 936  : 	enumFL2.IS_CLIMBING = FL2_IS_CLIMBING;

  01b73	c7 05 18 00 00
	00 40 00 00 00	 mov	 DWORD PTR ?enumFL2@@3UStrEnumFL2@@A+24, 64 ; 00000040H

; 937  : 
; 938  : //  --------------- LOAD CONSTANTS FOR ENUM STRUCTURE: enumHOLD----------------------
; 939  : 	enumHOLD.PISTOLS = HOLD_PISTOLS;

  01b7d	a3 00 00 00 00	 mov	 DWORD PTR ?enumHOLD@@3UStrEnumHOLD@@A, eax

; 940  : 	enumHOLD.REVOLVER = HOLD_REVOLVER;

  01b82	89 0d 04 00 00
	00		 mov	 DWORD PTR ?enumHOLD@@3UStrEnumHOLD@@A+4, ecx

; 941  : 	enumHOLD.UZI = HOLD_UZI;

  01b88	c7 05 08 00 00
	00 03 00 00 00	 mov	 DWORD PTR ?enumHOLD@@3UStrEnumHOLD@@A+8, 3

; 942  : 	enumHOLD.SHOTGUN = HOLD_SHOTGUN;

  01b92	89 15 0c 00 00
	00		 mov	 DWORD PTR ?enumHOLD@@3UStrEnumHOLD@@A+12, edx

; 943  : 	enumHOLD.GRENADEGUN = HOLD_GRENADEGUN;

  01b98	c7 05 10 00 00
	00 05 00 00 00	 mov	 DWORD PTR ?enumHOLD@@3UStrEnumHOLD@@A+16, 5

; 944  : 	enumHOLD.CROSSBOW = HOLD_CROSSBOW;

  01ba2	c7 05 14 00 00
	00 06 00 00 00	 mov	 DWORD PTR ?enumHOLD@@3UStrEnumHOLD@@A+20, 6

; 945  : 	enumHOLD.FLARE = HOLD_FLARE;

  01bac	c7 05 18 00 00
	00 07 00 00 00	 mov	 DWORD PTR ?enumHOLD@@3UStrEnumHOLD@@A+24, 7

; 946  : 	enumHOLD.OUT_TORCH = HOLD_OUT_TORCH;

  01bb6	89 35 1c 00 00
	00		 mov	 DWORD PTR ?enumHOLD@@3UStrEnumHOLD@@A+28, esi

; 947  : 	enumHOLD.FIRED_TORCH = HOLD_FIRED_TORCH;

  01bbc	c7 05 20 00 00
	00 09 00 00 00	 mov	 DWORD PTR ?enumHOLD@@3UStrEnumHOLD@@A+32, 9

; 948  : 	enumHOLD.JEEP = HOLD_JEEP;

  01bc6	c7 05 24 00 00
	00 0a 00 00 00	 mov	 DWORD PTR ?enumHOLD@@3UStrEnumHOLD@@A+36, 10 ; 0000000aH

; 949  : 	enumHOLD.SIDECAR = HOLD_SIDECAR;

  01bd0	c7 05 28 00 00
	00 0b 00 00 00	 mov	 DWORD PTR ?enumHOLD@@3UStrEnumHOLD@@A+40, 11 ; 0000000bH

; 950  : 	enumHOLD.RUBBER_BOAT = HOLD_RUBBER_BOAT;

  01bda	c7 05 2c 00 00
	00 0c 00 00 00	 mov	 DWORD PTR ?enumHOLD@@3UStrEnumHOLD@@A+44, 12 ; 0000000cH

; 951  : 	enumHOLD.MOTOR_BOAT = HOLD_MOTOR_BOAT;

  01be4	c7 05 30 00 00
	00 0d 00 00 00	 mov	 DWORD PTR ?enumHOLD@@3UStrEnumHOLD@@A+48, 13 ; 0000000dH

; 952  : 	enumHOLD.ROPE = HOLD_ROPE;

  01bee	c7 05 34 00 00
	00 0e 00 00 00	 mov	 DWORD PTR ?enumHOLD@@3UStrEnumHOLD@@A+52, 14 ; 0000000eH

; 953  : 	enumHOLD.POLE = HOLD_POLE;

  01bf8	c7 05 38 00 00
	00 0f 00 00 00	 mov	 DWORD PTR ?enumHOLD@@3UStrEnumHOLD@@A+56, 15 ; 0000000fH

; 954  : 	enumHOLD.ANY_TORCH = HOLD_ANY_TORCH;

  01c02	89 3d 3c 00 00
	00		 mov	 DWORD PTR ?enumHOLD@@3UStrEnumHOLD@@A+60, edi

; 955  : 	enumHOLD.KAYAK = HOLD_KAYAK;

  01c08	c7 05 40 00 00
	00 11 00 00 00	 mov	 DWORD PTR ?enumHOLD@@3UStrEnumHOLD@@A+64, 17 ; 00000011H

; 956  : 
; 957  : //  --------------- LOAD CONSTANTS FOR ENUM STRUCTURE: enumLLF----------------------
; 958  : 	enumLLF.GROUND = LLF_GROUND;

  01c12	c7 05 00 00 00
	00 00 00 00 00	 mov	 DWORD PTR ?enumLLF@@3UStrEnumLLF@@A, 0

; 959  : 	enumLLF.UNDERWATER = LLF_UNDERWATER;

  01c1c	a3 04 00 00 00	 mov	 DWORD PTR ?enumLLF@@3UStrEnumLLF@@A+4, eax

; 960  : 	enumLLF.FLOATING = LLF_FLOATING;

  01c21	89 0d 08 00 00
	00		 mov	 DWORD PTR ?enumLLF@@3UStrEnumLLF@@A+8, ecx

; 961  : 	enumLLF.DOZY = LLF_DOZY;

  01c27	c7 05 0c 00 00
	00 03 00 00 00	 mov	 DWORD PTR ?enumLLF@@3UStrEnumLLF@@A+12, 3

; 962  : 	enumLLF.LOW_WATER = LLF_LOW_WATER;

  01c31	89 15 10 00 00
	00		 mov	 DWORD PTR ?enumLLF@@3UStrEnumLLF@@A+16, edx

; 963  : 
; 964  : //  --------------- LOAD CONSTANTS FOR ENUM STRUCTURE: enumSCANF----------------------
; 965  : 	enumSCANF.HEAVY = SCANF_HEAVY;

  01c37	c7 05 00 00 00
	00 00 01 00 00	 mov	 DWORD PTR ?enumSCANF@@3UStrEnumSCANF@@A, 256 ; 00000100H

; 966  : 	enumSCANF.TEMP_ONE_SHOT = SCANF_TEMP_ONE_SHOT;

  01c41	c7 05 04 00 00
	00 00 02 00 00	 mov	 DWORD PTR ?enumSCANF@@3UStrEnumSCANF@@A+4, 512 ; 00000200H

; 967  : 	enumSCANF.BUTTON_ONE_SHOT = SCANF_BUTTON_ONE_SHOT;

  01c4b	c7 05 08 00 00
	00 00 04 00 00	 mov	 DWORD PTR ?enumSCANF@@3UStrEnumSCANF@@A+8, 1024 ; 00000400H

; 968  : 	enumSCANF.YET_TO_PERFORM = SCANF_YET_TO_PERFORM;

  01c55	c7 05 0c 00 00
	00 00 08 00 00	 mov	 DWORD PTR ?enumSCANF@@3UStrEnumSCANF@@A+12, 2048 ; 00000800H

; 969  : 	enumSCANF.SCRIPT_TRIGGER = SCANF_SCRIPT_TRIGGER;

  01c5f	c7 05 10 00 00
	00 00 10 00 00	 mov	 DWORD PTR ?enumSCANF@@3UStrEnumSCANF@@A+16, 4096 ; 00001000H

; 970  : 	enumSCANF.DIRECT_CALL = SCANF_DIRECT_CALL;

  01c69	c7 05 14 00 00
	00 00 20 00 00	 mov	 DWORD PTR ?enumSCANF@@3UStrEnumSCANF@@A+20, 8192 ; 00002000H

; 971  : 	enumSCANF.FLOOR_DATA = SCANF_FLOOR_DATA;

  01c73	c7 05 18 00 00
	00 00 40 00 00	 mov	 DWORD PTR ?enumSCANF@@3UStrEnumSCANF@@A+24, 16384 ; 00004000H

; 972  : 	enumSCANF.ANIM_COMMAND = SCANF_ANIM_COMMAND;

  01c7d	c7 05 1c 00 00
	00 00 80 00 00	 mov	 DWORD PTR ?enumSCANF@@3UStrEnumSCANF@@A+28, 32768 ; 00008000H

; 973  : 
; 974  : //  --------------- LOAD CONSTANTS FOR ENUM STRUCTURE: enumMESH----------------------
; 975  : 	enumMESH.BUTT = MESH_BUTT;

  01c87	c7 05 00 00 00
	00 00 00 00 00	 mov	 DWORD PTR ?enumMESH@@3UStrEnumMESH@@A, 0

; 976  : 	enumMESH.RIGHT_THIGH = MESH_RIGHT_THIGH;

  01c91	a3 04 00 00 00	 mov	 DWORD PTR ?enumMESH@@3UStrEnumMESH@@A+4, eax

; 977  : 	enumMESH.RIGHT_CALF = MESH_RIGHT_CALF;

  01c96	89 0d 08 00 00
	00		 mov	 DWORD PTR ?enumMESH@@3UStrEnumMESH@@A+8, ecx

; 978  : 	enumMESH.RIGHT_FOOT = MESH_RIGHT_FOOT;

  01c9c	c7 05 0c 00 00
	00 03 00 00 00	 mov	 DWORD PTR ?enumMESH@@3UStrEnumMESH@@A+12, 3

; 979  : 	enumMESH.LEFT_THIGH = MESH_LEFT_THIGH;

  01ca6	89 15 10 00 00
	00		 mov	 DWORD PTR ?enumMESH@@3UStrEnumMESH@@A+16, edx

; 980  : 	enumMESH.LEFT_CALF = MESH_LEFT_CALF;

  01cac	c7 05 14 00 00
	00 05 00 00 00	 mov	 DWORD PTR ?enumMESH@@3UStrEnumMESH@@A+20, 5

; 981  : 	enumMESH.LEFT_FOOT = MESH_LEFT_FOOT;

  01cb6	c7 05 18 00 00
	00 06 00 00 00	 mov	 DWORD PTR ?enumMESH@@3UStrEnumMESH@@A+24, 6

; 982  : 	enumMESH.CHEST = MESH_CHEST;

  01cc0	c7 05 1c 00 00
	00 07 00 00 00	 mov	 DWORD PTR ?enumMESH@@3UStrEnumMESH@@A+28, 7

; 983  : 	enumMESH.RIGHT_ARM = MESH_RIGHT_ARM;

  01cca	89 35 20 00 00
	00		 mov	 DWORD PTR ?enumMESH@@3UStrEnumMESH@@A+32, esi

; 984  : 	enumMESH.RIGHT_FOREARM = MESH_RIGHT_FOREARM;

  01cd0	c7 05 24 00 00
	00 09 00 00 00	 mov	 DWORD PTR ?enumMESH@@3UStrEnumMESH@@A+36, 9

; 985  : 	enumMESH.RIGHT_HAND = MESH_RIGHT_HAND;

  01cda	c7 05 28 00 00
	00 0a 00 00 00	 mov	 DWORD PTR ?enumMESH@@3UStrEnumMESH@@A+40, 10 ; 0000000aH

; 986  : 	enumMESH.LEFT_ARM = MESH_LEFT_ARM;

  01ce4	c7 05 2c 00 00
	00 0b 00 00 00	 mov	 DWORD PTR ?enumMESH@@3UStrEnumMESH@@A+44, 11 ; 0000000bH

; 987  : 	enumMESH.LEFT_FOREARM = MESH_LEFT_FOREARM;

  01cee	c7 05 30 00 00
	00 0c 00 00 00	 mov	 DWORD PTR ?enumMESH@@3UStrEnumMESH@@A+48, 12 ; 0000000cH

; 988  : 	enumMESH.LEFT_HAND = MESH_LEFT_HAND;

  01cf8	c7 05 34 00 00
	00 0d 00 00 00	 mov	 DWORD PTR ?enumMESH@@3UStrEnumMESH@@A+52, 13 ; 0000000dH

; 989  : 	enumMESH.HEAD = MESH_HEAD;

  01d02	c7 05 38 00 00
	00 0e 00 00 00	 mov	 DWORD PTR ?enumMESH@@3UStrEnumMESH@@A+56, 14 ; 0000000eH

; 990  : 
; 991  : //  --------------- LOAD CONSTANTS FOR ENUM STRUCTURE: enumTRET----------------------
; 992  : 	enumTRET.PERFORM_ALWAYS = TRET_PERFORM_ALWAYS;

  01d0c	c7 05 00 00 00
	00 00 00 00 00	 mov	 DWORD PTR ?enumTRET@@3UStrEnumTRET@@A, 0

; 993  : 	enumTRET.PERFORM_ONCE_AND_GO = TRET_PERFORM_ONCE_AND_GO;

  01d16	a3 04 00 00 00	 mov	 DWORD PTR ?enumTRET@@3UStrEnumTRET@@A+4, eax

; 994  : 	enumTRET.PERFORM_NEVER_MORE = TRET_PERFORM_NEVER_MORE;

  01d1b	89 0d 08 00 00
	00		 mov	 DWORD PTR ?enumTRET@@3UStrEnumTRET@@A+8, ecx

; 995  : 	enumTRET.EXECUTE_ORIGINAL = TRET_EXECUTE_ORIGINAL;

  01d21	c7 05 0c 00 00
	00 03 00 00 00	 mov	 DWORD PTR ?enumTRET@@3UStrEnumTRET@@A+12, 3

; 996  : 
; 997  : //  --------------- LOAD CONSTANTS FOR ENUM STRUCTURE: enumCTRET----------------------
; 998  : 	enumCTRET.IS_TRUE = CTRET_IS_TRUE;

  01d2b	a3 00 00 00 00	 mov	 DWORD PTR ?enumCTRET@@3UStrEnumCTRET@@A, eax

; 999  : 	enumCTRET.EXTRA_PARAM = CTRET_EXTRA_PARAM;

  01d30	89 0d 04 00 00
	00		 mov	 DWORD PTR ?enumCTRET@@3UStrEnumCTRET@@A+4, ecx

; 1000 : 	enumCTRET.ON_MOVEABLE = CTRET_ON_MOVEABLE;

  01d36	89 15 08 00 00
	00		 mov	 DWORD PTR ?enumCTRET@@3UStrEnumCTRET@@A+8, edx

; 1001 : 	enumCTRET.PERFORM_ALWAYS = CTRET_PERFORM_ALWAYS;

  01d3c	89 35 0c 00 00
	00		 mov	 DWORD PTR ?enumCTRET@@3UStrEnumCTRET@@A+12, esi

; 1002 : 	enumCTRET.ONLY_ONCE_ON_TRUE = CTRET_ONLY_ONCE_ON_TRUE;

  01d42	89 3d 10 00 00
	00		 mov	 DWORD PTR ?enumCTRET@@3UStrEnumCTRET@@A+16, edi

; 1003 : 	enumCTRET.NEVER_MORE_ON_TRUE = CTRET_NEVER_MORE_ON_TRUE;

  01d48	89 1d 14 00 00
	00		 mov	 DWORD PTR ?enumCTRET@@3UStrEnumCTRET@@A+20, ebx

; 1004 : 	enumCTRET.PERFORM_ONCE_AND_GO = CTRET_PERFORM_ONCE_AND_GO;

  01d4e	c7 05 18 00 00
	00 40 00 00 00	 mov	 DWORD PTR ?enumCTRET@@3UStrEnumCTRET@@A+24, 64 ; 00000040H

; 1005 : 	enumCTRET.EXECUTE_ORIGINAL = CTRET_EXECUTE_ORIGINAL;

  01d58	c7 05 1c 00 00
	00 80 00 00 00	 mov	 DWORD PTR ?enumCTRET@@3UStrEnumCTRET@@A+28, 128 ; 00000080H

; 1006 : 
; 1007 : //  --------------- LOAD CONSTANTS FOR ENUM STRUCTURE: enumSRET----------------------
; 1008 : 	enumSRET.OK = SRET_OK;

  01d62	c7 05 00 00 00
	00 00 00 00 00	 mov	 DWORD PTR ?enumSRET@@3UStrEnumSRET@@A, 0

; 1009 : 	enumSRET.SKIP_ORIGINAL = SRET_SKIP_ORIGINAL;

  01d6c	a3 04 00 00 00	 mov	 DWORD PTR ?enumSRET@@3UStrEnumSRET@@A+4, eax

; 1010 : 	enumSRET.SKIP_TRNG_CODE = SRET_SKIP_TRNG_CODE;

  01d71	89 0d 08 00 00
	00		 mov	 DWORD PTR ?enumSRET@@3UStrEnumSRET@@A+8, ecx

; 1011 : 
; 1012 : //  --------------- LOAD CONSTANTS FOR ENUM STRUCTURE: enumJOINT----------------------
; 1013 : 	enumJOINT.LEFT_THIGH = JOINT_LEFT_THIGH;

  01d77	a3 00 00 00 00	 mov	 DWORD PTR ?enumJOINT@@3UStrEnumJOINT@@A, eax

; 1014 : 	enumJOINT.LEFT_KNEE = JOINT_LEFT_KNEE;

  01d7c	89 0d 04 00 00
	00		 mov	 DWORD PTR ?enumJOINT@@3UStrEnumJOINT@@A+4, ecx

; 1015 : 	enumJOINT.LEFT_ANCKLE = JOINT_LEFT_ANCKLE;

  01d82	c7 05 08 00 00
	00 03 00 00 00	 mov	 DWORD PTR ?enumJOINT@@3UStrEnumJOINT@@A+8, 3

; 1016 : 	enumJOINT.RIGHT_THIGH = JOINT_RIGHT_THIGH;

  01d8c	89 15 0c 00 00
	00		 mov	 DWORD PTR ?enumJOINT@@3UStrEnumJOINT@@A+12, edx

; 1017 : 	enumJOINT.RIGHT_KNEE = JOINT_RIGHT_KNEE;

  01d92	c7 05 10 00 00
	00 05 00 00 00	 mov	 DWORD PTR ?enumJOINT@@3UStrEnumJOINT@@A+16, 5

; 1018 : 	enumJOINT.RIGHT_ANCKLE = JOINT_RIGHT_ANCKLE;

  01d9c	c7 05 14 00 00
	00 06 00 00 00	 mov	 DWORD PTR ?enumJOINT@@3UStrEnumJOINT@@A+20, 6

; 1019 : 	enumJOINT.ABDOMEN = JOINT_ABDOMEN;

  01da6	c7 05 18 00 00
	00 07 00 00 00	 mov	 DWORD PTR ?enumJOINT@@3UStrEnumJOINT@@A+24, 7

; 1020 : 	enumJOINT.NECK = JOINT_NECK;

  01db0	89 35 1c 00 00
	00		 mov	 DWORD PTR ?enumJOINT@@3UStrEnumJOINT@@A+28, esi

; 1021 : 	enumJOINT.LEFT_SHOULDER = JOINT_LEFT_SHOULDER;

  01db6	c7 05 20 00 00
	00 09 00 00 00	 mov	 DWORD PTR ?enumJOINT@@3UStrEnumJOINT@@A+32, 9

; 1022 : 	enumJOINT.LEFT_ELBOW = JOINT_LEFT_ELBOW;

  01dc0	c7 05 24 00 00
	00 0a 00 00 00	 mov	 DWORD PTR ?enumJOINT@@3UStrEnumJOINT@@A+36, 10 ; 0000000aH

; 1023 : 	enumJOINT.LEFT_WRIST = JOINT_LEFT_WRIST;

  01dca	c7 05 28 00 00
	00 0b 00 00 00	 mov	 DWORD PTR ?enumJOINT@@3UStrEnumJOINT@@A+40, 11 ; 0000000bH

; 1024 : 	enumJOINT.RIGHT_SHOULDER = JOINT_RIGHT_SHOULDER;

  01dd4	c7 05 2c 00 00
	00 0c 00 00 00	 mov	 DWORD PTR ?enumJOINT@@3UStrEnumJOINT@@A+44, 12 ; 0000000cH

; 1025 : 	enumJOINT.RIGHT_ELBOW = JOINT_RIGHT_ELBOW;

  01dde	c7 05 30 00 00
	00 0d 00 00 00	 mov	 DWORD PTR ?enumJOINT@@3UStrEnumJOINT@@A+48, 13 ; 0000000dH

; 1026 : 	enumJOINT.RIGHT_WRIST = JOINT_RIGHT_WRIST;

  01de8	c7 05 34 00 00
	00 0e 00 00 00	 mov	 DWORD PTR ?enumJOINT@@3UStrEnumJOINT@@A+52, 14 ; 0000000eH

; 1027 : 
; 1028 : //  --------------- LOAD CONSTANTS FOR ENUM STRUCTURE: enumSC----------------------
; 1029 : 	enumSC.NORMAL = SC_NORMAL;

  01df2	c7 05 00 00 00
	00 00 00 00 00	 mov	 DWORD PTR ?enumSC@@3UStrEnumSC@@A, 0

; 1030 : 	enumSC.HALF_WIDTH = SC_HALF_WIDTH;

  01dfc	a3 04 00 00 00	 mov	 DWORD PTR ?enumSC@@3UStrEnumSC@@A+4, eax

; 1031 : 	enumSC.HALF_HEIGHT = SC_HALF_HEIGHT;

  01e01	89 0d 08 00 00
	00		 mov	 DWORD PTR ?enumSC@@3UStrEnumSC@@A+8, ecx

; 1032 : 	enumSC.HALF_SIZE = SC_HALF_SIZE;

  01e07	c7 05 0c 00 00
	00 03 00 00 00	 mov	 DWORD PTR ?enumSC@@3UStrEnumSC@@A+12, 3

; 1033 : 	enumSC.DOUBLE_WIDTH = SC_DOUBLE_WIDTH;

  01e11	89 15 10 00 00
	00		 mov	 DWORD PTR ?enumSC@@3UStrEnumSC@@A+16, edx

; 1034 : 	enumSC.DOUBLE_HEIGHT = SC_DOUBLE_HEIGHT;

  01e17	c7 05 14 00 00
	00 05 00 00 00	 mov	 DWORD PTR ?enumSC@@3UStrEnumSC@@A+20, 5

; 1035 : 	enumSC.DOUBLE_SIZE = SC_DOUBLE_SIZE;

  01e21	c7 05 18 00 00
	00 06 00 00 00	 mov	 DWORD PTR ?enumSC@@3UStrEnumSC@@A+24, 6

; 1036 : 
; 1037 : //  --------------- LOAD CONSTANTS FOR ENUM STRUCTURE: enumSTRING----------------------
; 1038 : 	enumSTRING.NG = STRING_NG;

  01e2b	c7 05 00 00 00
	00 00 80 00 00	 mov	 DWORD PTR ?enumSTRING@@3UStrEnumSTRING@@A, 32768 ; 00008000H

; 1039 : 	enumSTRING.BOTTOM_CENTER = STRING_BOTTOM_CENTER;

  01e35	a3 04 00 00 00	 mov	 DWORD PTR ?enumSTRING@@3UStrEnumSTRING@@A+4, eax

; 1040 : 	enumSTRING.TOP_CENTER = STRING_TOP_CENTER;

  01e3a	89 0d 08 00 00
	00		 mov	 DWORD PTR ?enumSTRING@@3UStrEnumSTRING@@A+8, ecx

; 1041 : 	enumSTRING.CENTER_CENTER = STRING_CENTER_CENTER;

  01e40	c7 05 0c 00 00
	00 03 00 00 00	 mov	 DWORD PTR ?enumSTRING@@3UStrEnumSTRING@@A+12, 3

; 1042 : 	enumSTRING.TOP_LEFT = STRING_TOP_LEFT;

  01e4a	89 15 10 00 00
	00		 mov	 DWORD PTR ?enumSTRING@@3UStrEnumSTRING@@A+16, edx

; 1043 : 	enumSTRING.TOP_RIGHT = STRING_TOP_RIGHT;

  01e50	c7 05 14 00 00
	00 05 00 00 00	 mov	 DWORD PTR ?enumSTRING@@3UStrEnumSTRING@@A+20, 5

; 1044 : 	enumSTRING.BOTTOM_LEFT = STRING_BOTTOM_LEFT;

  01e5a	c7 05 18 00 00
	00 06 00 00 00	 mov	 DWORD PTR ?enumSTRING@@3UStrEnumSTRING@@A+24, 6

; 1045 : 	enumSTRING.BOTTOM_RIGHT = STRING_BOTTOM_RIGHT;

  01e64	c7 05 1c 00 00
	00 07 00 00 00	 mov	 DWORD PTR ?enumSTRING@@3UStrEnumSTRING@@A+28, 7

; 1046 : 	enumSTRING.DOWN_DAMAGE_BAR = STRING_DOWN_DAMAGE_BAR;

  01e6e	89 35 20 00 00
	00		 mov	 DWORD PTR ?enumSTRING@@3UStrEnumSTRING@@A+32, esi

; 1047 : 	enumSTRING.DOWN_COLD_BAR = STRING_DOWN_COLD_BAR;

  01e74	c7 05 24 00 00
	00 09 00 00 00	 mov	 DWORD PTR ?enumSTRING@@3UStrEnumSTRING@@A+36, 9

; 1048 : 	enumSTRING.DOWN_LEFT_BARS = STRING_DOWN_LEFT_BARS;

  01e7e	c7 05 28 00 00
	00 0a 00 00 00	 mov	 DWORD PTR ?enumSTRING@@3UStrEnumSTRING@@A+40, 10 ; 0000000aH

; 1049 : 	enumSTRING.DOWN_RIGHT_BARS = STRING_DOWN_RIGHT_BARS;

  01e88	c7 05 2c 00 00
	00 0b 00 00 00	 mov	 DWORD PTR ?enumSTRING@@3UStrEnumSTRING@@A+44, 11 ; 0000000bH

; 1050 : 
; 1051 : //  --------------- LOAD CONSTANTS FOR ENUM STRUCTURE: enumADD----------------------
; 1052 : 	enumADD.FLAME = ADD_FLAME;

  01e92	a3 00 00 00 00	 mov	 DWORD PTR ?enumADD@@3UStrEnumADD@@A, eax

; 1053 : 	enumADD.SMOKE = ADD_SMOKE;

  01e97	89 0d 04 00 00
	00		 mov	 DWORD PTR ?enumADD@@3UStrEnumADD@@A+4, ecx

; 1054 : 	enumADD.BLOOD = ADD_BLOOD;

  01e9d	c7 05 08 00 00
	00 03 00 00 00	 mov	 DWORD PTR ?enumADD@@3UStrEnumADD@@A+8, 3

; 1055 : 	enumADD.MIST = ADD_MIST;

  01ea7	89 15 0c 00 00
	00		 mov	 DWORD PTR ?enumADD@@3UStrEnumADD@@A+12, edx

; 1056 : 	enumADD.LIGHT_FLAT = ADD_LIGHT_FLAT;

  01ead	c7 05 10 00 00
	00 05 00 00 00	 mov	 DWORD PTR ?enumADD@@3UStrEnumADD@@A+16, 5

; 1057 : 	enumADD.LIGHT_BLINK = ADD_LIGHT_BLINK;

  01eb7	c7 05 14 00 00
	00 06 00 00 00	 mov	 DWORD PTR ?enumADD@@3UStrEnumADD@@A+20, 6

; 1058 : 	enumADD.LIGHT_SPOT = ADD_LIGHT_SPOT;

  01ec1	c7 05 18 00 00
	00 07 00 00 00	 mov	 DWORD PTR ?enumADD@@3UStrEnumADD@@A+24, 7

; 1059 : 	enumADD.LIGHT_GLOVE = ADD_LIGHT_GLOVE;

  01ecb	89 35 1c 00 00
	00		 mov	 DWORD PTR ?enumADD@@3UStrEnumADD@@A+28, esi

; 1060 : 
; 1061 : //  --------------- LOAD CONSTANTS FOR ENUM STRUCTURE: enumENV----------------------
; 1062 : 	enumENV.NO_BLOCK_IN_FRONT = ENV_NO_BLOCK_IN_FRONT;

  01ed1	a3 00 00 00 00	 mov	 DWORD PTR ?enumENV@@3UStrEnumENV@@A, eax

; 1063 : 	enumENV.HANG_WITH_FEET = ENV_HANG_WITH_FEET;

  01ed6	89 0d 04 00 00
	00		 mov	 DWORD PTR ?enumENV@@3UStrEnumENV@@A+4, ecx

; 1064 : 	enumENV.HOLE_FLOOR_IN_FRONT = ENV_HOLE_FLOOR_IN_FRONT;

  01edc	c7 05 08 00 00
	00 03 00 00 00	 mov	 DWORD PTR ?enumENV@@3UStrEnumENV@@A+8, 3

; 1065 : 	enumENV.MONKEY_CEILING = ENV_MONKEY_CEILING;

  01ee6	89 15 0c 00 00
	00		 mov	 DWORD PTR ?enumENV@@3UStrEnumENV@@A+12, edx

; 1066 : 	enumENV.CLIMB_WALL_IN_FRONT = ENV_CLIMB_WALL_IN_FRONT;

  01eec	c7 05 10 00 00
	00 05 00 00 00	 mov	 DWORD PTR ?enumENV@@3UStrEnumENV@@A+16, 5

; 1067 : 	enumENV.CLIMB_WALL_AT_RIGHT = ENV_CLIMB_WALL_AT_RIGHT;

  01ef6	c7 05 14 00 00
	00 06 00 00 00	 mov	 DWORD PTR ?enumENV@@3UStrEnumENV@@A+20, 6

; 1068 : 	enumENV.CLIMB_WALL_AT_LEFT = ENV_CLIMB_WALL_AT_LEFT;

  01f00	c7 05 18 00 00
	00 07 00 00 00	 mov	 DWORD PTR ?enumENV@@3UStrEnumENV@@A+24, 7

; 1069 : 	enumENV.HOLE_IN_FRONT_CEILING_CLIMB = ENV_HOLE_IN_FRONT_CEILING_CLIMB;

  01f0a	89 35 1c 00 00
	00		 mov	 DWORD PTR ?enumENV@@3UStrEnumENV@@A+28, esi

; 1070 : 	enumENV.HOLE_BACK_CEILING_CLIMB = ENV_HOLE_BACK_CEILING_CLIMB;

  01f10	c7 05 20 00 00
	00 09 00 00 00	 mov	 DWORD PTR ?enumENV@@3UStrEnumENV@@A+32, 9

; 1071 : 	enumENV.NO_BLOCK_AT_RIGHT = ENV_NO_BLOCK_AT_RIGHT;

  01f1a	c7 05 24 00 00
	00 0a 00 00 00	 mov	 DWORD PTR ?enumENV@@3UStrEnumENV@@A+36, 10 ; 0000000aH

; 1072 : 	enumENV.NO_BLOCK_AT_LEFT = ENV_NO_BLOCK_AT_LEFT;

  01f24	c7 05 28 00 00
	00 0b 00 00 00	 mov	 DWORD PTR ?enumENV@@3UStrEnumENV@@A+40, 11 ; 0000000bH

; 1073 : 	enumENV.HOLE_FLOOR_AT_RIGHT = ENV_HOLE_FLOOR_AT_RIGHT;

  01f2e	c7 05 2c 00 00
	00 0c 00 00 00	 mov	 DWORD PTR ?enumENV@@3UStrEnumENV@@A+44, 12 ; 0000000cH

; 1074 : 	enumENV.HOLE_FLOOR_AT_LEFT = ENV_HOLE_FLOOR_AT_LEFT;

  01f38	c7 05 30 00 00
	00 0d 00 00 00	 mov	 DWORD PTR ?enumENV@@3UStrEnumENV@@A+48, 13 ; 0000000dH

; 1075 : 	enumENV.HOLE_FLOOR_BACK = ENV_HOLE_FLOOR_BACK;

  01f42	c7 05 34 00 00
	00 0e 00 00 00	 mov	 DWORD PTR ?enumENV@@3UStrEnumENV@@A+52, 14 ; 0000000eH

; 1076 : 	enumENV.NO_BLOCK_BACK = ENV_NO_BLOCK_BACK;

  01f4c	c7 05 38 00 00
	00 0f 00 00 00	 mov	 DWORD PTR ?enumENV@@3UStrEnumENV@@A+56, 15 ; 0000000fH

; 1077 : 	enumENV.CLIMB_WALL_BACK = ENV_CLIMB_WALL_BACK;

  01f56	89 3d 3c 00 00
	00		 mov	 DWORD PTR ?enumENV@@3UStrEnumENV@@A+60, edi

; 1078 : 	enumENV.SUPPORT_IN_FRONT_WALL = ENV_SUPPORT_IN_FRONT_WALL;

  01f5c	c7 05 40 00 00
	00 11 00 00 00	 mov	 DWORD PTR ?enumENV@@3UStrEnumENV@@A+64, 17 ; 00000011H

; 1079 : 	enumENV.SUPPORT_IN_RIGHT_WALL = ENV_SUPPORT_IN_RIGHT_WALL;

  01f66	c7 05 44 00 00
	00 12 00 00 00	 mov	 DWORD PTR ?enumENV@@3UStrEnumENV@@A+68, 18 ; 00000012H

; 1080 : 	enumENV.SUPPORT_IN_LEFT_WALL = ENV_SUPPORT_IN_LEFT_WALL;

  01f70	c7 05 48 00 00
	00 13 00 00 00	 mov	 DWORD PTR ?enumENV@@3UStrEnumENV@@A+72, 19 ; 00000013H

; 1081 : 	enumENV.SUPPORT_IN_BACK_WALL = ENV_SUPPORT_IN_BACK_WALL;

  01f7a	c7 05 4c 00 00
	00 14 00 00 00	 mov	 DWORD PTR ?enumENV@@3UStrEnumENV@@A+76, 20 ; 00000014H

; 1082 : 	enumENV.ITEM_EXTRA_IN_FRONT = ENV_ITEM_EXTRA_IN_FRONT;

  01f84	c7 05 50 00 00
	00 15 00 00 00	 mov	 DWORD PTR ?enumENV@@3UStrEnumENV@@A+80, 21 ; 00000015H

; 1083 : 	enumENV.ITEM_EXTRA_OVER = ENV_ITEM_EXTRA_OVER;

  01f8e	c7 05 54 00 00
	00 16 00 00 00	 mov	 DWORD PTR ?enumENV@@3UStrEnumENV@@A+84, 22 ; 00000016H

; 1084 : 	enumENV.ITEM_EXTRA_UNDER = ENV_ITEM_EXTRA_UNDER;

  01f98	c7 05 58 00 00
	00 17 00 00 00	 mov	 DWORD PTR ?enumENV@@3UStrEnumENV@@A+88, 23 ; 00000017H

; 1085 : 	enumENV.MULT_CONDITION = ENV_MULT_CONDITION;

  01fa2	c7 05 5c 00 00
	00 18 00 00 00	 mov	 DWORD PTR ?enumENV@@3UStrEnumENV@@A+92, 24 ; 00000018H

; 1086 : 	enumENV.HANG_LEFT_IN_CORNER = ENV_HANG_LEFT_IN_CORNER;

  01fac	c7 05 60 00 00
	00 19 00 00 00	 mov	 DWORD PTR ?enumENV@@3UStrEnumENV@@A+96, 25 ; 00000019H

; 1087 : 	enumENV.HANG_LEFT_OUT_CORNER = ENV_HANG_LEFT_OUT_CORNER;

  01fb6	c7 05 64 00 00
	00 1a 00 00 00	 mov	 DWORD PTR ?enumENV@@3UStrEnumENV@@A+100, 26 ; 0000001aH

; 1088 : 	enumENV.HANG_RIGHT_IN_CORNER = ENV_HANG_RIGHT_IN_CORNER;

  01fc0	c7 05 68 00 00
	00 1b 00 00 00	 mov	 DWORD PTR ?enumENV@@3UStrEnumENV@@A+104, 27 ; 0000001bH

; 1089 : 	enumENV.HANG_RIGHT_OUT_CORNER = ENV_HANG_RIGHT_OUT_CORNER;

  01fca	c7 05 6c 00 00
	00 1c 00 00 00	 mov	 DWORD PTR ?enumENV@@3UStrEnumENV@@A+108, 28 ; 0000001cH

; 1090 : 	enumENV.HANG_LEFT_SPACE = ENV_HANG_LEFT_SPACE;

  01fd4	c7 05 70 00 00
	00 1d 00 00 00	 mov	 DWORD PTR ?enumENV@@3UStrEnumENV@@A+112, 29 ; 0000001dH

; 1091 : 	enumENV.HANG_RIGHT_SPACE = ENV_HANG_RIGHT_SPACE;

  01fde	c7 05 74 00 00
	00 1e 00 00 00	 mov	 DWORD PTR ?enumENV@@3UStrEnumENV@@A+116, 30 ; 0000001eH

; 1092 : 	enumENV.DISTANCE_CEILING = ENV_DISTANCE_CEILING;

  01fe8	c7 05 78 00 00
	00 1f 00 00 00	 mov	 DWORD PTR ?enumENV@@3UStrEnumENV@@A+120, 31 ; 0000001fH

; 1093 : 	enumENV.CLIMB_LEFT_IN_CORNER = ENV_CLIMB_LEFT_IN_CORNER;

  01ff2	89 1d 7c 00 00
	00		 mov	 DWORD PTR ?enumENV@@3UStrEnumENV@@A+124, ebx

; 1094 : 	enumENV.CLIMB_LEFT_OUT_CORNER = ENV_CLIMB_LEFT_OUT_CORNER;

  01ff8	c7 05 80 00 00
	00 21 00 00 00	 mov	 DWORD PTR ?enumENV@@3UStrEnumENV@@A+128, 33 ; 00000021H

; 1095 : 	enumENV.CLIMB_RIGHT_IN_CORNER = ENV_CLIMB_RIGHT_IN_CORNER;

  02002	c7 05 84 00 00
	00 22 00 00 00	 mov	 DWORD PTR ?enumENV@@3UStrEnumENV@@A+132, 34 ; 00000022H

; 1096 : 	enumENV.CLIMB_RIGHT_OUT_CORNER = ENV_CLIMB_RIGHT_OUT_CORNER;

  0200c	c7 05 88 00 00
	00 23 00 00 00	 mov	 DWORD PTR ?enumENV@@3UStrEnumENV@@A+136, 35 ; 00000023H

; 1097 : 	enumENV.CLIMB_LEFT_SPACE = ENV_CLIMB_LEFT_SPACE;

  02016	c7 05 8c 00 00
	00 24 00 00 00	 mov	 DWORD PTR ?enumENV@@3UStrEnumENV@@A+140, 36 ; 00000024H

; 1098 : 	enumENV.CLIMB_RIGHT_SPACE = ENV_CLIMB_RIGHT_SPACE;

  02020	c7 05 90 00 00
	00 25 00 00 00	 mov	 DWORD PTR ?enumENV@@3UStrEnumENV@@A+144, 37 ; 00000025H

; 1099 : 	enumENV.MULT_OR_CONDITION = ENV_MULT_OR_CONDITION;

  0202a	c7 05 94 00 00
	00 26 00 00 00	 mov	 DWORD PTR ?enumENV@@3UStrEnumENV@@A+148, 38 ; 00000026H

; 1100 : 	enumENV.DISTANCE_FLOOR = ENV_DISTANCE_FLOOR;

  02034	c7 05 98 00 00
	00 27 00 00 00	 mov	 DWORD PTR ?enumENV@@3UStrEnumENV@@A+152, 39 ; 00000027H

; 1101 : 	enumENV.FRAME_NUMBER = ENV_FRAME_NUMBER;

  0203e	c7 05 9c 00 00
	00 28 00 00 00	 mov	 DWORD PTR ?enumENV@@3UStrEnumENV@@A+156, 40 ; 00000028H

; 1102 : 	enumENV.VERTICAL_ORIENT = ENV_VERTICAL_ORIENT;

  02048	c7 05 a0 00 00
	00 29 00 00 00	 mov	 DWORD PTR ?enumENV@@3UStrEnumENV@@A+160, 41 ; 00000029H

; 1103 : 	enumENV.ON_VEHICLE = ENV_ON_VEHICLE;

  02052	c7 05 a4 00 00
	00 2a 00 00 00	 mov	 DWORD PTR ?enumENV@@3UStrEnumENV@@A+164, 42 ; 0000002aH

; 1104 : 	enumENV.FREE_HANDS = ENV_FREE_HANDS;

  0205c	c7 05 a8 00 00
	00 2b 00 00 00	 mov	 DWORD PTR ?enumENV@@3UStrEnumENV@@A+168, 43 ; 0000002bH

; 1105 : 	enumENV.UNDERWATER = ENV_UNDERWATER;

  02066	c7 05 ac 00 00
	00 2c 00 00 00	 mov	 DWORD PTR ?enumENV@@3UStrEnumENV@@A+172, 44 ; 0000002cH

; 1106 : 	enumENV.FLOATING = ENV_FLOATING;

  02070	c7 05 b0 00 00
	00 2d 00 00 00	 mov	 DWORD PTR ?enumENV@@3UStrEnumENV@@A+176, 45 ; 0000002dH

; 1107 : 	enumENV.ONLAND = ENV_ONLAND;

  0207a	c7 05 b4 00 00
	00 2e 00 00 00	 mov	 DWORD PTR ?enumENV@@3UStrEnumENV@@A+180, 46 ; 0000002eH

; 1108 : 	enumENV.IS_STILL = ENV_IS_STILL;

  02084	c7 05 b8 00 00
	00 2f 00 00 00	 mov	 DWORD PTR ?enumENV@@3UStrEnumENV@@A+184, 47 ; 0000002fH

; 1109 : 	enumENV.ANIM_COMPLETE = ENV_ANIM_COMPLETE;

  0208e	c7 05 bc 00 00
	00 30 00 00 00	 mov	 DWORD PTR ?enumENV@@3UStrEnumENV@@A+188, 48 ; 00000030H

; 1110 : 	enumENV.FLYING_UP = ENV_FLYING_UP;

  02098	c7 05 c0 00 00
	00 31 00 00 00	 mov	 DWORD PTR ?enumENV@@3UStrEnumENV@@A+192, 49 ; 00000031H

; 1111 : 	enumENV.FLYING_DOWN = ENV_FLYING_DOWN;

  020a2	c7 05 c4 00 00
	00 32 00 00 00	 mov	 DWORD PTR ?enumENV@@3UStrEnumENV@@A+196, 50 ; 00000032H

; 1112 : 	enumENV.WALL_HOLE_IN_FRONT = ENV_WALL_HOLE_IN_FRONT;

  020ac	c7 05 c8 00 00
	00 33 00 00 00	 mov	 DWORD PTR ?enumENV@@3UStrEnumENV@@A+200, 51 ; 00000033H

; 1113 : 	enumENV.IN_LEFT_SIDE_SECTOR = ENV_IN_LEFT_SIDE_SECTOR;

  020b6	c7 05 cc 00 00
	00 34 00 00 00	 mov	 DWORD PTR ?enumENV@@3UStrEnumENV@@A+204, 52 ; 00000034H

; 1114 : 	enumENV.IN_RIGHT_SIDE_SECTOR = ENV_IN_RIGHT_SIDE_SECTOR;

  020c0	c7 05 d0 00 00
	00 35 00 00 00	 mov	 DWORD PTR ?enumENV@@3UStrEnumENV@@A+208, 53 ; 00000035H

; 1115 : 	enumENV.ITEM_EXTRA_AT_LEFT = ENV_ITEM_EXTRA_AT_LEFT;

  020ca	c7 05 d4 00 00
	00 36 00 00 00	 mov	 DWORD PTR ?enumENV@@3UStrEnumENV@@A+212, 54 ; 00000036H

; 1116 : 	enumENV.ITEM_EXTRA_AT_RIGHT = ENV_ITEM_EXTRA_AT_RIGHT;

  020d4	c7 05 d8 00 00
	00 37 00 00 00	 mov	 DWORD PTR ?enumENV@@3UStrEnumENV@@A+216, 55 ; 00000037H

; 1117 : 	enumENV.ITEM_TEST_POSITION = ENV_ITEM_TEST_POSITION;

  020de	c7 05 dc 00 00
	00 38 00 00 00	 mov	 DWORD PTR ?enumENV@@3UStrEnumENV@@A+220, 56 ; 00000038H

; 1118 : 	enumENV.HOLD_EXTRA_ITEM_IN_HANDS = ENV_HOLD_EXTRA_ITEM_IN_HANDS;

  020e8	c7 05 e0 00 00
	00 39 00 00 00	 mov	 DWORD PTR ?enumENV@@3UStrEnumENV@@A+224, 57 ; 00000039H

; 1119 : 	enumENV.CONDITION_TRIGGER_GROUP = ENV_CONDITION_TRIGGER_GROUP;

  020f2	c7 05 e4 00 00
	00 3a 00 00 00	 mov	 DWORD PTR ?enumENV@@3UStrEnumENV@@A+228, 58 ; 0000003aH

; 1120 : 	enumENV.ROOM_IS = ENV_ROOM_IS;

  020fc	c7 05 e8 00 00
	00 3b 00 00 00	 mov	 DWORD PTR ?enumENV@@3UStrEnumENV@@A+232, 59 ; 0000003bH

; 1121 : 	enumENV.PLAYER_IS_SLEEPING = ENV_PLAYER_IS_SLEEPING;

  02106	c7 05 ec 00 00
	00 3c 00 00 00	 mov	 DWORD PTR ?enumENV@@3UStrEnumENV@@A+236, 60 ; 0000003cH

; 1122 : 	enumENV.PLAYER_WOKE_UP = ENV_PLAYER_WOKE_UP;

  02110	c7 05 f0 00 00
	00 3d 00 00 00	 mov	 DWORD PTR ?enumENV@@3UStrEnumENV@@A+240, 61 ; 0000003dH

; 1123 : 	enumENV.DISTANCE_NORTH_WALL = ENV_DISTANCE_NORTH_WALL;

  0211a	c7 05 f4 00 00
	00 3e 00 00 00	 mov	 DWORD PTR ?enumENV@@3UStrEnumENV@@A+244, 62 ; 0000003eH

; 1124 : 	enumENV.DISTANCE_SOUTH_WALL = ENV_DISTANCE_SOUTH_WALL;

  02124	c7 05 f8 00 00
	00 3f 00 00 00	 mov	 DWORD PTR ?enumENV@@3UStrEnumENV@@A+248, 63 ; 0000003fH

; 1125 : 	enumENV.DISTANCE_EAST_WALL = ENV_DISTANCE_EAST_WALL;

  0212e	c7 05 fc 00 00
	00 40 00 00 00	 mov	 DWORD PTR ?enumENV@@3UStrEnumENV@@A+252, 64 ; 00000040H

; 1126 : 	enumENV.DISTANCE_WEST_WALL = ENV_DISTANCE_WEST_WALL;

  02138	c7 05 00 01 00
	00 41 00 00 00	 mov	 DWORD PTR ?enumENV@@3UStrEnumENV@@A+256, 65 ; 00000041H

; 1127 : 	enumENV.LARA_IN_MICRO_STRIP = ENV_LARA_IN_MICRO_STRIP;

  02142	c7 05 04 01 00
	00 42 00 00 00	 mov	 DWORD PTR ?enumENV@@3UStrEnumENV@@A+260, 66 ; 00000042H

; 1128 : 	enumENV.NO_BOX_IN_FRONT = ENV_NO_BOX_IN_FRONT;

  0214c	c7 05 08 01 00
	00 43 00 00 00	 mov	 DWORD PTR ?enumENV@@3UStrEnumENV@@A+264, 67 ; 00000043H

; 1129 : 	enumENV.NO_BOX_AT_LEFT = ENV_NO_BOX_AT_LEFT;

  02156	c7 05 0c 01 00
	00 44 00 00 00	 mov	 DWORD PTR ?enumENV@@3UStrEnumENV@@A+268, 68 ; 00000044H

; 1130 : 	enumENV.NO_BOX_AT_RIGHT = ENV_NO_BOX_AT_RIGHT;

  02160	c7 05 10 01 00
	00 45 00 00 00	 mov	 DWORD PTR ?enumENV@@3UStrEnumENV@@A+272, 69 ; 00000045H

; 1131 : 	enumENV.NO_BOX_BACK = ENV_NO_BOX_BACK;

  0216a	c7 05 14 01 00
	00 46 00 00 00	 mov	 DWORD PTR ?enumENV@@3UStrEnumENV@@A+276, 70 ; 00000046H

; 1132 : 	enumENV.ENEMY_SEE_LARA = ENV_ENEMY_SEE_LARA;

  02174	c7 05 18 01 00
	00 47 00 00 00	 mov	 DWORD PTR ?enumENV@@3UStrEnumENV@@A+280, 71 ; 00000047H

; 1133 : 	enumENV.FRAME_RANGE = ENV_FRAME_RANGE;

  0217e	c7 05 1c 01 00
	00 48 00 00 00	 mov	 DWORD PTR ?enumENV@@3UStrEnumENV@@A+284, 72 ; 00000048H

; 1134 : 	enumENV.NON_TRUE = ENV_NON_TRUE;

  02188	c7 05 20 01 00
	00 80 00 00 00	 mov	 DWORD PTR ?enumENV@@3UStrEnumENV@@A+288, 128 ; 00000080H

; 1135 : 	enumENV.POS_LEFT_CORNER = ENV_POS_LEFT_CORNER;

  02192	c7 05 24 01 00
	00 00 01 00 00	 mov	 DWORD PTR ?enumENV@@3UStrEnumENV@@A+292, 256 ; 00000100H

; 1136 : 	enumENV.POS_RIGHT_CORNER = ENV_POS_RIGHT_CORNER;

  0219c	c7 05 28 01 00
	00 00 02 00 00	 mov	 DWORD PTR ?enumENV@@3UStrEnumENV@@A+296, 512 ; 00000200H

; 1137 : 	enumENV.POS_CENTRAL = ENV_POS_CENTRAL;

  021a6	c7 05 2c 01 00
	00 00 04 00 00	 mov	 DWORD PTR ?enumENV@@3UStrEnumENV@@A+300, 1024 ; 00000400H

; 1138 : 	enumENV.POS_HORTOGONAL = ENV_POS_HORTOGONAL;

  021b0	c7 05 30 01 00
	00 00 08 00 00	 mov	 DWORD PTR ?enumENV@@3UStrEnumENV@@A+304, 2048 ; 00000800H

; 1139 : 	enumENV.POS_IN_THE_MIDDLE = ENV_POS_IN_THE_MIDDLE;

  021ba	c7 05 34 01 00
	00 00 10 00 00	 mov	 DWORD PTR ?enumENV@@3UStrEnumENV@@A+308, 4096 ; 00001000H

; 1140 : 	enumENV.POS_STRIP_3 = ENV_POS_STRIP_3;

  021c4	c7 05 38 01 00
	00 00 20 00 00	 mov	 DWORD PTR ?enumENV@@3UStrEnumENV@@A+312, 8192 ; 00002000H

; 1141 : 	enumENV.POS_STRIP_2 = ENV_POS_STRIP_2;

  021ce	c7 05 3c 01 00
	00 00 40 00 00	 mov	 DWORD PTR ?enumENV@@3UStrEnumENV@@A+316, 16384 ; 00004000H

; 1142 : 	enumENV.POS_STRIP_1 = ENV_POS_STRIP_1;

  021d8	c7 05 40 01 00
	00 00 80 00 00	 mov	 DWORD PTR ?enumENV@@3UStrEnumENV@@A+320, 32768 ; 00008000H

; 1143 : 	enumENV.MASK_CONDITION = ENV_MASK_CONDITION;

  021e2	c7 05 44 01 00
	00 7f 00 00 00	 mov	 DWORD PTR ?enumENV@@3UStrEnumENV@@A+324, 127 ; 0000007fH

; 1144 : 	enumENV.MASK_FLAGS = ENV_MASK_FLAGS;

  021ec	c7 05 48 01 00
	00 80 ff 00 00	 mov	 DWORD PTR ?enumENV@@3UStrEnumENV@@A+328, 65408 ; 0000ff80H

; 1145 : 
; 1146 : //  --------------- LOAD CONSTANTS FOR ENUM STRUCTURE: enumCBT----------------------
; 1147 : 	enumCBT.FIRST = CBT_FIRST;

  021f6	a3 00 00 00 00	 mov	 DWORD PTR ?enumCBT@@3UStrEnumCBT@@A, eax

; 1148 : 	enumCBT.AFTER = CBT_AFTER;

  021fb	89 0d 04 00 00
	00		 mov	 DWORD PTR ?enumCBT@@3UStrEnumCBT@@A+4, ecx

; 1149 : 	enumCBT.REPLACE = CBT_REPLACE;

  02201	89 15 08 00 00
	00		 mov	 DWORD PTR ?enumCBT@@3UStrEnumCBT@@A+8, edx

; 1150 : 	enumCBT.ASM = CBT_ASM;

  02207	89 35 0c 00 00
	00		 mov	 DWORD PTR ?enumCBT@@3UStrEnumCBT@@A+12, esi

; 1151 : 	enumCBT.PRESENT = CBT_PRESENT;

  0220d	89 3d 10 00 00
	00		 mov	 DWORD PTR ?enumCBT@@3UStrEnumCBT@@A+16, edi

; 1152 : 	enumCBT.LOOPED = CBT_LOOPED;

  02213	89 1d 14 00 00
	00		 mov	 DWORD PTR ?enumCBT@@3UStrEnumCBT@@A+20, ebx

; 1153 : 	enumCBT.ANY = CBT_ANY;

  02219	c7 05 18 00 00
	00 ff ff 00 00	 mov	 DWORD PTR ?enumCBT@@3UStrEnumCBT@@A+24, 65535 ; 0000ffffH

; 1154 : 
; 1155 : //  --------------- LOAD CONSTANTS FOR ENUM STRUCTURE: enumFAN----------------------
; 1156 : 	enumFAN.MASK_FPS_UV = FAN_MASK_FPS_UV;

  02223	c7 05 00 00 00
	00 00 1f 00 00	 mov	 DWORD PTR ?enumFAN@@3UStrEnumFAN@@A, 7936 ; 00001f00H

; 1157 : 	enumFAN.MASK_UVROTATE = FAN_MASK_UVROTATE;

  0222d	c7 05 04 00 00
	00 ff 00 00 00	 mov	 DWORD PTR ?enumFAN@@3UStrEnumFAN@@A+4, 255 ; 000000ffH

; 1158 : 	enumFAN.MASK_DELAY = FAN_MASK_DELAY;

  02237	c7 05 08 00 00
	00 ff 1f 00 00	 mov	 DWORD PTR ?enumFAN@@3UStrEnumFAN@@A+8, 8191 ; 00001fffH

; 1159 : 	enumFAN.MASK_ANIM = FAN_MASK_ANIM;

  02241	c7 05 0c 00 00
	00 00 e0 00 00	 mov	 DWORD PTR ?enumFAN@@3UStrEnumFAN@@A+12, 57344 ; 0000e000H

; 1160 : 	enumFAN.FRAMES = FAN_FRAMES;

  0224b	c7 05 10 00 00
	00 00 00 00 00	 mov	 DWORD PTR ?enumFAN@@3UStrEnumFAN@@A+16, 0

; 1161 : 	enumFAN.P_FRAMES = FAN_P_FRAMES;

  02255	c7 05 14 00 00
	00 00 40 00 00	 mov	 DWORD PTR ?enumFAN@@3UStrEnumFAN@@A+20, 16384 ; 00004000H

; 1162 : 	enumFAN.FULL_ROTATE = FAN_FULL_ROTATE;

  0225f	c7 05 18 00 00
	00 00 80 00 00	 mov	 DWORD PTR ?enumFAN@@3UStrEnumFAN@@A+24, 32768 ; 00008000H

; 1163 : 	enumFAN.RIVER_ROTATE = FAN_RIVER_ROTATE;

  02269	c7 05 1c 00 00
	00 00 a0 00 00	 mov	 DWORD PTR ?enumFAN@@3UStrEnumFAN@@A+28, 40960 ; 0000a000H

; 1164 : 	enumFAN.HALF_ROTATE = FAN_HALF_ROTATE;

  02273	c7 05 20 00 00
	00 00 c0 00 00	 mov	 DWORD PTR ?enumFAN@@3UStrEnumFAN@@A+32, 49152 ; 0000c000H

; 1165 : 	enumFAN.ANY_ROTATE = FAN_ANY_ROTATE;

  0227d	c7 05 24 00 00
	00 00 80 00 00	 mov	 DWORD PTR ?enumFAN@@3UStrEnumFAN@@A+36, 32768 ; 00008000H

; 1166 : 	enumFAN.SET_FREE_HANDS = FAN_SET_FREE_HANDS;

  02287	a3 28 00 00 00	 mov	 DWORD PTR ?enumFAN@@3UStrEnumFAN@@A+40, eax

; 1167 : 	enumFAN.START_FROM_EXTRA_FRAME = FAN_START_FROM_EXTRA_FRAME;

  0228c	89 0d 2c 00 00
	00		 mov	 DWORD PTR ?enumFAN@@3UStrEnumFAN@@A+44, ecx

; 1168 : 	enumFAN.SET_NEUTRAL_STATE_ID = FAN_SET_NEUTRAL_STATE_ID;

  02292	89 15 30 00 00
	00		 mov	 DWORD PTR ?enumFAN@@3UStrEnumFAN@@A+48, edx

; 1169 : 	enumFAN.KEYS_AS_SCANCODE = FAN_KEYS_AS_SCANCODE;

  02298	89 35 34 00 00
	00		 mov	 DWORD PTR ?enumFAN@@3UStrEnumFAN@@A+52, esi

; 1170 : 	enumFAN.DISABLE_PUSH_AWAY = FAN_DISABLE_PUSH_AWAY;

  0229e	89 3d 38 00 00
	00		 mov	 DWORD PTR ?enumFAN@@3UStrEnumFAN@@A+56, edi

; 1171 : 	enumFAN.KEEP_NEXT_STATEID = FAN_KEEP_NEXT_STATEID;

  022a4	89 1d 3c 00 00
	00		 mov	 DWORD PTR ?enumFAN@@3UStrEnumFAN@@A+60, ebx

; 1172 : 	enumFAN.ENABLE_GRAVITY = FAN_ENABLE_GRAVITY;

  022aa	c7 05 40 00 00
	00 40 00 00 00	 mov	 DWORD PTR ?enumFAN@@3UStrEnumFAN@@A+64, 64 ; 00000040H

; 1173 : 	enumFAN.DISABLE_GRAVITY = FAN_DISABLE_GRAVITY;

  022b4	c7 05 44 00 00
	00 80 00 00 00	 mov	 DWORD PTR ?enumFAN@@3UStrEnumFAN@@A+68, 128 ; 00000080H

; 1174 : 	enumFAN.PERFORM_TRIGGER_GROUP = FAN_PERFORM_TRIGGER_GROUP;

  022be	c7 05 48 00 00
	00 00 01 00 00	 mov	 DWORD PTR ?enumFAN@@3UStrEnumFAN@@A+72, 256 ; 00000100H

; 1175 : 	enumFAN.SET_FREE_HANDS_TEMP = FAN_SET_FREE_HANDS_TEMP;

  022c8	c7 05 4c 00 00
	00 00 02 00 00	 mov	 DWORD PTR ?enumFAN@@3UStrEnumFAN@@A+76, 512 ; 00000200H

; 1176 : 	enumFAN.SET_BUSY_HANDS = FAN_SET_BUSY_HANDS;

  022d2	c7 05 50 00 00
	00 00 04 00 00	 mov	 DWORD PTR ?enumFAN@@3UStrEnumFAN@@A+80, 1024 ; 00000400H

; 1177 : 	enumFAN.ALIGN_TO_ENV_POS = FAN_ALIGN_TO_ENV_POS;

  022dc	c7 05 54 00 00
	00 00 08 00 00	 mov	 DWORD PTR ?enumFAN@@3UStrEnumFAN@@A+84, 2048 ; 00000800H

; 1178 : 	enumFAN.SET_ADDEFFECT = FAN_SET_ADDEFFECT;

  022e6	c7 05 58 00 00
	00 00 10 00 00	 mov	 DWORD PTR ?enumFAN@@3UStrEnumFAN@@A+88, 4096 ; 00001000H

; 1179 : 	enumFAN.RANDOM = FAN_RANDOM;

  022f0	c7 05 5c 00 00
	00 00 20 00 00	 mov	 DWORD PTR ?enumFAN@@3UStrEnumFAN@@A+92, 8192 ; 00002000H

; 1180 : 	enumFAN.SET_LARA_PLACE = FAN_SET_LARA_PLACE;

  022fa	c7 05 60 00 00
	00 00 40 00 00	 mov	 DWORD PTR ?enumFAN@@3UStrEnumFAN@@A+96, 16384 ; 00004000H

; 1181 : 
; 1182 : //  --------------- LOAD CONSTANTS FOR ENUM STRUCTURE: enumFLH----------------------
; 1183 : 	enumFLH.ALMOST_FREE_HANDS = FLH_ALMOST_FREE_HANDS;

  02304	c7 05 00 00 00
	00 00 00 00 00	 mov	 DWORD PTR ?enumFLH@@3UStrEnumFLH@@A, 0

; 1184 : 	enumFLH.IS_GRABBING = FLH_IS_GRABBING;

  0230e	a3 04 00 00 00	 mov	 DWORD PTR ?enumFLH@@3UStrEnumFLH@@A+4, eax

; 1185 : 	enumFLH.IS_EXTRACTING = FLH_IS_EXTRACTING;

  02313	89 0d 08 00 00
	00		 mov	 DWORD PTR ?enumFLH@@3UStrEnumFLH@@A+8, ecx

; 1186 : 	enumFLH.IS_THROWING = FLH_IS_THROWING;

  02319	c7 05 0c 00 00
	00 03 00 00 00	 mov	 DWORD PTR ?enumFLH@@3UStrEnumFLH@@A+12, 3

; 1187 : 	enumFLH.HOLDS_ITEM = FLH_HOLDS_ITEM;

  02323	89 15 10 00 00
	00		 mov	 DWORD PTR ?enumFLH@@3UStrEnumFLH@@A+16, edx

; 1188 : 
; 1189 : //  --------------- LOAD CONSTANTS FOR ENUM STRUCTURE: enumCMD----------------------
; 1190 : 	enumCMD.ALL = CMD_ALL;

  02329	c7 05 00 00 00
	00 ff ff ff ff	 mov	 DWORD PTR ?enumCMD@@3UStrEnumCMD@@A, -1

; 1191 : 	enumCMD.UP = CMD_UP;

  02333	a3 04 00 00 00	 mov	 DWORD PTR ?enumCMD@@3UStrEnumCMD@@A+4, eax

; 1192 : 	enumCMD.DOWN = CMD_DOWN;

  02338	89 0d 08 00 00
	00		 mov	 DWORD PTR ?enumCMD@@3UStrEnumCMD@@A+8, ecx

; 1193 : 	enumCMD.LEFT = CMD_LEFT;

  0233e	89 15 0c 00 00
	00		 mov	 DWORD PTR ?enumCMD@@3UStrEnumCMD@@A+12, edx

; 1194 : 	enumCMD.RIGHT = CMD_RIGHT;

  02344	89 35 10 00 00
	00		 mov	 DWORD PTR ?enumCMD@@3UStrEnumCMD@@A+16, esi

; 1195 : 	enumCMD.DUCK = CMD_DUCK;

  0234a	c7 05 14 00 00
	00 00 00 00 20	 mov	 DWORD PTR ?enumCMD@@3UStrEnumCMD@@A+20, 536870912 ; 20000000H

; 1196 : 	enumCMD.DASH = CMD_DASH;

  02354	c7 05 18 00 00
	00 00 00 00 40	 mov	 DWORD PTR ?enumCMD@@3UStrEnumCMD@@A+24, 1073741824 ; 40000000H

; 1197 : 	enumCMD.WALK = CMD_WALK;

  0235e	c7 05 1c 00 00
	00 80 00 00 00	 mov	 DWORD PTR ?enumCMD@@3UStrEnumCMD@@A+28, 128 ; 00000080H

; 1198 : 	enumCMD.JUMP = CMD_JUMP;

  02368	89 3d 20 00 00
	00		 mov	 DWORD PTR ?enumCMD@@3UStrEnumCMD@@A+32, edi

; 1199 : 	enumCMD.ACTION = CMD_ACTION;

  0236e	c7 05 24 00 00
	00 40 00 00 00	 mov	 DWORD PTR ?enumCMD@@3UStrEnumCMD@@A+36, 64 ; 00000040H

; 1200 : 	enumCMD.DRAW_WEAPON = CMD_DRAW_WEAPON;

  02378	89 1d 28 00 00
	00		 mov	 DWORD PTR ?enumCMD@@3UStrEnumCMD@@A+40, ebx

; 1201 : 	enumCMD.USE_FLARE = CMD_USE_FLARE;

  0237e	c7 05 2c 00 00
	00 00 00 08 00	 mov	 DWORD PTR ?enumCMD@@3UStrEnumCMD@@A+44, 524288 ; 00080000H

; 1202 : 	enumCMD.LOOK = CMD_LOOK;

  02388	c7 05 30 00 00
	00 00 02 00 00	 mov	 DWORD PTR ?enumCMD@@3UStrEnumCMD@@A+48, 512 ; 00000200H

; 1203 : 	enumCMD.ROLL = CMD_ROLL;

  02392	c7 05 34 00 00
	00 00 10 00 00	 mov	 DWORD PTR ?enumCMD@@3UStrEnumCMD@@A+52, 4096 ; 00001000H

; 1204 : 	enumCMD.INVENTORY = CMD_INVENTORY;

  0239c	c7 05 38 00 00
	00 00 01 20 00	 mov	 DWORD PTR ?enumCMD@@3UStrEnumCMD@@A+56, 2097408 ; 00200100H

; 1205 : 	enumCMD.STEP_LEFT = CMD_STEP_LEFT;

  023a6	c7 05 3c 00 00
	00 80 04 00 00	 mov	 DWORD PTR ?enumCMD@@3UStrEnumCMD@@A+60, 1152 ; 00000480H

; 1206 : 	enumCMD.STEP_RIGHT = CMD_STEP_RIGHT;

  023b0	c7 05 40 00 00
	00 80 08 00 00	 mov	 DWORD PTR ?enumCMD@@3UStrEnumCMD@@A+64, 2176 ; 00000880H

; 1207 : 	enumCMD.PAUSE = CMD_PAUSE;

  023ba	c7 05 44 00 00
	00 00 20 00 00	 mov	 DWORD PTR ?enumCMD@@3UStrEnumCMD@@A+68, 8192 ; 00002000H

; 1208 : 	enumCMD.SAVE_GAME = CMD_SAVE_GAME;

  023c4	c7 05 48 00 00
	00 00 00 40 00	 mov	 DWORD PTR ?enumCMD@@3UStrEnumCMD@@A+72, 4194304 ; 00400000H

; 1209 : 	enumCMD.LOAD_GAME = CMD_LOAD_GAME;

  023ce	c7 05 4c 00 00
	00 00 00 80 00	 mov	 DWORD PTR ?enumCMD@@3UStrEnumCMD@@A+76, 8388608 ; 00800000H

; 1210 : 	enumCMD.WEAPON_KEYS = CMD_WEAPON_KEYS;

  023d8	c7 05 50 00 00
	00 00 00 00 10	 mov	 DWORD PTR ?enumCMD@@3UStrEnumCMD@@A+80, 268435456 ; 10000000H

; 1211 : 	enumCMD.ENTER = CMD_ENTER;

  023e2	c7 05 54 00 00
	00 00 00 10 00	 mov	 DWORD PTR ?enumCMD@@3UStrEnumCMD@@A+84, 1048576 ; 00100000H

; 1212 : 
; 1213 : //  --------------- LOAD CONSTANTS FOR ENUM STRUCTURE: enumSRV----------------------
; 1214 : 	enumSRV.PERFORM_FLIPEFFECT = SRV_PERFORM_FLIPEFFECT;

  023ec	c7 05 00 00 00
	00 00 00 00 00	 mov	 DWORD PTR ?enumSRV@@3UStrEnumSRV@@A, 0

; 1215 : 	enumSRV.PERFORM_ACTION = SRV_PERFORM_ACTION;

  023f6	a3 04 00 00 00	 mov	 DWORD PTR ?enumSRV@@3UStrEnumSRV@@A+4, eax

; 1216 : 	enumSRV.PERFORM_CONDITION = SRV_PERFORM_CONDITION;

  023fb	89 0d 08 00 00
	00		 mov	 DWORD PTR ?enumSRV@@3UStrEnumSRV@@A+8, ecx

; 1217 : 	enumSRV.PERFORM_TRIGGERGROUP_ID = SRV_PERFORM_TRIGGERGROUP_ID;

  02401	c7 05 0c 00 00
	00 03 00 00 00	 mov	 DWORD PTR ?enumSRV@@3UStrEnumSRV@@A+12, 3

; 1218 : 	enumSRV.PERFORM_EXPORTED_TRIGGER = SRV_PERFORM_EXPORTED_TRIGGER;

  0240b	89 15 10 00 00
	00		 mov	 DWORD PTR ?enumSRV@@3UStrEnumSRV@@A+16, edx

; 1219 : 	enumSRV.CREATE_TRIGGERGROUP = SRV_CREATE_TRIGGERGROUP;

  02411	c7 05 14 00 00
	00 05 00 00 00	 mov	 DWORD PTR ?enumSRV@@3UStrEnumSRV@@A+20, 5

; 1220 : 	enumSRV.CREATE_ANIMATION = SRV_CREATE_ANIMATION;

  0241b	c7 05 18 00 00
	00 07 00 00 00	 mov	 DWORD PTR ?enumSRV@@3UStrEnumSRV@@A+24, 7

; 1221 : 	enumSRV.CREATE_ANIMATIONSLOT = SRV_CREATE_ANIMATIONSLOT;

  02425	89 35 1c 00 00
	00		 mov	 DWORD PTR ?enumSRV@@3UStrEnumSRV@@A+28, esi

; 1222 : 	enumSRV.CREATE_MULTENVCONDITION = SRV_CREATE_MULTENVCONDITION;

  0242b	c7 05 20 00 00
	00 09 00 00 00	 mov	 DWORD PTR ?enumSRV@@3UStrEnumSRV@@A+32, 9

; 1223 : 	enumSRV.CREATE_TESTPOSITION = SRV_CREATE_TESTPOSITION;

  02435	c7 05 24 00 00
	00 0a 00 00 00	 mov	 DWORD PTR ?enumSRV@@3UStrEnumSRV@@A+36, 10 ; 0000000aH

; 1224 : 	enumSRV.CREATE_ADDEFFECT = SRV_CREATE_ADDEFFECT;

  0243f	c7 05 28 00 00
	00 0c 00 00 00	 mov	 DWORD PTR ?enumSRV@@3UStrEnumSRV@@A+40, 12 ; 0000000cH

; 1225 : 	enumSRV.SetReservedDataZone = SRV_SetReservedDataZone;

  02449	c7 05 2c 00 00
	00 0d 00 00 00	 mov	 DWORD PTR ?enumSRV@@3UStrEnumSRV@@A+44, 13 ; 0000000dH

; 1226 : 	enumSRV.F_ProporzioneDistanza = SRV_F_ProporzioneDistanza;

  02453	c7 05 30 00 00
	00 0e 00 00 00	 mov	 DWORD PTR ?enumSRV@@3UStrEnumSRV@@A+48, 14 ; 0000000eH

; 1227 : 	enumSRV.F_EseguiTriggerGroup = SRV_F_EseguiTriggerGroup;

  0245d	c7 05 34 00 00
	00 0f 00 00 00	 mov	 DWORD PTR ?enumSRV@@3UStrEnumSRV@@A+52, 15 ; 0000000fH

; 1228 : 	enumSRV.F_DetectedGlobalTriggerEvent = SRV_F_DetectedGlobalTriggerEvent;

  02467	89 3d 38 00 00
	00		 mov	 DWORD PTR ?enumSRV@@3UStrEnumSRV@@A+56, edi

; 1229 : 	enumSRV.F_InviaErroreLog = SRV_F_InviaErroreLog;

  0246d	c7 05 3c 00 00
	00 11 00 00 00	 mov	 DWORD PTR ?enumSRV@@3UStrEnumSRV@@A+60, 17 ; 00000011H

; 1230 : 	enumSRV.CREATE_PARAM_COMMAND = SRV_CREATE_PARAM_COMMAND;

  02477	c7 05 40 00 00
	00 12 00 00 00	 mov	 DWORD PTR ?enumSRV@@3UStrEnumSRV@@A+64, 18 ; 00000012H

; 1231 : 	enumSRV.F_TestEnvCondition = SRV_F_TestEnvCondition;

  02481	c7 05 44 00 00
	00 13 00 00 00	 mov	 DWORD PTR ?enumSRV@@3UStrEnumSRV@@A+68, 19 ; 00000013H

; 1232 : 	enumSRV.F_IsBoxSettore = SRV_F_IsBoxSettore;

  0248b	c7 05 48 00 00
	00 14 00 00 00	 mov	 DWORD PTR ?enumSRV@@3UStrEnumSRV@@A+72, 20 ; 00000014H

; 1233 : 	enumSRV.F_VerificaTestPosition = SRV_F_VerificaTestPosition;

  02495	c7 05 4c 00 00
	00 15 00 00 00	 mov	 DWORD PTR ?enumSRV@@3UStrEnumSRV@@A+76, 21 ; 00000015H

; 1234 : 	enumSRV.F_CollideItemConCustom = SRV_F_CollideItemConCustom;

  0249f	c7 05 50 00 00
	00 16 00 00 00	 mov	 DWORD PTR ?enumSRV@@3UStrEnumSRV@@A+80, 22 ; 00000016H

; 1235 : 	enumSRV.F_IsCollisioneConItems = SRV_F_IsCollisioneConItems;

  024a9	c7 05 54 00 00
	00 17 00 00 00	 mov	 DWORD PTR ?enumSRV@@3UStrEnumSRV@@A+84, 23 ; 00000017H

; 1236 : 	enumSRV.F_InviaLog = SRV_F_InviaLog;

  024b3	c7 05 58 00 00
	00 18 00 00 00	 mov	 DWORD PTR ?enumSRV@@3UStrEnumSRV@@A+88, 24 ; 00000018H

; 1237 : 	enumSRV.F_EseguiAnimNemico = SRV_F_EseguiAnimNemico;

  024bd	c7 05 5c 00 00
	00 19 00 00 00	 mov	 DWORD PTR ?enumSRV@@3UStrEnumSRV@@A+92, 25 ; 00000019H

; 1238 : 	enumSRV.F_CreateAIRecord = SRV_F_CreateAIRecord;

  024c7	c7 05 60 00 00
	00 1a 00 00 00	 mov	 DWORD PTR ?enumSRV@@3UStrEnumSRV@@A+96, 26 ; 0000001aH

; 1239 : 	enumSRV.F_DeleteAIRecord = SRV_F_DeleteAIRecord;

  024d1	c7 05 64 00 00
	00 1b 00 00 00	 mov	 DWORD PTR ?enumSRV@@3UStrEnumSRV@@A+100, 27 ; 0000001bH

; 1240 : 	enumSRV.F_CreateNewMoveable = SRV_F_CreateNewMoveable;

  024db	c7 05 68 00 00
	00 1c 00 00 00	 mov	 DWORD PTR ?enumSRV@@3UStrEnumSRV@@A+104, 28 ; 0000001cH

; 1241 : 	enumSRV.F_DeleteNewMoveable = SRV_F_DeleteNewMoveable;

  024e5	c7 05 6c 00 00
	00 1d 00 00 00	 mov	 DWORD PTR ?enumSRV@@3UStrEnumSRV@@A+108, 29 ; 0000001dH

; 1242 : 	enumSRV.CREATE_COLOR_RGB_COMMAND = SRV_CREATE_COLOR_RGB_COMMAND;

  024ef	c7 05 70 00 00
	00 1e 00 00 00	 mov	 DWORD PTR ?enumSRV@@3UStrEnumSRV@@A+112, 30 ; 0000001eH

; 1243 : 	enumSRV.DeleteParamCommand = SRV_DeleteParamCommand;

  024f9	c7 05 74 00 00
	00 1f 00 00 00	 mov	 DWORD PTR ?enumSRV@@3UStrEnumSRV@@A+116, 31 ; 0000001fH

; 1244 : 	enumSRV.DeleteTriggerGroup = SRV_DeleteTriggerGroup;

  02503	89 1d 78 00 00
	00		 mov	 DWORD PTR ?enumSRV@@3UStrEnumSRV@@A+120, ebx

; 1245 : 	enumSRV.DeleteColorRgb = SRV_DeleteColorRgb;

  02509	c7 05 7c 00 00
	00 21 00 00 00	 mov	 DWORD PTR ?enumSRV@@3UStrEnumSRV@@A+124, 33 ; 00000021H

; 1246 : 	enumSRV.DeleteMultEnvCondition = SRV_DeleteMultEnvCondition;

  02513	c7 05 80 00 00
	00 22 00 00 00	 mov	 DWORD PTR ?enumSRV@@3UStrEnumSRV@@A+128, 34 ; 00000022H

; 1247 : 	enumSRV.DeleteTestPosition = SRV_DeleteTestPosition;

  0251d	c7 05 84 00 00
	00 23 00 00 00	 mov	 DWORD PTR ?enumSRV@@3UStrEnumSRV@@A+132, 35 ; 00000023H

; 1248 : 	enumSRV.DeleteAddEffect = SRV_DeleteAddEffect;

  02527	c7 05 88 00 00
	00 24 00 00 00	 mov	 DWORD PTR ?enumSRV@@3UStrEnumSRV@@A+136, 36 ; 00000024H

; 1249 : 	enumSRV.F_DisableSaving = SRV_F_DisableSaving;

  02531	c7 05 8c 00 00
	00 25 00 00 00	 mov	 DWORD PTR ?enumSRV@@3UStrEnumSRV@@A+140, 37 ; 00000025H

; 1250 : 	enumSRV.F_AggiungiItemMosso = SRV_F_AggiungiItemMosso;

  0253b	c7 05 90 00 00
	00 26 00 00 00	 mov	 DWORD PTR ?enumSRV@@3UStrEnumSRV@@A+144, 38 ; 00000026H

; 1251 : 	enumSRV.F_CheckForStartMovePushable = SRV_F_CheckForStartMovePushable;

  02545	c7 05 94 00 00
	00 27 00 00 00	 mov	 DWORD PTR ?enumSRV@@3UStrEnumSRV@@A+148, 39 ; 00000027H

; 1252 : 	enumSRV.F_CheckForEndMovePushable = SRV_F_CheckForEndMovePushable;

  0254f	c7 05 98 00 00
	00 28 00 00 00	 mov	 DWORD PTR ?enumSRV@@3UStrEnumSRV@@A+152, 40 ; 00000028H

; 1253 : 	enumSRV.F_ExplosionOnVehicle = SRV_F_ExplosionOnVehicle;

  02559	c7 05 9c 00 00
	00 29 00 00 00	 mov	 DWORD PTR ?enumSRV@@3UStrEnumSRV@@A+156, 41 ; 00000029H

; 1254 : 	enumSRV.F_ConvertMicroUnits = SRV_F_ConvertMicroUnits;

  02563	c7 05 a0 00 00
	00 2a 00 00 00	 mov	 DWORD PTR ?enumSRV@@3UStrEnumSRV@@A+160, 42 ; 0000002aH

; 1255 : 	enumSRV.F_AllocateImage = SRV_F_AllocateImage;

  0256d	c7 05 a4 00 00
	00 2b 00 00 00	 mov	 DWORD PTR ?enumSRV@@3UStrEnumSRV@@A+164, 43 ; 0000002bH

; 1256 : 	enumSRV.F_FreeImage = SRV_F_FreeImage;

  02577	c7 05 a8 00 00
	00 2c 00 00 00	 mov	 DWORD PTR ?enumSRV@@3UStrEnumSRV@@A+168, 44 ; 0000002cH

; 1257 : 	enumSRV.F_AllocateTombHdc = SRV_F_AllocateTombHdc;

  02581	c7 05 ac 00 00
	00 2d 00 00 00	 mov	 DWORD PTR ?enumSRV@@3UStrEnumSRV@@A+172, 45 ; 0000002dH

; 1258 : 	enumSRV.F_FreeTombHdc = SRV_F_FreeTombHdc;

  0258b	c7 05 b0 00 00
	00 2e 00 00 00	 mov	 DWORD PTR ?enumSRV@@3UStrEnumSRV@@A+176, 46 ; 0000002eH

; 1259 : 	enumSRV.F_DrawSprite2D = SRV_F_DrawSprite2D;

  02595	c7 05 b4 00 00
	00 2f 00 00 00	 mov	 DWORD PTR ?enumSRV@@3UStrEnumSRV@@A+180, 47 ; 0000002fH

; 1260 : 	enumSRV.F_DrawMesh3D = SRV_F_DrawMesh3D;

  0259f	c7 05 b8 00 00
	00 30 00 00 00	 mov	 DWORD PTR ?enumSRV@@3UStrEnumSRV@@A+184, 48 ; 00000030H

; 1261 : 	enumSRV.F_DrawObject2D = SRV_F_DrawObject2D;

  025a9	c7 05 bc 00 00
	00 31 00 00 00	 mov	 DWORD PTR ?enumSRV@@3UStrEnumSRV@@A+188, 49 ; 00000031H

; 1262 : 	enumSRV.F_PrintText = SRV_F_PrintText;

  025b3	c7 05 c0 00 00
	00 32 00 00 00	 mov	 DWORD PTR ?enumSRV@@3UStrEnumSRV@@A+192, 50 ; 00000032H

; 1263 : 	enumSRV.F_ReadDxInput = SRV_F_ReadDxInput;

  025bd	c7 05 c4 00 00
	00 33 00 00 00	 mov	 DWORD PTR ?enumSRV@@3UStrEnumSRV@@A+196, 51 ; 00000033H

; 1264 : 	enumSRV.F_SuspendAudioTrack = SRV_F_SuspendAudioTrack;

  025c7	c7 05 c8 00 00
	00 34 00 00 00	 mov	 DWORD PTR ?enumSRV@@3UStrEnumSRV@@A+200, 52 ; 00000034H

; 1265 : 	enumSRV.F_ResumeAudioTrack = SRV_F_ResumeAudioTrack;

  025d1	c7 05 cc 00 00
	00 35 00 00 00	 mov	 DWORD PTR ?enumSRV@@3UStrEnumSRV@@A+204, 53 ; 00000035H

; 1266 : 	enumSRV.F_CreateWindowsFont = SRV_F_CreateWindowsFont;

  025db	c7 05 d0 00 00
	00 36 00 00 00	 mov	 DWORD PTR ?enumSRV@@3UStrEnumSRV@@A+208, 54 ; 00000036H

; 1267 : 	enumSRV.F_FreeWindowsFont = SRV_F_FreeWindowsFont;

  025e5	c7 05 d4 00 00
	00 37 00 00 00	 mov	 DWORD PTR ?enumSRV@@3UStrEnumSRV@@A+212, 55 ; 00000037H

; 1268 : 	enumSRV.F_ReadInputBox = SRV_F_ReadInputBox;

  025ef	c7 05 d8 00 00
	00 38 00 00 00	 mov	 DWORD PTR ?enumSRV@@3UStrEnumSRV@@A+216, 56 ; 00000038H

; 1269 : 	enumSRV.F_ReadNumVariable = SRV_F_ReadNumVariable;

  025f9	c7 05 dc 00 00
	00 39 00 00 00	 mov	 DWORD PTR ?enumSRV@@3UStrEnumSRV@@A+220, 57 ; 00000039H

; 1270 : 	enumSRV.F_WriteNumVariable = SRV_F_WriteNumVariable;

  02603	c7 05 e0 00 00
	00 3a 00 00 00	 mov	 DWORD PTR ?enumSRV@@3UStrEnumSRV@@A+224, 58 ; 0000003aH

; 1271 : 	enumSRV.F_ReadTextVariable = SRV_F_ReadTextVariable;

  0260d	c7 05 e4 00 00
	00 3b 00 00 00	 mov	 DWORD PTR ?enumSRV@@3UStrEnumSRV@@A+228, 59 ; 0000003bH

; 1272 : 	enumSRV.F_WriteTextVariable = SRV_F_WriteTextVariable;

  02617	c7 05 e8 00 00
	00 3c 00 00 00	 mov	 DWORD PTR ?enumSRV@@3UStrEnumSRV@@A+232, 60 ; 0000003cH

; 1273 : 	enumSRV.F_ReadMemVariable = SRV_F_ReadMemVariable;

  02621	c7 05 ec 00 00
	00 3d 00 00 00	 mov	 DWORD PTR ?enumSRV@@3UStrEnumSRV@@A+236, 61 ; 0000003dH

; 1274 : 	enumSRV.F_WriteMemVariable = SRV_F_WriteMemVariable;

  0262b	c7 05 f0 00 00
	00 3e 00 00 00	 mov	 DWORD PTR ?enumSRV@@3UStrEnumSRV@@A+240, 62 ; 0000003eH

; 1275 : 
; 1276 : //  --------------- LOAD CONSTANTS FOR ENUM STRUCTURE: enumSLEV----------------------
; 1277 : 	enumSLEV.YOUNG_LARA = SLEV_YOUNG_LARA;

  02635	a3 00 00 00 00	 mov	 DWORD PTR ?enumSLEV@@3UStrEnumSLEV@@A, eax

; 1278 : 	enumSLEV.WEATHER = SLEV_WEATHER;

  0263a	89 0d 04 00 00
	00		 mov	 DWORD PTR ?enumSLEV@@3UStrEnumSLEV@@A+4, ecx

; 1279 : 	enumSLEV.HORIZON = SLEV_HORIZON;

  02640	89 15 08 00 00
	00		 mov	 DWORD PTR ?enumSLEV@@3UStrEnumSLEV@@A+8, edx

; 1280 : 	enumSLEV.LAYER1 = SLEV_LAYER1;

  02646	89 35 0c 00 00
	00		 mov	 DWORD PTR ?enumSLEV@@3UStrEnumSLEV@@A+12, esi

; 1281 : 	enumSLEV.LAYER2 = SLEV_LAYER2;

  0264c	89 3d 10 00 00
	00		 mov	 DWORD PTR ?enumSLEV@@3UStrEnumSLEV@@A+16, edi

; 1282 : 	enumSLEV.STAR_FIELD = SLEV_STAR_FIELD;

  02652	89 1d 14 00 00
	00		 mov	 DWORD PTR ?enumSLEV@@3UStrEnumSLEV@@A+20, ebx

; 1283 : 	enumSLEV.LIGHTNING = SLEV_LIGHTNING;

  02658	c7 05 18 00 00
	00 40 00 00 00	 mov	 DWORD PTR ?enumSLEV@@3UStrEnumSLEV@@A+24, 64 ; 00000040H

; 1284 : 	enumSLEV.TRAIN = SLEV_TRAIN;

  02662	c7 05 1c 00 00
	00 80 00 00 00	 mov	 DWORD PTR ?enumSLEV@@3UStrEnumSLEV@@A+28, 128 ; 00000080H

; 1285 : 	enumSLEV.PULSE = SLEV_PULSE;

  0266c	c7 05 20 00 00
	00 00 01 00 00	 mov	 DWORD PTR ?enumSLEV@@3UStrEnumSLEV@@A+32, 256 ; 00000100H

; 1286 : 	enumSLEV.COL_ADD_HORIZON = SLEV_COL_ADD_HORIZON;

  02676	c7 05 24 00 00
	00 00 02 00 00	 mov	 DWORD PTR ?enumSLEV@@3UStrEnumSLEV@@A+36, 512 ; 00000200H

; 1287 : 	enumSLEV.RESET_HUB = SLEV_RESET_HUB;

  02680	c7 05 28 00 00
	00 00 04 00 00	 mov	 DWORD PTR ?enumSLEV@@3UStrEnumSLEV@@A+40, 1024 ; 00000400H

; 1288 : 	enumSLEV.LENS_FLARE = SLEV_LENS_FLARE;

  0268a	c7 05 2c 00 00
	00 00 08 00 00	 mov	 DWORD PTR ?enumSLEV@@3UStrEnumSLEV@@A+44, 2048 ; 00000800H

; 1289 : 	enumSLEV.TIMER = SLEV_TIMER;

  02694	c7 05 30 00 00
	00 00 10 00 00	 mov	 DWORD PTR ?enumSLEV@@3UStrEnumSLEV@@A+48, 4096 ; 00001000H

; 1290 : 	enumSLEV.MIRROR = SLEV_MIRROR;

  0269e	c7 05 34 00 00
	00 00 20 00 00	 mov	 DWORD PTR ?enumSLEV@@3UStrEnumSLEV@@A+52, 8192 ; 00002000H

; 1291 : 	enumSLEV.REMOVE_AMULET = SLEV_REMOVE_AMULET;

  026a8	c7 05 38 00 00
	00 00 40 00 00	 mov	 DWORD PTR ?enumSLEV@@3UStrEnumSLEV@@A+56, 16384 ; 00004000H

; 1292 : 	enumSLEV.NO_LEVEL = SLEV_NO_LEVEL;

  026b2	c7 05 3c 00 00
	00 00 80 00 00	 mov	 DWORD PTR ?enumSLEV@@3UStrEnumSLEV@@A+60, 32768 ; 00008000H

; 1293 : 
; 1294 : //  --------------- LOAD CONSTANTS FOR ENUM STRUCTURE: enumSMAIN----------------------
; 1295 : 	enumSMAIN.FLY_CHEAT = SMAIN_FLY_CHEAT;

  026bc	a3 00 00 00 00	 mov	 DWORD PTR ?enumSMAIN@@3UStrEnumSMAIN@@A, eax

; 1296 : 	enumSMAIN.LOAD_SAVE = SMAIN_LOAD_SAVE;

  026c1	89 0d 04 00 00
	00		 mov	 DWORD PTR ?enumSMAIN@@3UStrEnumSMAIN@@A+4, ecx

; 1297 : 	enumSMAIN.TITLE = SMAIN_TITLE;

  026c7	89 15 08 00 00
	00		 mov	 DWORD PTR ?enumSMAIN@@3UStrEnumSMAIN@@A+8, edx

; 1298 : 	enumSMAIN.PLAY_ANY_LEVEL = SMAIN_PLAY_ANY_LEVEL;

  026cd	89 35 0c 00 00
	00		 mov	 DWORD PTR ?enumSMAIN@@3UStrEnumSMAIN@@A+12, esi

; 1299 : 	enumSMAIN.DEMO_DISK = SMAIN_DEMO_DISK;

  026d3	c7 05 10 00 00
	00 80 00 00 00	 mov	 DWORD PTR ?enumSMAIN@@3UStrEnumSMAIN@@A+16, 128 ; 00000080H

; 1300 : 
; 1301 : //  --------------- LOAD CONSTANTS FOR ENUM STRUCTURE: enumEDGX----------------------
; 1302 : 	enumEDGX.CONCISE_SCRIPT_LOG = EDGX_CONCISE_SCRIPT_LOG;

  026dd	a3 00 00 00 00	 mov	 DWORD PTR ?enumEDGX@@3UStrEnumEDGX@@A, eax

; 1303 : 	enumEDGX.SLOW_MOTION = EDGX_SLOW_MOTION;

  026e2	89 0d 04 00 00
	00		 mov	 DWORD PTR ?enumEDGX@@3UStrEnumEDGX@@A+4, ecx

; 1304 : 	enumEDGX.SWAP_VIEW = EDGX_SWAP_VIEW;

  026e8	89 15 08 00 00
	00		 mov	 DWORD PTR ?enumEDGX@@3UStrEnumEDGX@@A+8, edx

; 1305 : 	enumEDGX.LARA_CORD_IN_LOG = EDGX_LARA_CORD_IN_LOG;

  026ee	89 35 0c 00 00
	00		 mov	 DWORD PTR ?enumEDGX@@3UStrEnumEDGX@@A+12, esi

; 1306 : 	enumEDGX.TRIGGER_TIMING = EDGX_TRIGGER_TIMING;

  026f4	89 3d 10 00 00
	00		 mov	 DWORD PTR ?enumEDGX@@3UStrEnumEDGX@@A+16, edi

; 1307 : 	enumEDGX.RECORDING_DEMO = EDGX_RECORDING_DEMO;

  026fa	89 1d 14 00 00
	00		 mov	 DWORD PTR ?enumEDGX@@3UStrEnumEDGX@@A+20, ebx

; 1308 : 	enumEDGX.CUTSCENE_LOG = EDGX_CUTSCENE_LOG;

  02700	c7 05 18 00 00
	00 40 00 00 00	 mov	 DWORD PTR ?enumEDGX@@3UStrEnumEDGX@@A+24, 64 ; 00000040H

; 1309 : 	enumEDGX.ANIMATION_SLOT = EDGX_ANIMATION_SLOT;

  0270a	c7 05 1c 00 00
	00 80 00 00 00	 mov	 DWORD PTR ?enumEDGX@@3UStrEnumEDGX@@A+28, 128 ; 00000080H

; 1310 : 
; 1311 : //  --------------- LOAD CONSTANTS FOR ENUM STRUCTURE: enumDGX----------------------
; 1312 : 	enumDGX.LARA = DGX_LARA;

  02714	a3 00 00 00 00	 mov	 DWORD PTR ?enumDGX@@3UStrEnumDGX@@A, eax

; 1313 : 	enumDGX.ANIMATION = DGX_ANIMATION;

  02719	89 0d 04 00 00
	00		 mov	 DWORD PTR ?enumDGX@@3UStrEnumDGX@@A+4, ecx

; 1314 : 	enumDGX.SFX_SOUNDS = DGX_SFX_SOUNDS;

  0271f	89 15 08 00 00
	00		 mov	 DWORD PTR ?enumDGX@@3UStrEnumDGX@@A+8, edx

; 1315 : 	enumDGX.FAR_VIEW = DGX_FAR_VIEW;

  02725	89 35 0c 00 00
	00		 mov	 DWORD PTR ?enumDGX@@3UStrEnumDGX@@A+12, esi

; 1316 : 	enumDGX.AUDIO_TRACKS = DGX_AUDIO_TRACKS;

  0272b	89 3d 10 00 00
	00		 mov	 DWORD PTR ?enumDGX@@3UStrEnumDGX@@A+16, edi

; 1317 : 	enumDGX.CHEATS = DGX_CHEATS;

  02731	89 1d 14 00 00
	00		 mov	 DWORD PTR ?enumDGX@@3UStrEnumDGX@@A+20, ebx

; 1318 : 	enumDGX.FOG = DGX_FOG;

  02737	c7 05 18 00 00
	00 40 00 00 00	 mov	 DWORD PTR ?enumDGX@@3UStrEnumDGX@@A+24, 64 ; 00000040H

; 1319 : 	enumDGX.COMMON_VARIABLES = DGX_COMMON_VARIABLES;

  02741	c7 05 1c 00 00
	00 80 00 00 00	 mov	 DWORD PTR ?enumDGX@@3UStrEnumDGX@@A+28, 128 ; 00000080H

; 1320 : 	enumDGX.STORE_VARIABLES = DGX_STORE_VARIABLES;

  0274b	c7 05 20 00 00
	00 00 01 00 00	 mov	 DWORD PTR ?enumDGX@@3UStrEnumDGX@@A+32, 256 ; 00000100H

; 1321 : 	enumDGX.FLYBY = DGX_FLYBY;

  02755	c7 05 24 00 00
	00 00 02 00 00	 mov	 DWORD PTR ?enumDGX@@3UStrEnumDGX@@A+36, 512 ; 00000200H

; 1322 : 	enumDGX.TEXT_VARIABLES = DGX_TEXT_VARIABLES;

  0275f	c7 05 28 00 00
	00 00 04 00 00	 mov	 DWORD PTR ?enumDGX@@3UStrEnumDGX@@A+40, 1024 ; 00000400H

; 1323 : 	enumDGX.LOG_SCRIPT_COMMANDS = DGX_LOG_SCRIPT_COMMANDS;

  02769	c7 05 2c 00 00
	00 00 08 00 00	 mov	 DWORD PTR ?enumDGX@@3UStrEnumDGX@@A+44, 2048 ; 00000800H

; 1324 : 	enumDGX.WEAPON_ANIMATION = DGX_WEAPON_ANIMATION;

  02773	c7 05 30 00 00
	00 00 10 00 00	 mov	 DWORD PTR ?enumDGX@@3UStrEnumDGX@@A+48, 4096 ; 00001000H

; 1325 : 	enumDGX.ADJUSTMENT_MODE = DGX_ADJUSTMENT_MODE;

  0277d	c7 05 34 00 00
	00 00 20 00 00	 mov	 DWORD PTR ?enumDGX@@3UStrEnumDGX@@A+52, 8192 ; 00002000H

; 1326 : 	enumDGX.FPS = DGX_FPS;

  02787	c7 05 38 00 00
	00 00 40 00 00	 mov	 DWORD PTR ?enumDGX@@3UStrEnumDGX@@A+56, 16384 ; 00004000H

; 1327 : 	enumDGX.ERRORS = DGX_ERRORS;

  02791	c7 05 3c 00 00
	00 00 80 00 00	 mov	 DWORD PTR ?enumDGX@@3UStrEnumDGX@@A+60, 32768 ; 00008000H

; 1328 : 
; 1329 : //  --------------- LOAD CONSTANTS FOR ENUM STRUCTURE: enumFROOM----------------------
; 1330 : 	enumFROOM.COLD = FROOM_COLD;

  0279b	c7 05 00 00 00
	00 00 10 00 00	 mov	 DWORD PTR ?enumFROOM@@3UStrEnumFROOM@@A, 4096 ; 00001000H

; 1331 : 	enumFROOM.RAIN = FROOM_RAIN;

  027a5	c7 05 04 00 00
	00 00 08 00 00	 mov	 DWORD PTR ?enumFROOM@@3UStrEnumFROOM@@A+4, 2048 ; 00000800H

; 1332 : 	enumFROOM.SNOW = FROOM_SNOW;

  027af	c7 05 08 00 00
	00 00 04 00 00	 mov	 DWORD PTR ?enumFROOM@@3UStrEnumFROOM@@A+8, 1024 ; 00000400H

; 1333 : 	enumFROOM.REFLECTION = FROOM_REFLECTION;

  027b9	c7 05 0c 00 00
	00 00 02 00 00	 mov	 DWORD PTR ?enumFROOM@@3UStrEnumFROOM@@A+12, 512 ; 00000200H

; 1334 : 	enumFROOM.MIST = FROOM_MIST;

  027c3	c7 05 10 00 00
	00 00 01 00 00	 mov	 DWORD PTR ?enumFROOM@@3UStrEnumFROOM@@A+16, 256 ; 00000100H

; 1335 : 	enumFROOM.NON_LENS_FLARE = FROOM_NON_LENS_FLARE;

  027cd	c7 05 14 00 00
	00 80 00 00 00	 mov	 DWORD PTR ?enumFROOM@@3UStrEnumFROOM@@A+20, 128 ; 00000080H

; 1336 : 	enumFROOM.MISTERY = FROOM_MISTERY;

  027d7	c7 05 18 00 00
	00 40 00 00 00	 mov	 DWORD PTR ?enumFROOM@@3UStrEnumFROOM@@A+24, 64 ; 00000040H

; 1337 : 	enumFROOM.OUTSIDE = FROOM_OUTSIDE;

  027e1	89 1d 1c 00 00
	00		 mov	 DWORD PTR ?enumFROOM@@3UStrEnumFROOM@@A+28, ebx

; 1338 : 	enumFROOM.DAMAGE = FROOM_DAMAGE;

  027e7	89 3d 20 00 00
	00		 mov	 DWORD PTR ?enumFROOM@@3UStrEnumFROOM@@A+32, edi

; 1339 : 	enumFROOM.HORIZON = FROOM_HORIZON;

  027ed	89 35 24 00 00
	00		 mov	 DWORD PTR ?enumFROOM@@3UStrEnumFROOM@@A+36, esi

; 1340 : 	enumFROOM.QUICKSAND = FROOM_QUICKSAND;

  027f3	89 15 28 00 00
	00		 mov	 DWORD PTR ?enumFROOM@@3UStrEnumFROOM@@A+40, edx

; 1341 : 	enumFROOM.IS_FLIPROOM = FROOM_IS_FLIPROOM;

  027f9	89 0d 2c 00 00
	00		 mov	 DWORD PTR ?enumFROOM@@3UStrEnumFROOM@@A+44, ecx

; 1342 : 	enumFROOM.WATER = FROOM_WATER;

  027ff	a3 30 00 00 00	 mov	 DWORD PTR ?enumFROOM@@3UStrEnumFROOM@@A+48, eax

; 1343 : 
; 1344 : //  --------------- LOAD CONSTANTS FOR ENUM STRUCTURE: enumFIND----------------------
; 1345 : 	enumFIND.ITEM = FIND_ITEM;

  02804	c7 05 00 00 00
	00 00 00 00 00	 mov	 DWORD PTR ?enumFIND@@3UStrEnumFIND@@A, 0

; 1346 : 	enumFIND.STATIC = FIND_STATIC;

  0280e	a3 04 00 00 00	 mov	 DWORD PTR ?enumFIND@@3UStrEnumFIND@@A+4, eax

; 1347 : 	enumFIND.AI = FIND_AI;

  02813	89 0d 08 00 00
	00		 mov	 DWORD PTR ?enumFIND@@3UStrEnumFIND@@A+8, ecx

; 1348 : 	enumFIND.LIGHT = FIND_LIGHT;

  02819	c7 05 0c 00 00
	00 03 00 00 00	 mov	 DWORD PTR ?enumFIND@@3UStrEnumFIND@@A+12, 3

; 1349 : 	enumFIND.CAMERA_FIXED = FIND_CAMERA_FIXED;

  02823	89 15 10 00 00
	00		 mov	 DWORD PTR ?enumFIND@@3UStrEnumFIND@@A+16, edx

; 1350 : 	enumFIND.CAMERA_FLY = FIND_CAMERA_FLY;

  02829	c7 05 14 00 00
	00 05 00 00 00	 mov	 DWORD PTR ?enumFIND@@3UStrEnumFIND@@A+20, 5

; 1351 : 	enumFIND.ITEMS_NEARBY = FIND_ITEMS_NEARBY;

  02833	c7 05 18 00 00
	00 06 00 00 00	 mov	 DWORD PTR ?enumFIND@@3UStrEnumFIND@@A+24, 6

; 1352 : 	enumFIND.ITEMS_SECTOR = FIND_ITEMS_SECTOR;

  0283d	c7 05 1c 00 00
	00 07 00 00 00	 mov	 DWORD PTR ?enumFIND@@3UStrEnumFIND@@A+28, 7

; 1353 : 	enumFIND.STATICS_NEARBY = FIND_STATICS_NEARBY;

  02847	89 35 20 00 00
	00		 mov	 DWORD PTR ?enumFIND@@3UStrEnumFIND@@A+32, esi

; 1354 : 	enumFIND.STATICS_SECTOR = FIND_STATICS_SECTOR;

  0284d	c7 05 24 00 00
	00 09 00 00 00	 mov	 DWORD PTR ?enumFIND@@3UStrEnumFIND@@A+36, 9

; 1355 : 	enumFIND.ENEMY_COMMAND = FIND_ENEMY_COMMAND;

  02857	c7 05 28 00 00
	00 0a 00 00 00	 mov	 DWORD PTR ?enumFIND@@3UStrEnumFIND@@A+40, 10 ; 0000000aH

; 1356 : 	enumFIND.IMAGE_COMMAND = FIND_IMAGE_COMMAND;

  02861	c7 05 2c 00 00
	00 0b 00 00 00	 mov	 DWORD PTR ?enumFIND@@3UStrEnumFIND@@A+44, 11 ; 0000000bH

; 1357 : 	enumFIND.WINDOWS_FONT = FIND_WINDOWS_FONT;

  0286b	c7 05 30 00 00
	00 0c 00 00 00	 mov	 DWORD PTR ?enumFIND@@3UStrEnumFIND@@A+48, 12 ; 0000000cH

; 1358 : 	enumFIND.DIAGNOSTIC = FIND_DIAGNOSTIC;

  02875	c7 05 34 00 00
	00 0d 00 00 00	 mov	 DWORD PTR ?enumFIND@@3UStrEnumFIND@@A+52, 13 ; 0000000dH

; 1359 : 	enumFIND.PROGR_ACTION_TRNG = FIND_PROGR_ACTION_TRNG;

  0287f	c7 05 38 00 00
	00 0e 00 00 00	 mov	 DWORD PTR ?enumFIND@@3UStrEnumFIND@@A+56, 14 ; 0000000eH

; 1360 : 	enumFIND.PROGR_ACTION_MINE = FIND_PROGR_ACTION_MINE;

  02889	c7 05 3c 00 00
	00 0f 00 00 00	 mov	 DWORD PTR ?enumFIND@@3UStrEnumFIND@@A+60, 15 ; 0000000fH

; 1361 : 	enumFIND.ASSIGN_SLOT_MINE = FIND_ASSIGN_SLOT_MINE;

  02893	89 3d 40 00 00
	00		 mov	 DWORD PTR ?enumFIND@@3UStrEnumFIND@@A+64, edi

; 1362 : 
; 1363 : //  --------------- LOAD CONSTANTS FOR ENUM STRUCTURE: enumSSLOT----------------------
; 1364 : 	enumSSLOT.PLANT0 = SSLOT_PLANT0;

  02899	c7 05 00 00 00
	00 00 00 00 00	 mov	 DWORD PTR ?enumSSLOT@@3UStrEnumSSLOT@@A, 0

; 1365 : 	enumSSLOT.PLANT1 = SSLOT_PLANT1;

  028a3	a3 04 00 00 00	 mov	 DWORD PTR ?enumSSLOT@@3UStrEnumSSLOT@@A+4, eax

; 1366 : 	enumSSLOT.PLANT2 = SSLOT_PLANT2;

  028a8	89 0d 08 00 00
	00		 mov	 DWORD PTR ?enumSSLOT@@3UStrEnumSSLOT@@A+8, ecx

; 1367 : 	enumSSLOT.PLANT3 = SSLOT_PLANT3;

  028ae	c7 05 0c 00 00
	00 03 00 00 00	 mov	 DWORD PTR ?enumSSLOT@@3UStrEnumSSLOT@@A+12, 3

; 1368 : 	enumSSLOT.PLANT4 = SSLOT_PLANT4;

  028b8	89 15 10 00 00
	00		 mov	 DWORD PTR ?enumSSLOT@@3UStrEnumSSLOT@@A+16, edx

; 1369 : 	enumSSLOT.PLANT5 = SSLOT_PLANT5;

  028be	c7 05 14 00 00
	00 05 00 00 00	 mov	 DWORD PTR ?enumSSLOT@@3UStrEnumSSLOT@@A+20, 5

; 1370 : 	enumSSLOT.PLANT6 = SSLOT_PLANT6;

  028c8	c7 05 18 00 00
	00 06 00 00 00	 mov	 DWORD PTR ?enumSSLOT@@3UStrEnumSSLOT@@A+24, 6

; 1371 : 	enumSSLOT.PLANT7 = SSLOT_PLANT7;

  028d2	c7 05 1c 00 00
	00 07 00 00 00	 mov	 DWORD PTR ?enumSSLOT@@3UStrEnumSSLOT@@A+28, 7

; 1372 : 	enumSSLOT.PLANT8 = SSLOT_PLANT8;

  028dc	89 35 20 00 00
	00		 mov	 DWORD PTR ?enumSSLOT@@3UStrEnumSSLOT@@A+32, esi

; 1373 : 	enumSSLOT.PLANT9 = SSLOT_PLANT9;

  028e2	c7 05 24 00 00
	00 09 00 00 00	 mov	 DWORD PTR ?enumSSLOT@@3UStrEnumSSLOT@@A+36, 9

; 1374 : 	enumSSLOT.FURNITURE0 = SSLOT_FURNITURE0;

  028ec	c7 05 28 00 00
	00 0a 00 00 00	 mov	 DWORD PTR ?enumSSLOT@@3UStrEnumSSLOT@@A+40, 10 ; 0000000aH

; 1375 : 	enumSSLOT.FURNITURE1 = SSLOT_FURNITURE1;

  028f6	c7 05 2c 00 00
	00 0b 00 00 00	 mov	 DWORD PTR ?enumSSLOT@@3UStrEnumSSLOT@@A+44, 11 ; 0000000bH

; 1376 : 	enumSSLOT.FURNITURE2 = SSLOT_FURNITURE2;

  02900	c7 05 30 00 00
	00 0c 00 00 00	 mov	 DWORD PTR ?enumSSLOT@@3UStrEnumSSLOT@@A+48, 12 ; 0000000cH

; 1377 : 	enumSSLOT.FURNITURE3 = SSLOT_FURNITURE3;

  0290a	c7 05 34 00 00
	00 0d 00 00 00	 mov	 DWORD PTR ?enumSSLOT@@3UStrEnumSSLOT@@A+52, 13 ; 0000000dH

; 1378 : 	enumSSLOT.FURNITURE4 = SSLOT_FURNITURE4;

  02914	c7 05 38 00 00
	00 0e 00 00 00	 mov	 DWORD PTR ?enumSSLOT@@3UStrEnumSSLOT@@A+56, 14 ; 0000000eH

; 1379 : 	enumSSLOT.FURNITURE5 = SSLOT_FURNITURE5;

  0291e	c7 05 3c 00 00
	00 0f 00 00 00	 mov	 DWORD PTR ?enumSSLOT@@3UStrEnumSSLOT@@A+60, 15 ; 0000000fH

; 1380 : 	enumSSLOT.FURNITURE6 = SSLOT_FURNITURE6;

  02928	89 3d 40 00 00
	00		 mov	 DWORD PTR ?enumSSLOT@@3UStrEnumSSLOT@@A+64, edi

; 1381 : 	enumSSLOT.FURNITURE7 = SSLOT_FURNITURE7;

  0292e	c7 05 44 00 00
	00 11 00 00 00	 mov	 DWORD PTR ?enumSSLOT@@3UStrEnumSSLOT@@A+68, 17 ; 00000011H

; 1382 : 	enumSSLOT.FURNITURE8 = SSLOT_FURNITURE8;

  02938	c7 05 48 00 00
	00 12 00 00 00	 mov	 DWORD PTR ?enumSSLOT@@3UStrEnumSSLOT@@A+72, 18 ; 00000012H

; 1383 : 	enumSSLOT.FURNITURE9 = SSLOT_FURNITURE9;

  02942	c7 05 4c 00 00
	00 13 00 00 00	 mov	 DWORD PTR ?enumSSLOT@@3UStrEnumSSLOT@@A+76, 19 ; 00000013H

; 1384 : 	enumSSLOT.ROCK0 = SSLOT_ROCK0;

  0294c	c7 05 50 00 00
	00 14 00 00 00	 mov	 DWORD PTR ?enumSSLOT@@3UStrEnumSSLOT@@A+80, 20 ; 00000014H

; 1385 : 	enumSSLOT.ROCK1 = SSLOT_ROCK1;

  02956	c7 05 54 00 00
	00 15 00 00 00	 mov	 DWORD PTR ?enumSSLOT@@3UStrEnumSSLOT@@A+84, 21 ; 00000015H

; 1386 : 	enumSSLOT.ROCK2 = SSLOT_ROCK2;

  02960	c7 05 58 00 00
	00 16 00 00 00	 mov	 DWORD PTR ?enumSSLOT@@3UStrEnumSSLOT@@A+88, 22 ; 00000016H

; 1387 : 	enumSSLOT.ROCK3 = SSLOT_ROCK3;

  0296a	c7 05 5c 00 00
	00 17 00 00 00	 mov	 DWORD PTR ?enumSSLOT@@3UStrEnumSSLOT@@A+92, 23 ; 00000017H

; 1388 : 	enumSSLOT.ROCK4 = SSLOT_ROCK4;

  02974	c7 05 60 00 00
	00 18 00 00 00	 mov	 DWORD PTR ?enumSSLOT@@3UStrEnumSSLOT@@A+96, 24 ; 00000018H

; 1389 : 	enumSSLOT.ROCK5 = SSLOT_ROCK5;

  0297e	c7 05 64 00 00
	00 19 00 00 00	 mov	 DWORD PTR ?enumSSLOT@@3UStrEnumSSLOT@@A+100, 25 ; 00000019H

; 1390 : 	enumSSLOT.ROCK6 = SSLOT_ROCK6;

  02988	c7 05 68 00 00
	00 1a 00 00 00	 mov	 DWORD PTR ?enumSSLOT@@3UStrEnumSSLOT@@A+104, 26 ; 0000001aH

; 1391 : 	enumSSLOT.ROCK7 = SSLOT_ROCK7;

  02992	c7 05 6c 00 00
	00 1b 00 00 00	 mov	 DWORD PTR ?enumSSLOT@@3UStrEnumSSLOT@@A+108, 27 ; 0000001bH

; 1392 : 	enumSSLOT.ROCK8 = SSLOT_ROCK8;

  0299c	c7 05 70 00 00
	00 1c 00 00 00	 mov	 DWORD PTR ?enumSSLOT@@3UStrEnumSSLOT@@A+112, 28 ; 0000001cH

; 1393 : 	enumSSLOT.ROCK9 = SSLOT_ROCK9;

  029a6	c7 05 74 00 00
	00 1d 00 00 00	 mov	 DWORD PTR ?enumSSLOT@@3UStrEnumSSLOT@@A+116, 29 ; 0000001dH

; 1394 : 	enumSSLOT.ARCHITECTURE0 = SSLOT_ARCHITECTURE0;

  029b0	c7 05 78 00 00
	00 1e 00 00 00	 mov	 DWORD PTR ?enumSSLOT@@3UStrEnumSSLOT@@A+120, 30 ; 0000001eH

; 1395 : 	enumSSLOT.ARCHITECTURE1 = SSLOT_ARCHITECTURE1;

  029ba	c7 05 7c 00 00
	00 1f 00 00 00	 mov	 DWORD PTR ?enumSSLOT@@3UStrEnumSSLOT@@A+124, 31 ; 0000001fH

; 1396 : 	enumSSLOT.ARCHITECTURE2 = SSLOT_ARCHITECTURE2;

  029c4	89 1d 80 00 00
	00		 mov	 DWORD PTR ?enumSSLOT@@3UStrEnumSSLOT@@A+128, ebx

; 1397 : 	enumSSLOT.ARCHITECTURE3 = SSLOT_ARCHITECTURE3;

  029ca	c7 05 84 00 00
	00 21 00 00 00	 mov	 DWORD PTR ?enumSSLOT@@3UStrEnumSSLOT@@A+132, 33 ; 00000021H

; 1398 : 	enumSSLOT.ARCHITECTURE4 = SSLOT_ARCHITECTURE4;

  029d4	c7 05 88 00 00
	00 22 00 00 00	 mov	 DWORD PTR ?enumSSLOT@@3UStrEnumSSLOT@@A+136, 34 ; 00000022H

; 1399 : 	enumSSLOT.ARCHITECTURE5 = SSLOT_ARCHITECTURE5;

  029de	c7 05 8c 00 00
	00 23 00 00 00	 mov	 DWORD PTR ?enumSSLOT@@3UStrEnumSSLOT@@A+140, 35 ; 00000023H

; 1400 : 	enumSSLOT.ARCHITECTURE6 = SSLOT_ARCHITECTURE6;

  029e8	c7 05 90 00 00
	00 24 00 00 00	 mov	 DWORD PTR ?enumSSLOT@@3UStrEnumSSLOT@@A+144, 36 ; 00000024H

; 1401 : 	enumSSLOT.ARCHITECTURE7 = SSLOT_ARCHITECTURE7;

  029f2	c7 05 94 00 00
	00 25 00 00 00	 mov	 DWORD PTR ?enumSSLOT@@3UStrEnumSSLOT@@A+148, 37 ; 00000025H

; 1402 : 	enumSSLOT.ARCHITECTURE8 = SSLOT_ARCHITECTURE8;

  029fc	c7 05 98 00 00
	00 26 00 00 00	 mov	 DWORD PTR ?enumSSLOT@@3UStrEnumSSLOT@@A+152, 38 ; 00000026H

; 1403 : 	enumSSLOT.ARCHITECTURE9 = SSLOT_ARCHITECTURE9;

  02a06	c7 05 9c 00 00
	00 27 00 00 00	 mov	 DWORD PTR ?enumSSLOT@@3UStrEnumSSLOT@@A+156, 39 ; 00000027H

; 1404 : 	enumSSLOT.DEBRIS0 = SSLOT_DEBRIS0;

  02a10	c7 05 a0 00 00
	00 28 00 00 00	 mov	 DWORD PTR ?enumSSLOT@@3UStrEnumSSLOT@@A+160, 40 ; 00000028H

; 1405 : 	enumSSLOT.DEBRIS1 = SSLOT_DEBRIS1;

  02a1a	c7 05 a4 00 00
	00 29 00 00 00	 mov	 DWORD PTR ?enumSSLOT@@3UStrEnumSSLOT@@A+164, 41 ; 00000029H

; 1406 : 	enumSSLOT.DEBRIS2 = SSLOT_DEBRIS2;

  02a24	c7 05 a8 00 00
	00 2a 00 00 00	 mov	 DWORD PTR ?enumSSLOT@@3UStrEnumSSLOT@@A+168, 42 ; 0000002aH

; 1407 : 	enumSSLOT.DEBRIS3 = SSLOT_DEBRIS3;

  02a2e	c7 05 ac 00 00
	00 2b 00 00 00	 mov	 DWORD PTR ?enumSSLOT@@3UStrEnumSSLOT@@A+172, 43 ; 0000002bH

; 1408 : 	enumSSLOT.DEBRIS4 = SSLOT_DEBRIS4;

  02a38	c7 05 b0 00 00
	00 2c 00 00 00	 mov	 DWORD PTR ?enumSSLOT@@3UStrEnumSSLOT@@A+176, 44 ; 0000002cH

; 1409 : 	enumSSLOT.DEBRIS5 = SSLOT_DEBRIS5;

  02a42	c7 05 b4 00 00
	00 2d 00 00 00	 mov	 DWORD PTR ?enumSSLOT@@3UStrEnumSSLOT@@A+180, 45 ; 0000002dH

; 1410 : 	enumSSLOT.DEBRIS6 = SSLOT_DEBRIS6;

  02a4c	c7 05 b8 00 00
	00 2e 00 00 00	 mov	 DWORD PTR ?enumSSLOT@@3UStrEnumSSLOT@@A+184, 46 ; 0000002eH

; 1411 : 	enumSSLOT.DEBRIS7 = SSLOT_DEBRIS7;

  02a56	c7 05 bc 00 00
	00 2f 00 00 00	 mov	 DWORD PTR ?enumSSLOT@@3UStrEnumSSLOT@@A+188, 47 ; 0000002fH

; 1412 : 	enumSSLOT.DEBRIS8 = SSLOT_DEBRIS8;

  02a60	c7 05 c0 00 00
	00 30 00 00 00	 mov	 DWORD PTR ?enumSSLOT@@3UStrEnumSSLOT@@A+192, 48 ; 00000030H

; 1413 : 	enumSSLOT.DEBRIS9 = SSLOT_DEBRIS9;

  02a6a	c7 05 c4 00 00
	00 31 00 00 00	 mov	 DWORD PTR ?enumSSLOT@@3UStrEnumSSLOT@@A+196, 49 ; 00000031H

; 1414 : 	enumSSLOT.SHATTER0 = SSLOT_SHATTER0;

  02a74	c7 05 c8 00 00
	00 32 00 00 00	 mov	 DWORD PTR ?enumSSLOT@@3UStrEnumSSLOT@@A+200, 50 ; 00000032H

; 1415 : 	enumSSLOT.SHATTER1 = SSLOT_SHATTER1;

  02a7e	c7 05 cc 00 00
	00 33 00 00 00	 mov	 DWORD PTR ?enumSSLOT@@3UStrEnumSSLOT@@A+204, 51 ; 00000033H

; 1416 : 	enumSSLOT.SHATTER2 = SSLOT_SHATTER2;

  02a88	c7 05 d0 00 00
	00 34 00 00 00	 mov	 DWORD PTR ?enumSSLOT@@3UStrEnumSSLOT@@A+208, 52 ; 00000034H

; 1417 : 	enumSSLOT.SHATTER3 = SSLOT_SHATTER3;

  02a92	c7 05 d4 00 00
	00 35 00 00 00	 mov	 DWORD PTR ?enumSSLOT@@3UStrEnumSSLOT@@A+212, 53 ; 00000035H

; 1418 : 	enumSSLOT.SHATTER4 = SSLOT_SHATTER4;

  02a9c	c7 05 d8 00 00
	00 36 00 00 00	 mov	 DWORD PTR ?enumSSLOT@@3UStrEnumSSLOT@@A+216, 54 ; 00000036H

; 1419 : 	enumSSLOT.SHATTER5 = SSLOT_SHATTER5;

  02aa6	c7 05 dc 00 00
	00 37 00 00 00	 mov	 DWORD PTR ?enumSSLOT@@3UStrEnumSSLOT@@A+220, 55 ; 00000037H

; 1420 : 	enumSSLOT.SHATTER6 = SSLOT_SHATTER6;

  02ab0	c7 05 e0 00 00
	00 38 00 00 00	 mov	 DWORD PTR ?enumSSLOT@@3UStrEnumSSLOT@@A+224, 56 ; 00000038H

; 1421 : 	enumSSLOT.SHATTER7 = SSLOT_SHATTER7;

  02aba	c7 05 e4 00 00
	00 39 00 00 00	 mov	 DWORD PTR ?enumSSLOT@@3UStrEnumSSLOT@@A+228, 57 ; 00000039H

; 1422 : 	enumSSLOT.SHATTER8 = SSLOT_SHATTER8;

  02ac4	c7 05 e8 00 00
	00 3a 00 00 00	 mov	 DWORD PTR ?enumSSLOT@@3UStrEnumSSLOT@@A+232, 58 ; 0000003aH

; 1423 : 	enumSSLOT.SHATTER9 = SSLOT_SHATTER9;

  02ace	c7 05 ec 00 00
	00 3b 00 00 00	 mov	 DWORD PTR ?enumSSLOT@@3UStrEnumSSLOT@@A+236, 59 ; 0000003bH

; 1424 : 	enumSSLOT.EXTRA00 = SSLOT_EXTRA00;

  02ad8	c7 05 f0 00 00
	00 3c 00 00 00	 mov	 DWORD PTR ?enumSSLOT@@3UStrEnumSSLOT@@A+240, 60 ; 0000003cH

; 1425 : 	enumSSLOT.EXTRA01 = SSLOT_EXTRA01;

  02ae2	c7 05 f4 00 00
	00 3d 00 00 00	 mov	 DWORD PTR ?enumSSLOT@@3UStrEnumSSLOT@@A+244, 61 ; 0000003dH

; 1426 : 	enumSSLOT.EXTRA02 = SSLOT_EXTRA02;

  02aec	c7 05 f8 00 00
	00 3e 00 00 00	 mov	 DWORD PTR ?enumSSLOT@@3UStrEnumSSLOT@@A+248, 62 ; 0000003eH

; 1427 : 	enumSSLOT.EXTRA03 = SSLOT_EXTRA03;

  02af6	c7 05 fc 00 00
	00 3f 00 00 00	 mov	 DWORD PTR ?enumSSLOT@@3UStrEnumSSLOT@@A+252, 63 ; 0000003fH

; 1428 : 	enumSSLOT.EXTRA04 = SSLOT_EXTRA04;

  02b00	c7 05 00 01 00
	00 40 00 00 00	 mov	 DWORD PTR ?enumSSLOT@@3UStrEnumSSLOT@@A+256, 64 ; 00000040H

; 1429 : 	enumSSLOT.EXTRA05 = SSLOT_EXTRA05;

  02b0a	c7 05 04 01 00
	00 41 00 00 00	 mov	 DWORD PTR ?enumSSLOT@@3UStrEnumSSLOT@@A+260, 65 ; 00000041H

; 1430 : 	enumSSLOT.EXTRA06 = SSLOT_EXTRA06;

  02b14	c7 05 08 01 00
	00 42 00 00 00	 mov	 DWORD PTR ?enumSSLOT@@3UStrEnumSSLOT@@A+264, 66 ; 00000042H

; 1431 : 	enumSSLOT.EXTRA07 = SSLOT_EXTRA07;

  02b1e	c7 05 0c 01 00
	00 43 00 00 00	 mov	 DWORD PTR ?enumSSLOT@@3UStrEnumSSLOT@@A+268, 67 ; 00000043H

; 1432 : 	enumSSLOT.EXTRA08 = SSLOT_EXTRA08;

  02b28	c7 05 10 01 00
	00 44 00 00 00	 mov	 DWORD PTR ?enumSSLOT@@3UStrEnumSSLOT@@A+272, 68 ; 00000044H

; 1433 : 	enumSSLOT.EXTRA09 = SSLOT_EXTRA09;

  02b32	c7 05 14 01 00
	00 45 00 00 00	 mov	 DWORD PTR ?enumSSLOT@@3UStrEnumSSLOT@@A+276, 69 ; 00000045H

; 1434 : 	enumSSLOT.EXTRA10 = SSLOT_EXTRA10;

  02b3c	c7 05 18 01 00
	00 46 00 00 00	 mov	 DWORD PTR ?enumSSLOT@@3UStrEnumSSLOT@@A+280, 70 ; 00000046H

; 1435 : 	enumSSLOT.EXTRA11 = SSLOT_EXTRA11;

  02b46	c7 05 1c 01 00
	00 47 00 00 00	 mov	 DWORD PTR ?enumSSLOT@@3UStrEnumSSLOT@@A+284, 71 ; 00000047H

; 1436 : 	enumSSLOT.EXTRA12 = SSLOT_EXTRA12;

  02b50	c7 05 20 01 00
	00 48 00 00 00	 mov	 DWORD PTR ?enumSSLOT@@3UStrEnumSSLOT@@A+288, 72 ; 00000048H

; 1437 : 	enumSSLOT.EXTRA13 = SSLOT_EXTRA13;

  02b5a	c7 05 24 01 00
	00 49 00 00 00	 mov	 DWORD PTR ?enumSSLOT@@3UStrEnumSSLOT@@A+292, 73 ; 00000049H

; 1438 : 	enumSSLOT.EXTRA14 = SSLOT_EXTRA14;

  02b64	c7 05 28 01 00
	00 4a 00 00 00	 mov	 DWORD PTR ?enumSSLOT@@3UStrEnumSSLOT@@A+296, 74 ; 0000004aH

; 1439 : 	enumSSLOT.EXTRA15 = SSLOT_EXTRA15;

  02b6e	c7 05 2c 01 00
	00 4b 00 00 00	 mov	 DWORD PTR ?enumSSLOT@@3UStrEnumSSLOT@@A+300, 75 ; 0000004bH

; 1440 : 	enumSSLOT.EXTRA16 = SSLOT_EXTRA16;

  02b78	c7 05 30 01 00
	00 4c 00 00 00	 mov	 DWORD PTR ?enumSSLOT@@3UStrEnumSSLOT@@A+304, 76 ; 0000004cH

; 1441 : 	enumSSLOT.EXTRA17 = SSLOT_EXTRA17;

  02b82	c7 05 34 01 00
	00 4d 00 00 00	 mov	 DWORD PTR ?enumSSLOT@@3UStrEnumSSLOT@@A+308, 77 ; 0000004dH

; 1442 : 	enumSSLOT.EXTRA18 = SSLOT_EXTRA18;

  02b8c	c7 05 38 01 00
	00 4e 00 00 00	 mov	 DWORD PTR ?enumSSLOT@@3UStrEnumSSLOT@@A+312, 78 ; 0000004eH

; 1443 : 	enumSSLOT.EXTRA19 = SSLOT_EXTRA19;

  02b96	c7 05 3c 01 00
	00 4f 00 00 00	 mov	 DWORD PTR ?enumSSLOT@@3UStrEnumSSLOT@@A+316, 79 ; 0000004fH

; 1444 : 	enumSSLOT.EXTRA20 = SSLOT_EXTRA20;

  02ba0	c7 05 40 01 00
	00 50 00 00 00	 mov	 DWORD PTR ?enumSSLOT@@3UStrEnumSSLOT@@A+320, 80 ; 00000050H

; 1445 : 	enumSSLOT.EXTRA21 = SSLOT_EXTRA21;

  02baa	c7 05 44 01 00
	00 51 00 00 00	 mov	 DWORD PTR ?enumSSLOT@@3UStrEnumSSLOT@@A+324, 81 ; 00000051H

; 1446 : 	enumSSLOT.EXTRA22 = SSLOT_EXTRA22;

  02bb4	c7 05 48 01 00
	00 52 00 00 00	 mov	 DWORD PTR ?enumSSLOT@@3UStrEnumSSLOT@@A+328, 82 ; 00000052H

; 1447 : 	enumSSLOT.EXTRA23 = SSLOT_EXTRA23;

  02bbe	c7 05 4c 01 00
	00 53 00 00 00	 mov	 DWORD PTR ?enumSSLOT@@3UStrEnumSSLOT@@A+332, 83 ; 00000053H

; 1448 : 	enumSSLOT.EXTRA24 = SSLOT_EXTRA24;

  02bc8	c7 05 50 01 00
	00 54 00 00 00	 mov	 DWORD PTR ?enumSSLOT@@3UStrEnumSSLOT@@A+336, 84 ; 00000054H

; 1449 : 	enumSSLOT.EXTRA25 = SSLOT_EXTRA25;

  02bd2	c7 05 54 01 00
	00 55 00 00 00	 mov	 DWORD PTR ?enumSSLOT@@3UStrEnumSSLOT@@A+340, 85 ; 00000055H

; 1450 : 	enumSSLOT.EXTRA26 = SSLOT_EXTRA26;

  02bdc	c7 05 58 01 00
	00 56 00 00 00	 mov	 DWORD PTR ?enumSSLOT@@3UStrEnumSSLOT@@A+344, 86 ; 00000056H

; 1451 : 	enumSSLOT.EXTRA27 = SSLOT_EXTRA27;

  02be6	c7 05 5c 01 00
	00 57 00 00 00	 mov	 DWORD PTR ?enumSSLOT@@3UStrEnumSSLOT@@A+348, 87 ; 00000057H

; 1452 : 	enumSSLOT.EXTRA28 = SSLOT_EXTRA28;

  02bf0	c7 05 60 01 00
	00 58 00 00 00	 mov	 DWORD PTR ?enumSSLOT@@3UStrEnumSSLOT@@A+352, 88 ; 00000058H

; 1453 : 	enumSSLOT.EXTRA29 = SSLOT_EXTRA29;

  02bfa	c7 05 64 01 00
	00 59 00 00 00	 mov	 DWORD PTR ?enumSSLOT@@3UStrEnumSSLOT@@A+356, 89 ; 00000059H

; 1454 : 	enumSSLOT.EXTRA30 = SSLOT_EXTRA30;

  02c04	c7 05 68 01 00
	00 5a 00 00 00	 mov	 DWORD PTR ?enumSSLOT@@3UStrEnumSSLOT@@A+360, 90 ; 0000005aH

; 1455 : 	enumSSLOT.EXTRA31 = SSLOT_EXTRA31;

  02c0e	c7 05 6c 01 00
	00 5b 00 00 00	 mov	 DWORD PTR ?enumSSLOT@@3UStrEnumSSLOT@@A+364, 91 ; 0000005bH

; 1456 : 	enumSSLOT.EXTRA32 = SSLOT_EXTRA32;

  02c18	c7 05 70 01 00
	00 5c 00 00 00	 mov	 DWORD PTR ?enumSSLOT@@3UStrEnumSSLOT@@A+368, 92 ; 0000005cH

; 1457 : 	enumSSLOT.EXTRA33 = SSLOT_EXTRA33;

  02c22	c7 05 74 01 00
	00 5d 00 00 00	 mov	 DWORD PTR ?enumSSLOT@@3UStrEnumSSLOT@@A+372, 93 ; 0000005dH

; 1458 : 	enumSSLOT.EXTRA34 = SSLOT_EXTRA34;

  02c2c	c7 05 78 01 00
	00 5e 00 00 00	 mov	 DWORD PTR ?enumSSLOT@@3UStrEnumSSLOT@@A+376, 94 ; 0000005eH

; 1459 : 	enumSSLOT.EXTRA35 = SSLOT_EXTRA35;

  02c36	c7 05 7c 01 00
	00 5f 00 00 00	 mov	 DWORD PTR ?enumSSLOT@@3UStrEnumSSLOT@@A+380, 95 ; 0000005fH

; 1460 : 	enumSSLOT.EXTRA36 = SSLOT_EXTRA36;

  02c40	c7 05 80 01 00
	00 60 00 00 00	 mov	 DWORD PTR ?enumSSLOT@@3UStrEnumSSLOT@@A+384, 96 ; 00000060H

; 1461 : 	enumSSLOT.EXTRA37 = SSLOT_EXTRA37;

  02c4a	c7 05 84 01 00
	00 61 00 00 00	 mov	 DWORD PTR ?enumSSLOT@@3UStrEnumSSLOT@@A+388, 97 ; 00000061H

; 1462 : 	enumSSLOT.EXTRA38 = SSLOT_EXTRA38;

  02c54	c7 05 88 01 00
	00 62 00 00 00	 mov	 DWORD PTR ?enumSSLOT@@3UStrEnumSSLOT@@A+392, 98 ; 00000062H

; 1463 : 	enumSSLOT.EXTRA39 = SSLOT_EXTRA39;

  02c5e	c7 05 8c 01 00
	00 63 00 00 00	 mov	 DWORD PTR ?enumSSLOT@@3UStrEnumSSLOT@@A+396, 99 ; 00000063H

; 1464 : 	enumSSLOT.EXTRA40 = SSLOT_EXTRA40;

  02c68	c7 05 90 01 00
	00 64 00 00 00	 mov	 DWORD PTR ?enumSSLOT@@3UStrEnumSSLOT@@A+400, 100 ; 00000064H

; 1465 : 	enumSSLOT.EXTRA41 = SSLOT_EXTRA41;

  02c72	c7 05 94 01 00
	00 65 00 00 00	 mov	 DWORD PTR ?enumSSLOT@@3UStrEnumSSLOT@@A+404, 101 ; 00000065H

; 1466 : 	enumSSLOT.EXTRA42 = SSLOT_EXTRA42;

  02c7c	c7 05 98 01 00
	00 66 00 00 00	 mov	 DWORD PTR ?enumSSLOT@@3UStrEnumSSLOT@@A+408, 102 ; 00000066H

; 1467 : 	enumSSLOT.EXTRA43 = SSLOT_EXTRA43;

  02c86	c7 05 9c 01 00
	00 67 00 00 00	 mov	 DWORD PTR ?enumSSLOT@@3UStrEnumSSLOT@@A+412, 103 ; 00000067H

; 1468 : 	enumSSLOT.EXTRA44 = SSLOT_EXTRA44;

  02c90	c7 05 a0 01 00
	00 68 00 00 00	 mov	 DWORD PTR ?enumSSLOT@@3UStrEnumSSLOT@@A+416, 104 ; 00000068H

; 1469 : 	enumSSLOT.EXTRA45 = SSLOT_EXTRA45;

  02c9a	c7 05 a4 01 00
	00 69 00 00 00	 mov	 DWORD PTR ?enumSSLOT@@3UStrEnumSSLOT@@A+420, 105 ; 00000069H

; 1470 : 	enumSSLOT.EXTRA46 = SSLOT_EXTRA46;

  02ca4	c7 05 a8 01 00
	00 6a 00 00 00	 mov	 DWORD PTR ?enumSSLOT@@3UStrEnumSSLOT@@A+424, 106 ; 0000006aH

; 1471 : 	enumSSLOT.EXTRA47 = SSLOT_EXTRA47;

  02cae	c7 05 ac 01 00
	00 6b 00 00 00	 mov	 DWORD PTR ?enumSSLOT@@3UStrEnumSSLOT@@A+428, 107 ; 0000006bH

; 1472 : 	enumSSLOT.EXTRA48 = SSLOT_EXTRA48;

  02cb8	c7 05 b0 01 00
	00 6c 00 00 00	 mov	 DWORD PTR ?enumSSLOT@@3UStrEnumSSLOT@@A+432, 108 ; 0000006cH

; 1473 : 	enumSSLOT.EXTRA49 = SSLOT_EXTRA49;

  02cc2	c7 05 b4 01 00
	00 6d 00 00 00	 mov	 DWORD PTR ?enumSSLOT@@3UStrEnumSSLOT@@A+436, 109 ; 0000006dH

; 1474 : 	enumSSLOT.EXTRA50 = SSLOT_EXTRA50;

  02ccc	c7 05 b8 01 00
	00 6e 00 00 00	 mov	 DWORD PTR ?enumSSLOT@@3UStrEnumSSLOT@@A+440, 110 ; 0000006eH

; 1475 : 	enumSSLOT.EXTRA51 = SSLOT_EXTRA51;

  02cd6	c7 05 bc 01 00
	00 6f 00 00 00	 mov	 DWORD PTR ?enumSSLOT@@3UStrEnumSSLOT@@A+444, 111 ; 0000006fH

; 1476 : 	enumSSLOT.EXTRA52 = SSLOT_EXTRA52;

  02ce0	c7 05 c0 01 00
	00 70 00 00 00	 mov	 DWORD PTR ?enumSSLOT@@3UStrEnumSSLOT@@A+448, 112 ; 00000070H

; 1477 : 	enumSSLOT.EXTRA53 = SSLOT_EXTRA53;

  02cea	c7 05 c4 01 00
	00 71 00 00 00	 mov	 DWORD PTR ?enumSSLOT@@3UStrEnumSSLOT@@A+452, 113 ; 00000071H

; 1478 : 	enumSSLOT.EXTRA54 = SSLOT_EXTRA54;

  02cf4	c7 05 c8 01 00
	00 72 00 00 00	 mov	 DWORD PTR ?enumSSLOT@@3UStrEnumSSLOT@@A+456, 114 ; 00000072H

; 1479 : 	enumSSLOT.EXTRA55 = SSLOT_EXTRA55;

  02cfe	c7 05 cc 01 00
	00 73 00 00 00	 mov	 DWORD PTR ?enumSSLOT@@3UStrEnumSSLOT@@A+460, 115 ; 00000073H

; 1480 : 	enumSSLOT.EXTRA56 = SSLOT_EXTRA56;

  02d08	c7 05 d0 01 00
	00 74 00 00 00	 mov	 DWORD PTR ?enumSSLOT@@3UStrEnumSSLOT@@A+464, 116 ; 00000074H

; 1481 : 	enumSSLOT.EXTRA57 = SSLOT_EXTRA57;

  02d12	c7 05 d4 01 00
	00 75 00 00 00	 mov	 DWORD PTR ?enumSSLOT@@3UStrEnumSSLOT@@A+468, 117 ; 00000075H

; 1482 : 	enumSSLOT.EXTRA58 = SSLOT_EXTRA58;

  02d1c	c7 05 d8 01 00
	00 76 00 00 00	 mov	 DWORD PTR ?enumSSLOT@@3UStrEnumSSLOT@@A+472, 118 ; 00000076H

; 1483 : 	enumSSLOT.EXTRA59 = SSLOT_EXTRA59;

  02d26	c7 05 dc 01 00
	00 77 00 00 00	 mov	 DWORD PTR ?enumSSLOT@@3UStrEnumSSLOT@@A+476, 119 ; 00000077H

; 1484 : 	enumSSLOT.EXTRA60 = SSLOT_EXTRA60;

  02d30	c7 05 e0 01 00
	00 78 00 00 00	 mov	 DWORD PTR ?enumSSLOT@@3UStrEnumSSLOT@@A+480, 120 ; 00000078H

; 1485 : 	enumSSLOT.EXTRA61 = SSLOT_EXTRA61;

  02d3a	c7 05 e4 01 00
	00 79 00 00 00	 mov	 DWORD PTR ?enumSSLOT@@3UStrEnumSSLOT@@A+484, 121 ; 00000079H

; 1486 : 	enumSSLOT.EXTRA62 = SSLOT_EXTRA62;

  02d44	c7 05 e8 01 00
	00 7a 00 00 00	 mov	 DWORD PTR ?enumSSLOT@@3UStrEnumSSLOT@@A+488, 122 ; 0000007aH

; 1487 : 	enumSSLOT.EXTRA63 = SSLOT_EXTRA63;

  02d4e	c7 05 ec 01 00
	00 7b 00 00 00	 mov	 DWORD PTR ?enumSSLOT@@3UStrEnumSSLOT@@A+492, 123 ; 0000007bH

; 1488 : 	enumSSLOT.EXTRA64 = SSLOT_EXTRA64;

  02d58	c7 05 f0 01 00
	00 7c 00 00 00	 mov	 DWORD PTR ?enumSSLOT@@3UStrEnumSSLOT@@A+496, 124 ; 0000007cH

; 1489 : 	enumSSLOT.EXTRA65 = SSLOT_EXTRA65;

  02d62	c7 05 f4 01 00
	00 7d 00 00 00	 mov	 DWORD PTR ?enumSSLOT@@3UStrEnumSSLOT@@A+500, 125 ; 0000007dH

; 1490 : 	enumSSLOT.EXTRA66 = SSLOT_EXTRA66;

  02d6c	c7 05 f8 01 00
	00 7e 00 00 00	 mov	 DWORD PTR ?enumSSLOT@@3UStrEnumSSLOT@@A+504, 126 ; 0000007eH

; 1491 : 	enumSSLOT.EXTRA67 = SSLOT_EXTRA67;

  02d76	c7 05 fc 01 00
	00 7f 00 00 00	 mov	 DWORD PTR ?enumSSLOT@@3UStrEnumSSLOT@@A+508, 127 ; 0000007fH

; 1492 : 	enumSSLOT.EXTRA68 = SSLOT_EXTRA68;

  02d80	c7 05 00 02 00
	00 80 00 00 00	 mov	 DWORD PTR ?enumSSLOT@@3UStrEnumSSLOT@@A+512, 128 ; 00000080H

; 1493 : 	enumSSLOT.EXTRA69 = SSLOT_EXTRA69;

  02d8a	c7 05 04 02 00
	00 81 00 00 00	 mov	 DWORD PTR ?enumSSLOT@@3UStrEnumSSLOT@@A+516, 129 ; 00000081H

; 1494 : 	enumSSLOT.EXTRA70 = SSLOT_EXTRA70;

  02d94	c7 05 08 02 00
	00 82 00 00 00	 mov	 DWORD PTR ?enumSSLOT@@3UStrEnumSSLOT@@A+520, 130 ; 00000082H

; 1495 : 	enumSSLOT.EXTRA71 = SSLOT_EXTRA71;

  02d9e	c7 05 0c 02 00
	00 83 00 00 00	 mov	 DWORD PTR ?enumSSLOT@@3UStrEnumSSLOT@@A+524, 131 ; 00000083H

; 1496 : 	enumSSLOT.EXTRA72 = SSLOT_EXTRA72;

  02da8	c7 05 10 02 00
	00 84 00 00 00	 mov	 DWORD PTR ?enumSSLOT@@3UStrEnumSSLOT@@A+528, 132 ; 00000084H

; 1497 : 	enumSSLOT.EXTRA73 = SSLOT_EXTRA73;

  02db2	c7 05 14 02 00
	00 85 00 00 00	 mov	 DWORD PTR ?enumSSLOT@@3UStrEnumSSLOT@@A+532, 133 ; 00000085H

; 1498 : 	enumSSLOT.EXTRA74 = SSLOT_EXTRA74;

  02dbc	c7 05 18 02 00
	00 86 00 00 00	 mov	 DWORD PTR ?enumSSLOT@@3UStrEnumSSLOT@@A+536, 134 ; 00000086H

; 1499 : 	enumSSLOT.EXTRA75 = SSLOT_EXTRA75;

  02dc6	c7 05 1c 02 00
	00 87 00 00 00	 mov	 DWORD PTR ?enumSSLOT@@3UStrEnumSSLOT@@A+540, 135 ; 00000087H

; 1500 : 	enumSSLOT.EXTRA76 = SSLOT_EXTRA76;

  02dd0	c7 05 20 02 00
	00 88 00 00 00	 mov	 DWORD PTR ?enumSSLOT@@3UStrEnumSSLOT@@A+544, 136 ; 00000088H

; 1501 : 	enumSSLOT.EXTRA77 = SSLOT_EXTRA77;

  02dda	c7 05 24 02 00
	00 89 00 00 00	 mov	 DWORD PTR ?enumSSLOT@@3UStrEnumSSLOT@@A+548, 137 ; 00000089H

; 1502 : 	enumSSLOT.EXTRA78 = SSLOT_EXTRA78;

  02de4	c7 05 28 02 00
	00 8a 00 00 00	 mov	 DWORD PTR ?enumSSLOT@@3UStrEnumSSLOT@@A+552, 138 ; 0000008aH

; 1503 : 	enumSSLOT.EXTRA79 = SSLOT_EXTRA79;

  02dee	c7 05 2c 02 00
	00 8b 00 00 00	 mov	 DWORD PTR ?enumSSLOT@@3UStrEnumSSLOT@@A+556, 139 ; 0000008bH

; 1504 : 	enumSSLOT.EXTRA80 = SSLOT_EXTRA80;

  02df8	c7 05 30 02 00
	00 8c 00 00 00	 mov	 DWORD PTR ?enumSSLOT@@3UStrEnumSSLOT@@A+560, 140 ; 0000008cH

; 1505 : 	enumSSLOT.EXTRA81 = SSLOT_EXTRA81;

  02e02	c7 05 34 02 00
	00 8d 00 00 00	 mov	 DWORD PTR ?enumSSLOT@@3UStrEnumSSLOT@@A+564, 141 ; 0000008dH

; 1506 : 	enumSSLOT.EXTRA82 = SSLOT_EXTRA82;

  02e0c	c7 05 38 02 00
	00 8e 00 00 00	 mov	 DWORD PTR ?enumSSLOT@@3UStrEnumSSLOT@@A+568, 142 ; 0000008eH

; 1507 : 	enumSSLOT.EXTRA83 = SSLOT_EXTRA83;

  02e16	c7 05 3c 02 00
	00 8f 00 00 00	 mov	 DWORD PTR ?enumSSLOT@@3UStrEnumSSLOT@@A+572, 143 ; 0000008fH

; 1508 : 	enumSSLOT.EXTRA84 = SSLOT_EXTRA84;

  02e20	c7 05 40 02 00
	00 90 00 00 00	 mov	 DWORD PTR ?enumSSLOT@@3UStrEnumSSLOT@@A+576, 144 ; 00000090H

; 1509 : 	enumSSLOT.EXTRA85 = SSLOT_EXTRA85;

  02e2a	c7 05 44 02 00
	00 91 00 00 00	 mov	 DWORD PTR ?enumSSLOT@@3UStrEnumSSLOT@@A+580, 145 ; 00000091H

; 1510 : 	enumSSLOT.EXTRA86 = SSLOT_EXTRA86;

  02e34	c7 05 48 02 00
	00 92 00 00 00	 mov	 DWORD PTR ?enumSSLOT@@3UStrEnumSSLOT@@A+584, 146 ; 00000092H

; 1511 : 	enumSSLOT.EXTRA87 = SSLOT_EXTRA87;

  02e3e	c7 05 4c 02 00
	00 93 00 00 00	 mov	 DWORD PTR ?enumSSLOT@@3UStrEnumSSLOT@@A+588, 147 ; 00000093H

; 1512 : 	enumSSLOT.EXTRA88 = SSLOT_EXTRA88;

  02e48	c7 05 50 02 00
	00 94 00 00 00	 mov	 DWORD PTR ?enumSSLOT@@3UStrEnumSSLOT@@A+592, 148 ; 00000094H

; 1513 : 	enumSSLOT.EXTRA89 = SSLOT_EXTRA89;

  02e52	c7 05 54 02 00
	00 95 00 00 00	 mov	 DWORD PTR ?enumSSLOT@@3UStrEnumSSLOT@@A+596, 149 ; 00000095H

; 1514 : 	enumSSLOT.EXTRA90 = SSLOT_EXTRA90;

  02e5c	c7 05 58 02 00
	00 96 00 00 00	 mov	 DWORD PTR ?enumSSLOT@@3UStrEnumSSLOT@@A+600, 150 ; 00000096H

; 1515 : 	enumSSLOT.EXTRA91 = SSLOT_EXTRA91;

  02e66	c7 05 5c 02 00
	00 97 00 00 00	 mov	 DWORD PTR ?enumSSLOT@@3UStrEnumSSLOT@@A+604, 151 ; 00000097H

; 1516 : 	enumSSLOT.EXTRA92 = SSLOT_EXTRA92;

  02e70	c7 05 60 02 00
	00 98 00 00 00	 mov	 DWORD PTR ?enumSSLOT@@3UStrEnumSSLOT@@A+608, 152 ; 00000098H

; 1517 : 	enumSSLOT.EXTRA93 = SSLOT_EXTRA93;

  02e7a	c7 05 64 02 00
	00 99 00 00 00	 mov	 DWORD PTR ?enumSSLOT@@3UStrEnumSSLOT@@A+612, 153 ; 00000099H

; 1518 : 	enumSSLOT.EXTRA94 = SSLOT_EXTRA94;

  02e84	c7 05 68 02 00
	00 9a 00 00 00	 mov	 DWORD PTR ?enumSSLOT@@3UStrEnumSSLOT@@A+616, 154 ; 0000009aH

; 1519 : 	enumSSLOT.EXTRA95 = SSLOT_EXTRA95;

  02e8e	c7 05 6c 02 00
	00 9b 00 00 00	 mov	 DWORD PTR ?enumSSLOT@@3UStrEnumSSLOT@@A+620, 155 ; 0000009bH

; 1520 : 	enumSSLOT.EXTRA96 = SSLOT_EXTRA96;

  02e98	c7 05 70 02 00
	00 9c 00 00 00	 mov	 DWORD PTR ?enumSSLOT@@3UStrEnumSSLOT@@A+624, 156 ; 0000009cH

; 1521 : 	enumSSLOT.EXTRA97 = SSLOT_EXTRA97;

  02ea2	c7 05 74 02 00
	00 9d 00 00 00	 mov	 DWORD PTR ?enumSSLOT@@3UStrEnumSSLOT@@A+628, 157 ; 0000009dH

; 1522 : 	enumSSLOT.EXTRA98 = SSLOT_EXTRA98;

  02eac	c7 05 78 02 00
	00 9e 00 00 00	 mov	 DWORD PTR ?enumSSLOT@@3UStrEnumSSLOT@@A+632, 158 ; 0000009eH

; 1523 : 	enumSSLOT.EXTRA99 = SSLOT_EXTRA99;

  02eb6	c7 05 7c 02 00
	00 9f 00 00 00	 mov	 DWORD PTR ?enumSSLOT@@3UStrEnumSSLOT@@A+636, 159 ; 0000009fH

; 1524 : 	enumSSLOT.NUMBER_STATIC_OBJECTS = SSLOT_NUMBER_STATIC_OBJECTS;

  02ec0	c7 05 80 02 00
	00 a0 00 00 00	 mov	 DWORD PTR ?enumSSLOT@@3UStrEnumSSLOT@@A+640, 160 ; 000000a0H

; 1525 : 
; 1526 : //  --------------- LOAD CONSTANTS FOR ENUM STRUCTURE: enumFWEAP----------------------
; 1527 : 	enumFWEAP.PRESENT = FWEAP_PRESENT;

  02eca	a3 00 00 00 00	 mov	 DWORD PTR ?enumFWEAP@@3UStrEnumFWEAP@@A, eax

; 1528 : 	enumFWEAP.LASERSIGHT = FWEAP_LASERSIGHT;

  02ecf	89 15 04 00 00
	00		 mov	 DWORD PTR ?enumFWEAP@@3UStrEnumFWEAP@@A+4, edx

; 1529 : 	enumFWEAP.AMMO_NORMAL = FWEAP_AMMO_NORMAL;

  02ed5	89 35 08 00 00
	00		 mov	 DWORD PTR ?enumFWEAP@@3UStrEnumFWEAP@@A+8, esi

; 1530 : 	enumFWEAP.AMMO_SUPER = FWEAP_AMMO_SUPER;

  02edb	89 3d 0c 00 00
	00		 mov	 DWORD PTR ?enumFWEAP@@3UStrEnumFWEAP@@A+12, edi

; 1531 : 	enumFWEAP.AMMO_EXPLOSIVE = FWEAP_AMMO_EXPLOSIVE;

  02ee1	89 1d 10 00 00
	00		 mov	 DWORD PTR ?enumFWEAP@@3UStrEnumFWEAP@@A+16, ebx

; 1532 : 
; 1533 : //  --------------- LOAD CONSTANTS FOR ENUM STRUCTURE: enumCBEET----------------------
; 1534 : 	enumCBEET.BEETLE_WITH_KEY = CBEET_BEETLE_WITH_KEY;

  02ee7	a3 00 00 00 00	 mov	 DWORD PTR ?enumCBEET@@3UStrEnumCBEET@@A, eax

; 1535 : 	enumCBEET.KEY_SINGLE = CBEET_KEY_SINGLE;

  02eec	89 0d 04 00 00
	00		 mov	 DWORD PTR ?enumCBEET@@3UStrEnumCBEET@@A+4, ecx

; 1536 : 	enumCBEET.BEETLE_SINGLE = CBEET_BEETLE_SINGLE;

  02ef2	89 15 08 00 00
	00		 mov	 DWORD PTR ?enumCBEET@@3UStrEnumCBEET@@A+8, edx

; 1537 : 
; 1538 : //  --------------- LOAD CONSTANTS FOR ENUM STRUCTURE: enumWSKIN----------------------
; 1539 : 	enumWSKIN.MISSING = WSKIN_MISSING;

  02ef8	c7 05 00 00 00
	00 00 00 00 00	 mov	 DWORD PTR ?enumWSKIN@@3UStrEnumWSKIN@@A, 0

; 1540 : 	enumWSKIN.EMPTY_WATER_SKIN = WSKIN_EMPTY_WATER_SKIN;

  02f02	a3 04 00 00 00	 mov	 DWORD PTR ?enumWSKIN@@3UStrEnumWSKIN@@A+4, eax

; 1541 : 	enumWSKIN.ONE_LITER = WSKIN_ONE_LITER;

  02f07	89 0d 08 00 00
	00		 mov	 DWORD PTR ?enumWSKIN@@3UStrEnumWSKIN@@A+8, ecx

; 1542 : 	enumWSKIN.THREE_LITERS = WSKIN_THREE_LITERS;

  02f0d	89 15 0c 00 00
	00		 mov	 DWORD PTR ?enumWSKIN@@3UStrEnumWSKIN@@A+12, edx

; 1543 : 	enumWSKIN.FIVE_LITERS = WSKIN_FIVE_LITERS;

  02f13	c7 05 10 00 00
	00 06 00 00 00	 mov	 DWORD PTR ?enumWSKIN@@3UStrEnumWSKIN@@A+16, 6

; 1544 : 
; 1545 : //  --------------- LOAD CONSTANTS FOR ENUM STRUCTURE: enumCOMBO----------------------
; 1546 : 	enumCOMBO.ITEM1_FOR_PUZZLE_1 = COMBO_ITEM1_FOR_PUZZLE_1;

  02f1d	a3 00 00 00 00	 mov	 DWORD PTR ?enumCOMBO@@3UStrEnumCOMBO@@A, eax

; 1547 : 	enumCOMBO.ITEM2_FOR_PUZZLE_1 = COMBO_ITEM2_FOR_PUZZLE_1;

  02f22	89 0d 04 00 00
	00		 mov	 DWORD PTR ?enumCOMBO@@3UStrEnumCOMBO@@A+4, ecx

; 1548 : 	enumCOMBO.ITEM1_FOR_PUZZLE_2 = COMBO_ITEM1_FOR_PUZZLE_2;

  02f28	89 15 08 00 00
	00		 mov	 DWORD PTR ?enumCOMBO@@3UStrEnumCOMBO@@A+8, edx

; 1549 : 	enumCOMBO.ITEM2_FOR_PUZZLE_2 = COMBO_ITEM2_FOR_PUZZLE_2;

  02f2e	89 35 0c 00 00
	00		 mov	 DWORD PTR ?enumCOMBO@@3UStrEnumCOMBO@@A+12, esi

; 1550 : 	enumCOMBO.ITEM1_FOR_PUZZLE_3 = COMBO_ITEM1_FOR_PUZZLE_3;

  02f34	89 3d 10 00 00
	00		 mov	 DWORD PTR ?enumCOMBO@@3UStrEnumCOMBO@@A+16, edi

; 1551 : 	enumCOMBO.ITEM2_FOR_PUZZLE_3 = COMBO_ITEM2_FOR_PUZZLE_3;

  02f3a	89 1d 14 00 00
	00		 mov	 DWORD PTR ?enumCOMBO@@3UStrEnumCOMBO@@A+20, ebx

; 1552 : 	enumCOMBO.ITEM1_FOR_PUZZLE_4 = COMBO_ITEM1_FOR_PUZZLE_4;

  02f40	c7 05 18 00 00
	00 40 00 00 00	 mov	 DWORD PTR ?enumCOMBO@@3UStrEnumCOMBO@@A+24, 64 ; 00000040H

; 1553 : 	enumCOMBO.ITEM2_FOR_PUZZLE_4 = COMBO_ITEM2_FOR_PUZZLE_4;

  02f4a	c7 05 1c 00 00
	00 80 00 00 00	 mov	 DWORD PTR ?enumCOMBO@@3UStrEnumCOMBO@@A+28, 128 ; 00000080H

; 1554 : 	enumCOMBO.ITEM1_FOR_PUZZLE_5 = COMBO_ITEM1_FOR_PUZZLE_5;

  02f54	c7 05 20 00 00
	00 00 01 00 00	 mov	 DWORD PTR ?enumCOMBO@@3UStrEnumCOMBO@@A+32, 256 ; 00000100H

; 1555 : 	enumCOMBO.ITEM2_FOR_PUZZLE_5 = COMBO_ITEM2_FOR_PUZZLE_5;

  02f5e	c7 05 24 00 00
	00 00 02 00 00	 mov	 DWORD PTR ?enumCOMBO@@3UStrEnumCOMBO@@A+36, 512 ; 00000200H

; 1556 : 	enumCOMBO.ITEM1_FOR_PUZZLE_6 = COMBO_ITEM1_FOR_PUZZLE_6;

  02f68	c7 05 28 00 00
	00 00 04 00 00	 mov	 DWORD PTR ?enumCOMBO@@3UStrEnumCOMBO@@A+40, 1024 ; 00000400H

; 1557 : 	enumCOMBO.ITEM2_FOR_PUZZLE_6 = COMBO_ITEM2_FOR_PUZZLE_6;

  02f72	c7 05 2c 00 00
	00 00 08 00 00	 mov	 DWORD PTR ?enumCOMBO@@3UStrEnumCOMBO@@A+44, 2048 ; 00000800H

; 1558 : 	enumCOMBO.ITEM1_FOR_PUZZLE_7 = COMBO_ITEM1_FOR_PUZZLE_7;

  02f7c	c7 05 30 00 00
	00 00 10 00 00	 mov	 DWORD PTR ?enumCOMBO@@3UStrEnumCOMBO@@A+48, 4096 ; 00001000H

; 1559 : 	enumCOMBO.ITEM2_FOR_PUZZLE_7 = COMBO_ITEM2_FOR_PUZZLE_7;

  02f86	c7 05 34 00 00
	00 00 20 00 00	 mov	 DWORD PTR ?enumCOMBO@@3UStrEnumCOMBO@@A+52, 8192 ; 00002000H

; 1560 : 	enumCOMBO.ITEM1_FOR_PUZZLE_8 = COMBO_ITEM1_FOR_PUZZLE_8;

  02f90	c7 05 38 00 00
	00 00 40 00 00	 mov	 DWORD PTR ?enumCOMBO@@3UStrEnumCOMBO@@A+56, 16384 ; 00004000H

; 1561 : 	enumCOMBO.ITEM2_FOR_PUZZLE_8 = COMBO_ITEM2_FOR_PUZZLE_8;

  02f9a	c7 05 3c 00 00
