; Listing generated by Microsoft (R) Optimizing Compiler Version 16.00.30319.01 

	TITLE	C:\Users\Dominik\Google Drive\TLD\Script\Plugin_Renaissance\Source\trng.cpp
	.686P
	.XMM
	include listing.inc
	.model	flat

INCLUDELIB MSVCRTD
INCLUDELIB OLDNAMES

PUBLIC	?enumSAVT@@3UStrEnumSAVT@@A			; enumSAVT
PUBLIC	?enumPHASE@@3UStrEnumPHASE@@A			; enumPHASE
PUBLIC	?enumFWEAP@@3UStrEnumFWEAP@@A			; enumFWEAP
PUBLIC	?enumFSLOT@@3UStrEnumFSLOT@@A			; enumFSLOT
PUBLIC	?enumCOLF@@3UStrEnumCOLF@@A			; enumCOLF
PUBLIC	?enumDENV@@3UStrEnumDENV@@A			; enumDENV
PUBLIC	?enumFC@@3UStrEnumFC@@A				; enumFC
PUBLIC	?enumSMAIN@@3UStrEnumSMAIN@@A			; enumSMAIN
PUBLIC	?enumWTF@@3UStrEnumWTF@@A			; enumWTF
PUBLIC	?enumAPPC@@3UStrEnumAPPC@@A			; enumAPPC
PUBLIC	?enumCPU@@3UStrEnumCPU@@A			; enumCPU
PUBLIC	?enumFIND@@3UStrEnumFIND@@A			; enumFIND
PUBLIC	?enumCTRET@@3UStrEnumCTRET@@A			; enumCTRET
PUBLIC	?enumFLH@@3UStrEnumFLH@@A			; enumFLH
PUBLIC	?enumCBEET@@3UStrEnumCBEET@@A			; enumCBEET
PUBLIC	?enumJOINT@@3UStrEnumJOINT@@A			; enumJOINT
PUBLIC	?enumFITEM@@3UStrEnumFITEM@@A			; enumFITEM
PUBLIC	?enumWSKIN@@3UStrEnumWSKIN@@A			; enumWSKIN
PUBLIC	?enumSC@@3UStrEnumSC@@A				; enumSC
PUBLIC	?enumSCANF@@3UStrEnumSCANF@@A			; enumSCANF
PUBLIC	?enumGET@@3UStrEnumGET@@A			; enumGET
PUBLIC	?enumFTS@@3UStrEnumFTS@@A			; enumFTS
PUBLIC	?enumSRET@@3UStrEnumSRET@@A			; enumSRET
PUBLIC	?enumTRET@@3UStrEnumTRET@@A			; enumTRET
PUBLIC	?enumFROOM@@3UStrEnumFROOM@@A			; enumFROOM
PUBLIC	?enumKCOMBO@@3UStrEnumKCOMBO@@A			; enumKCOMBO
PUBLIC	?enumSLOPE@@3UStrEnumSLOPE@@A			; enumSLOPE
PUBLIC	?enumCB@@3UStrEnumCB@@A				; enumCB
PUBLIC	?enumCOMBO@@3UStrEnumCOMBO@@A			; enumCOMBO
PUBLIC	?GET@@3UStrGetLocator@@A			; GET
PUBLIC	?enumFAN@@3UStrEnumFAN@@A			; enumFAN
PUBLIC	?enumPCOMBO@@3UStrEnumPCOMBO@@A			; enumPCOMBO
PUBLIC	?enumEDGX@@3UStrEnumEDGX@@A			; enumEDGX
PUBLIC	?enumCMD@@3UStrEnumCMD@@A			; enumCMD
PUBLIC	?TempRoomIndex@@3GA				; TempRoomIndex
PUBLIC	?enumMEMT@@3UStrEnumMEMT@@A			; enumMEMT
PUBLIC	?Trng@@3UStrTrngInfos@@A			; Trng
PUBLIC	?BufferLog@@3PADA				; BufferLog
PUBLIC	?enumSLOT@@3UStrEnumSLOT@@A			; enumSLOT
PUBLIC	?enumPRET@@3UStrEnumPRET@@A			; enumPRET
PUBLIC	?FLOOR@@3UStrFloorAnalyse@@A			; FLOOR
PUBLIC	?enumEX16@@3UStrEnumEX16@@A			; enumEX16
PUBLIC	?enumSKIP@@3UStrEnumSKIP@@A			; enumSKIP
PUBLIC	?enumHOLD@@3UStrEnumHOLD@@A			; enumHOLD
PUBLIC	?enumCBT@@3UStrEnumCBT@@A			; enumCBT
PUBLIC	?enumFT@@3UStrEnumFT@@A				; enumFT
PUBLIC	?enumFL2@@3UStrEnumFL2@@A			; enumFL2
PUBLIC	?enumRIB@@3UStrEnumRIB@@A			; enumRIB
PUBLIC	?FIND@@3UStrFind@@A				; FIND
PUBLIC	?enumFL@@3UStrEnumFL@@A				; enumFL
PUBLIC	?LOF@@3UStrLOFData@@A				; LOF
PUBLIC	?enumLLF@@3UStrEnumLLF@@A			; enumLLF
PUBLIC	?enumSLEV@@3UStrEnumSLEV@@A			; enumSLEV
PUBLIC	?COLLIDE@@3UStrCollisionLast@@A			; COLLIDE
PUBLIC	?enumIRET@@3UStrEnumIRET@@A			; enumIRET
PUBLIC	?enumSRV@@3UStrEnumSRV@@A			; enumSRV
PUBLIC	?enumMESH@@3UStrEnumMESH@@A			; enumMESH
PUBLIC	?enumSTRING@@3UStrEnumSTRING@@A			; enumSTRING
PUBLIC	?enumDGX@@3UStrEnumDGX@@A			; enumDGX
PUBLIC	?enumD3D@@3UStrEnumD3D@@A			; enumD3D
PUBLIC	?enumSSLOT@@3UStrEnumSSLOT@@A			; enumSSLOT
PUBLIC	?enumORIENT@@3UStrEnumORIENT@@A			; enumORIENT
PUBLIC	?TempStaticIndex@@3GA				; TempStaticIndex
PUBLIC	?enumFIL@@3UStrEnumFIL@@A			; enumFIL
PUBLIC	?enumENV@@3UStrEnumENV@@A			; enumENV
PUBLIC	?enumADD@@3UStrEnumADD@@A			; enumADD
PUBLIC	?enumCONV@@3UStrEnumCONV@@A			; enumCONV
_BSS	SEGMENT
?enumSAVT@@3UStrEnumSAVT@@A DB 0cH DUP (?)		; enumSAVT
?enumPHASE@@3UStrEnumPHASE@@A DB 028H DUP (?)		; enumPHASE
?enumFWEAP@@3UStrEnumFWEAP@@A DB 014H DUP (?)		; enumFWEAP
?enumFSLOT@@3UStrEnumFSLOT@@A DB 034H DUP (?)		; enumFSLOT
	ALIGN	8

?enumCOLF@@3UStrEnumCOLF@@A DQ 01H DUP (?)		; enumCOLF
?enumDENV@@3UStrEnumDENV@@A DB 010H DUP (?)		; enumDENV
?enumFC@@3UStrEnumFC@@A DB 020H DUP (?)			; enumFC
?enumSMAIN@@3UStrEnumSMAIN@@A DB 014H DUP (?)		; enumSMAIN
?enumWTF@@3UStrEnumWTF@@A DB 024H DUP (?)		; enumWTF
?enumAPPC@@3UStrEnumAPPC@@A DB 03cH DUP (?)		; enumAPPC
?enumCPU@@3UStrEnumCPU@@A DB 010H DUP (?)		; enumCPU
?enumFIND@@3UStrEnumFIND@@A DB 044H DUP (?)		; enumFIND
?enumCTRET@@3UStrEnumCTRET@@A DB 020H DUP (?)		; enumCTRET
?enumFLH@@3UStrEnumFLH@@A DB 014H DUP (?)		; enumFLH
?enumCBEET@@3UStrEnumCBEET@@A DB 0cH DUP (?)		; enumCBEET
?enumJOINT@@3UStrEnumJOINT@@A DB 038H DUP (?)		; enumJOINT
?enumFITEM@@3UStrEnumFITEM@@A DB 040H DUP (?)		; enumFITEM
?enumWSKIN@@3UStrEnumWSKIN@@A DB 014H DUP (?)		; enumWSKIN
?enumSC@@3UStrEnumSC@@A DB 01cH DUP (?)			; enumSC
?enumSCANF@@3UStrEnumSCANF@@A DB 020H DUP (?)		; enumSCANF
?enumGET@@3UStrEnumGET@@A DB 074H DUP (?)		; enumGET
?enumFTS@@3UStrEnumFTS@@A DB 014H DUP (?)		; enumFTS
?enumSRET@@3UStrEnumSRET@@A DB 0cH DUP (?)		; enumSRET
?enumTRET@@3UStrEnumTRET@@A DB 010H DUP (?)		; enumTRET
?enumFROOM@@3UStrEnumFROOM@@A DB 034H DUP (?)		; enumFROOM
?enumKCOMBO@@3UStrEnumKCOMBO@@A DB 040H DUP (?)		; enumKCOMBO
?enumSLOPE@@3UStrEnumSLOPE@@A DB 014H DUP (?)		; enumSLOPE
?enumCB@@3UStrEnumCB@@A DB 0dcH DUP (?)			; enumCB
?enumCOMBO@@3UStrEnumCOMBO@@A DB 040H DUP (?)		; enumCOMBO
?GET@@3UStrGetLocator@@A DB 0254H DUP (?)		; GET
?enumFAN@@3UStrEnumFAN@@A DB 064H DUP (?)		; enumFAN
?enumPCOMBO@@3UStrEnumPCOMBO@@A DB 040H DUP (?)		; enumPCOMBO
?enumEDGX@@3UStrEnumEDGX@@A DB 020H DUP (?)		; enumEDGX
?enumCMD@@3UStrEnumCMD@@A DB 058H DUP (?)		; enumCMD
?TempRoomIndex@@3GA DW 01H DUP (?)			; TempRoomIndex
	ALIGN	4

?enumMEMT@@3UStrEnumMEMT@@A DB 018H DUP (?)		; enumMEMT
?Trng@@3UStrTrngInfos@@A DB 034H DUP (?)		; Trng
?BufferLog@@3PADA DB 01000H DUP (?)			; BufferLog
?enumSLOT@@3UStrEnumSLOT@@A DB 0824H DUP (?)		; enumSLOT
?enumPRET@@3UStrEnumPRET@@A DB 0cH DUP (?)		; enumPRET
?FLOOR@@3UStrFloorAnalyse@@A DB 04bH DUP (?)		; FLOOR
	ALIGN	4

?enumEX16@@3UStrEnumEX16@@A DB 040H DUP (?)		; enumEX16
?enumSKIP@@3UStrEnumSKIP@@A DB 02cH DUP (?)		; enumSKIP
?enumHOLD@@3UStrEnumHOLD@@A DB 044H DUP (?)		; enumHOLD
?enumCBT@@3UStrEnumCBT@@A DB 01cH DUP (?)		; enumCBT
?enumFT@@3UStrEnumFT@@A DB 020H DUP (?)			; enumFT
?enumFL2@@3UStrEnumFL2@@A DB 01cH DUP (?)		; enumFL2
?enumRIB@@3UStrEnumRIB@@A DB 034H DUP (?)		; enumRIB
?FIND@@3UStrFind@@A DB 014aeH DUP (?)			; FIND
	ALIGN	4

?enumFL@@3UStrEnumFL@@A DB 01cH DUP (?)			; enumFL
?LOF@@3UStrLOFData@@A DB 036H DUP (?)			; LOF
	ALIGN	4

?enumLLF@@3UStrEnumLLF@@A DB 014H DUP (?)		; enumLLF
?enumSLEV@@3UStrEnumSLEV@@A DB 040H DUP (?)		; enumSLEV
?COLLIDE@@3UStrCollisionLast@@A DB 03cH DUP (?)		; COLLIDE
?enumIRET@@3UStrEnumIRET@@A DB 0cH DUP (?)		; enumIRET
?enumSRV@@3UStrEnumSRV@@A DB 0f4H DUP (?)		; enumSRV
?enumMESH@@3UStrEnumMESH@@A DB 03cH DUP (?)		; enumMESH
?enumSTRING@@3UStrEnumSTRING@@A DB 030H DUP (?)		; enumSTRING
?enumDGX@@3UStrEnumDGX@@A DB 040H DUP (?)		; enumDGX
?enumD3D@@3UStrEnumD3D@@A DB 018H DUP (?)		; enumD3D
?enumSSLOT@@3UStrEnumSSLOT@@A DB 0284H DUP (?)		; enumSSLOT
?enumORIENT@@3UStrEnumORIENT@@A DB 020H DUP (?)		; enumORIENT
?TempStaticIndex@@3GA DW 01H DUP (?)			; TempStaticIndex
	ALIGN	4

?enumFIL@@3UStrEnumFIL@@A DB 018H DUP (?)		; enumFIL
?enumENV@@3UStrEnumENV@@A DB 014cH DUP (?)		; enumENV
?enumADD@@3UStrEnumADD@@A DB 020H DUP (?)		; enumADD
?enumCONV@@3UStrEnumCONV@@A DB 030H DUP (?)		; enumCONV
_BSS	ENDS
_DATA	SEGMENT
?pTombWind4@?1??SendToLog@@YA_NPADZZ@4PAKA DD 075385cH	; `SendToLog'::`2'::pTombWind4
?pTombWind4@?1??LogOnDebug@@YA_NPADZZ@4PAKA DD 075385cH	; `LogOnDebug'::`2'::pTombWind4
?pTombWind4@?1??MyMessageBox@@YAXPAD0@Z@4PAPAUHWND__@@A DD 075385cH ; `MyMessageBox'::`2'::pTombWind4
?pTombWind4@?1??TryMessageBox@@YA_NPAD@Z@4PAKA DD 075385cH ; `TryMessageBox'::`2'::pTombWind4
?p2IndiciStringheDat@?1??GetString@@YAPADH@Z@4PAPAGA DD 07fd154H ; `GetString'::`2'::p2IndiciStringheDat
?p2StringheScriptDat@?1??GetString@@YAPADH@Z@4PAPADA DD 07fd198H ; `GetString'::`2'::p2StringheScriptDat
?MexNotFound@?1??GetString@@YAPADH@Z@4PADA DB 'STRING NOT FOUND', 00H ; `GetString'::`2'::MexNotFound
_DATA	ENDS
PUBLIC	?InitialiseEnums@@YAXXZ				; InitialiseEnums
EXTRN	__RTC_Shutdown:PROC
EXTRN	__RTC_InitBase:PROC
;	COMDAT rtc$TMZ
; File c:\users\dominik\google drive\tld\script\plugin_renaissance\source\trng.cpp
rtc$TMZ	SEGMENT
__RTC_Shutdown.rtc$TMZ DD FLAT:__RTC_Shutdown
rtc$TMZ	ENDS
;	COMDAT rtc$IMZ
rtc$IMZ	SEGMENT
__RTC_InitBase.rtc$IMZ DD FLAT:__RTC_InitBase
; Function compile flags: /Odtp /RTCsu /ZI
rtc$IMZ	ENDS
;	COMDAT ?InitialiseEnums@@YAXXZ
_TEXT	SEGMENT
?InitialiseEnums@@YAXXZ PROC				; InitialiseEnums, COMDAT

; 158  : {

  00000	55		 push	 ebp
  00001	8b ec		 mov	 ebp, esp
  00003	81 ec c0 00 00
	00		 sub	 esp, 192		; 000000c0H
  00009	53		 push	 ebx
  0000a	56		 push	 esi
  0000b	57		 push	 edi
  0000c	8d bd 40 ff ff
	ff		 lea	 edi, DWORD PTR [ebp-192]
  00012	b9 30 00 00 00	 mov	 ecx, 48			; 00000030H
  00017	b8 cc cc cc cc	 mov	 eax, -858993460		; ccccccccH
  0001c	f3 ab		 rep stosd

; 159  : //  --------------- LOAD CONSTANTS FOR ENUM STRUCTURE: enumD3D----------------------
; 160  : 	enumD3D.NO_LIGHT = D3D_NO_LIGHT;

  0001e	c7 05 00 00 00
	00 ff ff ff ff	 mov	 DWORD PTR ?enumD3D@@3UStrEnumD3D@@A, -1

; 161  : 	enumD3D.SUN = D3D_SUN;

  00028	c7 05 04 00 00
	00 00 00 00 00	 mov	 DWORD PTR ?enumD3D@@3UStrEnumD3D@@A+4, 0

; 162  : 	enumD3D.LIGHT = D3D_LIGHT;

  00032	c7 05 08 00 00
	00 01 00 00 00	 mov	 DWORD PTR ?enumD3D@@3UStrEnumD3D@@A+8, 1

; 163  : 	enumD3D.SPOT_OR_EFFECT = D3D_SPOT_OR_EFFECT;

  0003c	c7 05 0c 00 00
	00 02 00 00 00	 mov	 DWORD PTR ?enumD3D@@3UStrEnumD3D@@A+12, 2

; 164  : 	enumD3D.SHADOW = D3D_SHADOW;

  00046	c7 05 10 00 00
	00 03 00 00 00	 mov	 DWORD PTR ?enumD3D@@3UStrEnumD3D@@A+16, 3

; 165  : 	enumD3D.FOG_BULB = D3D_FOG_BULB;

  00050	c7 05 14 00 00
	00 04 00 00 00	 mov	 DWORD PTR ?enumD3D@@3UStrEnumD3D@@A+20, 4

; 166  : 
; 167  : //  --------------- LOAD CONSTANTS FOR ENUM STRUCTURE: enumCOLF----------------------
; 168  : 	enumCOLF.WINDOWS_COLOR = COLF_WINDOWS_COLOR;

  0005a	c7 05 00 00 00
	00 00 00 00 00	 mov	 DWORD PTR ?enumCOLF@@3UStrEnumCOLF@@A, 0

; 169  : 	enumCOLF.TOMB_COLOR = COLF_TOMB_COLOR;

  00064	c7 05 04 00 00
	00 01 00 00 00	 mov	 DWORD PTR ?enumCOLF@@3UStrEnumCOLF@@A+4, 1

; 170  : 
; 171  : //  --------------- LOAD CONSTANTS FOR ENUM STRUCTURE: enumFIL----------------------
; 172  : 	enumFIL.FROM_SAVEGAME = FIL_FROM_SAVEGAME;

  0006e	c7 05 00 00 00
	00 01 00 00 00	 mov	 DWORD PTR ?enumFIL@@3UStrEnumFIL@@A, 1

; 173  : 	enumFIL.FROM_NEW_LEVEL = FIL_FROM_NEW_LEVEL;

  00078	c7 05 04 00 00
	00 02 00 00 00	 mov	 DWORD PTR ?enumFIL@@3UStrEnumFIL@@A+4, 2

; 174  : 	enumFIL.FROM_LEVEL_JUMP = FIL_FROM_LEVEL_JUMP;

  00082	c7 05 08 00 00
	00 04 00 00 00	 mov	 DWORD PTR ?enumFIL@@3UStrEnumFIL@@A+8, 4

; 175  : 	enumFIL.PRESERVE_LARA = FIL_PRESERVE_LARA;

  0008c	c7 05 0c 00 00
	00 08 00 00 00	 mov	 DWORD PTR ?enumFIL@@3UStrEnumFIL@@A+12, 8

; 176  : 	enumFIL.PRESERVE_LEVEL = FIL_PRESERVE_LEVEL;

  00096	c7 05 10 00 00
	00 10 00 00 00	 mov	 DWORD PTR ?enumFIL@@3UStrEnumFIL@@A+16, 16 ; 00000010H

; 177  : 	enumFIL.FROM_LIKE_SAVEGAME = FIL_FROM_LIKE_SAVEGAME;

  000a0	c7 05 14 00 00
	00 20 00 00 00	 mov	 DWORD PTR ?enumFIL@@3UStrEnumFIL@@A+20, 32 ; 00000020H

; 178  : 
; 179  : //  --------------- LOAD CONSTANTS FOR ENUM STRUCTURE: enumSAVT----------------------
; 180  : 	enumSAVT.LOCAL_DATA = SAVT_LOCAL_DATA;

  000aa	c7 05 00 00 00
	00 01 00 00 00	 mov	 DWORD PTR ?enumSAVT@@3UStrEnumSAVT@@A, 1

; 181  : 	enumSAVT.GLOBAL_DATA = SAVT_GLOBAL_DATA;

  000b4	c7 05 04 00 00
	00 02 00 00 00	 mov	 DWORD PTR ?enumSAVT@@3UStrEnumSAVT@@A+4, 2

; 182  : 	enumSAVT.COMPLETED = SAVT_COMPLETED;

  000be	c7 05 08 00 00
	00 00 08 00 00	 mov	 DWORD PTR ?enumSAVT@@3UStrEnumSAVT@@A+8, 2048 ; 00000800H

; 183  : 
; 184  : //  --------------- LOAD CONSTANTS FOR ENUM STRUCTURE: enumCONV----------------------
; 185  : 	enumCONV.ItemIndexFromNgleToTomb = CONV_ItemIndexFromNgleToTomb;

  000c8	c7 05 00 00 00
	00 01 00 00 00	 mov	 DWORD PTR ?enumCONV@@3UStrEnumCONV@@A, 1

; 186  : 	enumCONV.ItemIndexFromTombToNgle = CONV_ItemIndexFromTombToNgle;

  000d2	c7 05 04 00 00
	00 02 00 00 00	 mov	 DWORD PTR ?enumCONV@@3UStrEnumCONV@@A+4, 2

; 187  : 	enumCONV.StaticIndexFromNgleToTomb = CONV_StaticIndexFromNgleToTomb;

  000dc	c7 05 08 00 00
	00 03 00 00 00	 mov	 DWORD PTR ?enumCONV@@3UStrEnumCONV@@A+8, 3

; 188  : 	enumCONV.StaticIndexFromTombToNgle = CONV_StaticIndexFromTombToNgle;

  000e6	c7 05 0c 00 00
	00 04 00 00 00	 mov	 DWORD PTR ?enumCONV@@3UStrEnumCONV@@A+12, 4

; 189  : 	enumCONV.RectFromMicroUnitsToPixels = CONV_RectFromMicroUnitsToPixels;

  000f0	c7 05 10 00 00
	00 05 00 00 00	 mov	 DWORD PTR ?enumCONV@@3UStrEnumCONV@@A+16, 5

; 190  : 	enumCONV.AnimIndexFromRelativeToAbs = CONV_AnimIndexFromRelativeToAbs;

  000fa	c7 05 14 00 00
	00 06 00 00 00	 mov	 DWORD PTR ?enumCONV@@3UStrEnumCONV@@A+20, 6

; 191  : 	enumCONV.AnimIndexFromAbsToRelative = CONV_AnimIndexFromAbsToRelative;

  00104	c7 05 18 00 00
	00 07 00 00 00	 mov	 DWORD PTR ?enumCONV@@3UStrEnumCONV@@A+24, 7

; 192  : 	enumCONV.ItemFromStrItemTr4ToIndex = CONV_ItemFromStrItemTr4ToIndex;

  0010e	c7 05 1c 00 00
	00 08 00 00 00	 mov	 DWORD PTR ?enumCONV@@3UStrEnumCONV@@A+28, 8

; 193  : 	enumCONV.RoomIndexFromNgleToTomb = CONV_RoomIndexFromNgleToTomb;

  00118	c7 05 20 00 00
	00 09 00 00 00	 mov	 DWORD PTR ?enumCONV@@3UStrEnumCONV@@A+32, 9

; 194  : 	enumCONV.RoomIndexFromTombToNgle = CONV_RoomIndexFromTombToNgle;

  00122	c7 05 24 00 00
	00 0a 00 00 00	 mov	 DWORD PTR ?enumCONV@@3UStrEnumCONV@@A+36, 10 ; 0000000aH

; 195  : 	enumCONV.FrameIndexFromAbsToRelative = CONV_FrameIndexFromAbsToRelative;

  0012c	c7 05 28 00 00
	00 0b 00 00 00	 mov	 DWORD PTR ?enumCONV@@3UStrEnumCONV@@A+40, 11 ; 0000000bH

; 196  : 	enumCONV.FrameIndexFromRelativeToAbs = CONV_FrameIndexFromRelativeToAbs;

  00136	c7 05 2c 00 00
	00 0c 00 00 00	 mov	 DWORD PTR ?enumCONV@@3UStrEnumCONV@@A+44, 12 ; 0000000cH

; 197  : 
; 198  : //  --------------- LOAD CONSTANTS FOR ENUM STRUCTURE: enumFL----------------------
; 199  : 	enumFL.HOLDS_FLARE_OR_TORCH = FL_HOLDS_FLARE_OR_TORCH;

  00140	c7 05 00 00 00
	00 01 00 00 00	 mov	 DWORD PTR ?enumFL@@3UStrEnumFL@@A, 1

; 200  : 	enumFL.UNKNOWN_02 = FL_UNKNOWN_02;

  0014a	c7 05 04 00 00
	00 02 00 00 00	 mov	 DWORD PTR ?enumFL@@3UStrEnumFL@@A+4, 2

; 201  : 	enumFL.SPECIAL_STATE = FL_SPECIAL_STATE;

  00154	c7 05 08 00 00
	00 04 00 00 00	 mov	 DWORD PTR ?enumFL@@3UStrEnumFL@@A+8, 4

; 202  : 	enumFL.IS_BURNING = FL_IS_BURNING;

  0015e	c7 05 0c 00 00
	00 08 00 00 00	 mov	 DWORD PTR ?enumFL@@3UStrEnumFL@@A+12, 8

; 203  : 	enumFL.ON_ALL_FOUR = FL_ON_ALL_FOUR;

  00168	c7 05 10 00 00
	00 10 00 00 00	 mov	 DWORD PTR ?enumFL@@3UStrEnumFL@@A+16, 16 ; 00000010H

; 204  : 	enumFL.SELF_ALIGNMENT = FL_SELF_ALIGNMENT;

  00172	c7 05 14 00 00
	00 20 00 00 00	 mov	 DWORD PTR ?enumFL@@3UStrEnumFL@@A+20, 32 ; 00000020H

; 205  : 	enumFL.UNDER_MONKEY_SECTOR = FL_UNDER_MONKEY_SECTOR;

  0017c	c7 05 18 00 00
	00 40 00 00 00	 mov	 DWORD PTR ?enumFL@@3UStrEnumFL@@A+24, 64 ; 00000040H

; 206  : 
; 207  : //  --------------- LOAD CONSTANTS FOR ENUM STRUCTURE: enumRIB----------------------
; 208  : 	enumRIB.ONLY_DIGITS = RIB_ONLY_DIGITS;

  00186	c7 05 00 00 00
	00 01 00 00 00	 mov	 DWORD PTR ?enumRIB@@3UStrEnumRIB@@A, 1

; 209  : 	enumRIB.ONLY_LETTERS = RIB_ONLY_LETTERS;

  00190	c7 05 04 00 00
	00 02 00 00 00	 mov	 DWORD PTR ?enumRIB@@3UStrEnumRIB@@A+4, 2

; 210  : 	enumRIB.HIDE_CARET = RIB_HIDE_CARET;

  0019a	c7 05 08 00 00
	00 04 00 00 00	 mov	 DWORD PTR ?enumRIB@@3UStrEnumRIB@@A+8, 4

; 211  : 	enumRIB.BLINK_CARET = RIB_BLINK_CARET;

  001a4	c7 05 0c 00 00
	00 08 00 00 00	 mov	 DWORD PTR ?enumRIB@@3UStrEnumRIB@@A+12, 8

; 212  : 	enumRIB.SOUND_ON_KEY = RIB_SOUND_ON_KEY;

  001ae	c7 05 10 00 00
	00 10 00 00 00	 mov	 DWORD PTR ?enumRIB@@3UStrEnumRIB@@A+16, 16 ; 00000010H

; 213  : 	enumRIB.PRINT_ONLY = RIB_PRINT_ONLY;

  001b8	c7 05 14 00 00
	00 20 00 00 00	 mov	 DWORD PTR ?enumRIB@@3UStrEnumRIB@@A+20, 32 ; 00000020H

; 214  : 	enumRIB.ALIGN_CENTER = RIB_ALIGN_CENTER;

  001c2	c7 05 18 00 00
	00 40 00 00 00	 mov	 DWORD PTR ?enumRIB@@3UStrEnumRIB@@A+24, 64 ; 00000040H

; 215  : 	enumRIB.ONLY_CAPS = RIB_ONLY_CAPS;

  001cc	c7 05 1c 00 00
	00 80 00 00 00	 mov	 DWORD PTR ?enumRIB@@3UStrEnumRIB@@A+28, 128 ; 00000080H

; 216  : 	enumRIB.PRINT_BIG_TEXT = RIB_PRINT_BIG_TEXT;

  001d6	c7 05 20 00 00
	00 00 01 00 00	 mov	 DWORD PTR ?enumRIB@@3UStrEnumRIB@@A+32, 256 ; 00000100H

; 217  : 	enumRIB.INPUT_BELOW_BIG_TEXT = RIB_INPUT_BELOW_BIG_TEXT;

  001e0	c7 05 24 00 00
	00 00 02 00 00	 mov	 DWORD PTR ?enumRIB@@3UStrEnumRIB@@A+36, 512 ; 00000200H

; 218  : 	enumRIB.ADD_SCANCODE_LIST = RIB_ADD_SCANCODE_LIST;

  001ea	c7 05 28 00 00
	00 00 04 00 00	 mov	 DWORD PTR ?enumRIB@@3UStrEnumRIB@@A+40, 1024 ; 00000400H

; 219  : 	enumRIB.SHORTCUT_KEY = RIB_SHORTCUT_KEY;

  001f4	c7 05 2c 00 00
	00 00 08 00 00	 mov	 DWORD PTR ?enumRIB@@3UStrEnumRIB@@A+44, 2048 ; 00000800H

; 220  : 	enumRIB.HIDE_TEXT = RIB_HIDE_TEXT;

  001fe	c7 05 30 00 00
	00 00 10 00 00	 mov	 DWORD PTR ?enumRIB@@3UStrEnumRIB@@A+48, 4096 ; 00001000H

; 221  : 
; 222  : //  --------------- LOAD CONSTANTS FOR ENUM STRUCTURE: enumWTF----------------------
; 223  : 	enumWTF.FLYING_TEXT = WTF_FLYING_TEXT;

  00208	c7 05 00 00 00
	00 01 00 00 00	 mov	 DWORD PTR ?enumWTF@@3UStrEnumWTF@@A, 1

; 224  : 	enumWTF.PULSING_TEXT = WTF_PULSING_TEXT;

  00212	c7 05 04 00 00
	00 02 00 00 00	 mov	 DWORD PTR ?enumWTF@@3UStrEnumWTF@@A+4, 2

; 225  : 	enumWTF.CHANGE_COLOR = WTF_CHANGE_COLOR;

  0021c	c7 05 08 00 00
	00 04 00 00 00	 mov	 DWORD PTR ?enumWTF@@3UStrEnumWTF@@A+8, 4

; 226  : 	enumWTF.OVER_INVENTORY = WTF_OVER_INVENTORY;

  00226	c7 05 0c 00 00
	00 08 00 00 00	 mov	 DWORD PTR ?enumWTF@@3UStrEnumWTF@@A+12, 8

; 227  : 	enumWTF.OVER_IMAGE = WTF_OVER_IMAGE;

  00230	c7 05 10 00 00
	00 10 00 00 00	 mov	 DWORD PTR ?enumWTF@@3UStrEnumWTF@@A+16, 16 ; 00000010H

; 228  : 	enumWTF.OVER_FLYCAMERA = WTF_OVER_FLYCAMERA;

  0023a	c7 05 14 00 00
	00 20 00 00 00	 mov	 DWORD PTR ?enumWTF@@3UStrEnumWTF@@A+20, 32 ; 00000020H

; 229  : 	enumWTF.OVER_FIXCAMERA = WTF_OVER_FIXCAMERA;

  00244	c7 05 18 00 00
	00 40 00 00 00	 mov	 DWORD PTR ?enumWTF@@3UStrEnumWTF@@A+24, 64 ; 00000040H

; 230  : 	enumWTF.OVER_BINOCULAR = WTF_OVER_BINOCULAR;

  0024e	c7 05 1c 00 00
	00 80 00 00 00	 mov	 DWORD PTR ?enumWTF@@3UStrEnumWTF@@A+28, 128 ; 00000080H

; 231  : 	enumWTF.OVER_LASER_SIGHT = WTF_OVER_LASER_SIGHT;

  00258	c7 05 20 00 00
	00 00 01 00 00	 mov	 DWORD PTR ?enumWTF@@3UStrEnumWTF@@A+32, 256 ; 00000100H

; 232  : 
; 233  : //  --------------- LOAD CONSTANTS FOR ENUM STRUCTURE: enumFT----------------------
; 234  : 	enumFT.HALF_SIZEX = FT_HALF_SIZEX;

  00262	c7 05 00 00 00
	00 01 00 00 00	 mov	 DWORD PTR ?enumFT@@3UStrEnumFT@@A, 1

; 235  : 	enumFT.HALF_SIZEY = FT_HALF_SIZEY;

  0026c	c7 05 04 00 00
	00 02 00 00 00	 mov	 DWORD PTR ?enumFT@@3UStrEnumFT@@A+4, 2

; 236  : 	enumFT.DOUBLE_SIZEX = FT_DOUBLE_SIZEX;

  00276	c7 05 08 00 00
	00 04 00 00 00	 mov	 DWORD PTR ?enumFT@@3UStrEnumFT@@A+8, 4

; 237  : 	enumFT.DOUBLE_SIZEY = FT_DOUBLE_SIZEY;

  00280	c7 05 0c 00 00
	00 08 00 00 00	 mov	 DWORD PTR ?enumFT@@3UStrEnumFT@@A+12, 8

; 238  : 	enumFT.LITTLE_ALWAYS = FT_LITTLE_ALWAYS;

  0028a	c7 05 10 00 00
	00 10 00 00 00	 mov	 DWORD PTR ?enumFT@@3UStrEnumFT@@A+16, 16 ; 00000010H

; 239  : 	enumFT.USE_FLOAT = FT_USE_FLOAT;

  00294	c7 05 14 00 00
	00 20 00 00 00	 mov	 DWORD PTR ?enumFT@@3UStrEnumFT@@A+20, 32 ; 00000020H

; 240  : 	enumFT.NO_BORDERS = FT_NO_BORDERS;

  0029e	c7 05 18 00 00
	00 40 00 00 00	 mov	 DWORD PTR ?enumFT@@3UStrEnumFT@@A+24, 64 ; 00000040H

; 241  : 	enumFT.SIZE_ATOMIC_CHAR = FT_SIZE_ATOMIC_CHAR;

  002a8	c7 05 1c 00 00
	00 80 00 00 00	 mov	 DWORD PTR ?enumFT@@3UStrEnumFT@@A+28, 128 ; 00000080H

; 242  : 
; 243  : //  --------------- LOAD CONSTANTS FOR ENUM STRUCTURE: enumFTS----------------------
; 244  : 	enumFTS.ALIGN_LEFT = FTS_ALIGN_LEFT;

  002b2	c7 05 00 00 00
	00 00 00 00 00	 mov	 DWORD PTR ?enumFTS@@3UStrEnumFTS@@A, 0

; 245  : 	enumFTS.STRETCH_TEXT = FTS_STRETCH_TEXT;

  002bc	c7 05 04 00 00
	00 00 10 00 00	 mov	 DWORD PTR ?enumFTS@@3UStrEnumFTS@@A+4, 4096 ; 00001000H

; 246  : 	enumFTS.BLINK = FTS_BLINK;

  002c6	c7 05 08 00 00
	00 00 20 00 00	 mov	 DWORD PTR ?enumFTS@@3UStrEnumFTS@@A+8, 8192 ; 00002000H

; 247  : 	enumFTS.ALIGN_RIGHT = FTS_ALIGN_RIGHT;

  002d0	c7 05 0c 00 00
	00 00 40 00 00	 mov	 DWORD PTR ?enumFTS@@3UStrEnumFTS@@A+12, 16384 ; 00004000H

; 248  : 	enumFTS.ALIGN_CENTER = FTS_ALIGN_CENTER;

  002da	c7 05 10 00 00
	00 00 80 00 00	 mov	 DWORD PTR ?enumFTS@@3UStrEnumFTS@@A+16, 32768 ; 00008000H

; 249  : 
; 250  : //  --------------- LOAD CONSTANTS FOR ENUM STRUCTURE: enumFC----------------------
; 251  : 	enumFC.WHITE_PULSE = FC_WHITE_PULSE;

  002e4	c7 05 00 00 00
	00 01 00 00 00	 mov	 DWORD PTR ?enumFC@@3UStrEnumFC@@A, 1

; 252  : 	enumFC.WHITE = FC_WHITE;

  002ee	c7 05 04 00 00
	00 02 00 00 00	 mov	 DWORD PTR ?enumFC@@3UStrEnumFC@@A+4, 2

; 253  : 	enumFC.RED = FC_RED;

  002f8	c7 05 08 00 00
	00 03 00 00 00	 mov	 DWORD PTR ?enumFC@@3UStrEnumFC@@A+8, 3

; 254  : 	enumFC.BLUE = FC_BLUE;

  00302	c7 05 0c 00 00
	00 04 00 00 00	 mov	 DWORD PTR ?enumFC@@3UStrEnumFC@@A+12, 4

; 255  : 	enumFC.LIGHT_GRAY = FC_LIGHT_GRAY;

  0030c	c7 05 10 00 00
	00 05 00 00 00	 mov	 DWORD PTR ?enumFC@@3UStrEnumFC@@A+16, 5

; 256  : 	enumFC.GOLD = FC_GOLD;

  00316	c7 05 14 00 00
	00 06 00 00 00	 mov	 DWORD PTR ?enumFC@@3UStrEnumFC@@A+20, 6

; 257  : 	enumFC.DARK_GRAY = FC_DARK_GRAY;

  00320	c7 05 18 00 00
	00 07 00 00 00	 mov	 DWORD PTR ?enumFC@@3UStrEnumFC@@A+24, 7

; 258  : 	enumFC.YELLOW = FC_YELLOW;

  0032a	c7 05 1c 00 00
	00 08 00 00 00	 mov	 DWORD PTR ?enumFC@@3UStrEnumFC@@A+28, 8

; 259  : 
; 260  : //  --------------- LOAD CONSTANTS FOR ENUM STRUCTURE: enumPRET----------------------
; 261  : 	enumPRET.OK = PRET_OK;

  00334	c7 05 00 00 00
	00 00 00 00 00	 mov	 DWORD PTR ?enumPRET@@3UStrEnumPRET@@A, 0

; 262  : 	enumPRET.GO_TO_TITLE = PRET_GO_TO_TITLE;

  0033e	c7 05 04 00 00
	00 01 00 00 00	 mov	 DWORD PTR ?enumPRET@@3UStrEnumPRET@@A+4, 1

; 263  : 	enumPRET.EXECUTE_ORIGINAL = PRET_EXECUTE_ORIGINAL;

  00348	c7 05 08 00 00
	00 02 00 00 00	 mov	 DWORD PTR ?enumPRET@@3UStrEnumPRET@@A+8, 2

; 264  : 
; 265  : //  --------------- LOAD CONSTANTS FOR ENUM STRUCTURE: enumPHASE----------------------
; 266  : 	enumPHASE.INVENTORY_MAIN = PHASE_INVENTORY_MAIN;

  00352	c7 05 00 00 00
	00 01 00 00 00	 mov	 DWORD PTR ?enumPHASE@@3UStrEnumPHASE@@A, 1

; 267  : 	enumPHASE.PAUSE_SCREEN = PHASE_PAUSE_SCREEN;

  0035c	c7 05 04 00 00
	00 02 00 00 00	 mov	 DWORD PTR ?enumPHASE@@3UStrEnumPHASE@@A+4, 2

; 268  : 	enumPHASE.LOAD_GAME_PANEL = PHASE_LOAD_GAME_PANEL;

  00366	c7 05 08 00 00
	00 03 00 00 00	 mov	 DWORD PTR ?enumPHASE@@3UStrEnumPHASE@@A+8, 3

; 269  : 	enumPHASE.SAVE_GAME_PANEL = PHASE_SAVE_GAME_PANEL;

  00370	c7 05 0c 00 00
	00 04 00 00 00	 mov	 DWORD PTR ?enumPHASE@@3UStrEnumPHASE@@A+12, 4

; 270  : 	enumPHASE.OPTIONS = PHASE_OPTIONS;

  0037a	c7 05 10 00 00
	00 05 00 00 00	 mov	 DWORD PTR ?enumPHASE@@3UStrEnumPHASE@@A+16, 5

; 271  : 	enumPHASE.OPTION_COMMANDS = PHASE_OPTION_COMMANDS;

  00384	c7 05 14 00 00
	00 06 00 00 00	 mov	 DWORD PTR ?enumPHASE@@3UStrEnumPHASE@@A+20, 6

; 272  : 	enumPHASE.STATISTICS = PHASE_STATISTICS;

  0038e	c7 05 18 00 00
	00 07 00 00 00	 mov	 DWORD PTR ?enumPHASE@@3UStrEnumPHASE@@A+24, 7

; 273  : 	enumPHASE.NEW_LEVEL = PHASE_NEW_LEVEL;

  00398	c7 05 1c 00 00
	00 08 00 00 00	 mov	 DWORD PTR ?enumPHASE@@3UStrEnumPHASE@@A+28, 8

; 274  : 	enumPHASE.TITLE_MENU = PHASE_TITLE_MENU;

  003a2	c7 05 20 00 00
	00 09 00 00 00	 mov	 DWORD PTR ?enumPHASE@@3UStrEnumPHASE@@A+32, 9

; 275  : 	enumPHASE.INVENTORY_EXAMINE = PHASE_INVENTORY_EXAMINE;

  003ac	c7 05 24 00 00
	00 0a 00 00 00	 mov	 DWORD PTR ?enumPHASE@@3UStrEnumPHASE@@A+36, 10 ; 0000000aH

; 276  : 
; 277  : //  --------------- LOAD CONSTANTS FOR ENUM STRUCTURE: enumIRET----------------------
; 278  : 	enumIRET.OK = IRET_OK;

  003b6	c7 05 00 00 00
	00 00 00 00 00	 mov	 DWORD PTR ?enumIRET@@3UStrEnumIRET@@A, 0

; 279  : 	enumIRET.SKIP_ORIGINAL = IRET_SKIP_ORIGINAL;

  003c0	c7 05 04 00 00
	00 01 00 00 00	 mov	 DWORD PTR ?enumIRET@@3UStrEnumIRET@@A+4, 1

; 280  : 	enumIRET.LOADED_GAME = IRET_LOADED_GAME;

  003ca	c7 05 08 00 00
	00 02 00 00 00	 mov	 DWORD PTR ?enumIRET@@3UStrEnumIRET@@A+8, 2

; 281  : 
; 282  : //  --------------- LOAD CONSTANTS FOR ENUM STRUCTURE: enumCPU----------------------
; 283  : 	enumCPU.CARRY = CPU_CARRY;

  003d4	c7 05 00 00 00
	00 01 00 00 00	 mov	 DWORD PTR ?enumCPU@@3UStrEnumCPU@@A, 1

; 284  : 	enumCPU.PARITY = CPU_PARITY;

  003de	c7 05 04 00 00
	00 04 00 00 00	 mov	 DWORD PTR ?enumCPU@@3UStrEnumCPU@@A+4, 4

; 285  : 	enumCPU.ZERO = CPU_ZERO;

  003e8	c7 05 08 00 00
	00 40 00 00 00	 mov	 DWORD PTR ?enumCPU@@3UStrEnumCPU@@A+8, 64 ; 00000040H

; 286  : 	enumCPU.SIGN = CPU_SIGN;

  003f2	c7 05 0c 00 00
	00 80 00 00 00	 mov	 DWORD PTR ?enumCPU@@3UStrEnumCPU@@A+12, 128 ; 00000080H

; 287  : 
; 288  : //  --------------- LOAD CONSTANTS FOR ENUM STRUCTURE: enumAPPC----------------------
; 289  : 	enumAPPC.OK = APPC_OK;

  003fc	c7 05 00 00 00
	00 00 00 00 00	 mov	 DWORD PTR ?enumAPPC@@3UStrEnumAPPC@@A, 0

; 290  : 	enumAPPC.WARN_PATCH_ALREADY_PERFORMED = APPC_WARN_PATCH_ALREADY_PERFORMED;

  00406	c7 05 04 00 00
	00 01 00 00 00	 mov	 DWORD PTR ?enumAPPC@@3UStrEnumAPPC@@A+4, 1

; 291  : 	enumAPPC.WARN_PLUGIN_REMOVED_RELOCATION_OF_PROCEDURE = APPC_WARN_PLUGIN_REMOVED_RELOCATION_OF_PROCEDURE;

  00410	c7 05 08 00 00
	00 02 00 00 00	 mov	 DWORD PTR ?enumAPPC@@3UStrEnumAPPC@@A+8, 2

; 292  : 	enumAPPC.WARN_PATCH_IN_A_RILOC_RESTORED_PROCEDURE = APPC_WARN_PATCH_IN_A_RILOC_RESTORED_PROCEDURE;

  0041a	c7 05 0c 00 00
	00 03 00 00 00	 mov	 DWORD PTR ?enumAPPC@@3UStrEnumAPPC@@A+12, 3

; 293  : 	enumAPPC.WARN_PATCH_OVER_OLD_PATCH = APPC_WARN_PATCH_OVER_OLD_PATCH;

  00424	c7 05 10 00 00
	00 04 00 00 00	 mov	 DWORD PTR ?enumAPPC@@3UStrEnumAPPC@@A+16, 4

; 294  : 	enumAPPC.WARN_PATCH_OVER_CHANGED_ARGUMENTS = APPC_WARN_PATCH_OVER_CHANGED_ARGUMENTS;

  0042e	c7 05 14 00 00
	00 05 00 00 00	 mov	 DWORD PTR ?enumAPPC@@3UStrEnumAPPC@@A+20, 5

; 295  : 	enumAPPC.ERROR_PLUGIN_ID_UNREGISTERED = APPC_ERROR_PLUGIN_ID_UNREGISTERED;

  00438	c7 05 18 00 00
	00 ff ff ff ff	 mov	 DWORD PTR ?enumAPPC@@3UStrEnumAPPC@@A+24, -1

; 296  : 	enumAPPC.ERROR_PATCH_OVERLAPPED_TO_RUNTIME_PATCH = APPC_ERROR_PATCH_OVERLAPPED_TO_RUNTIME_PATCH;

  00442	c7 05 1c 00 00
	00 fe ff ff ff	 mov	 DWORD PTR ?enumAPPC@@3UStrEnumAPPC@@A+28, -2 ; fffffffeH

; 297  : 	enumAPPC.ERROR_PATCH_IN_RILOCATED_PROCEDURE = APPC_ERROR_PATCH_IN_RILOCATED_PROCEDURE;

  0044c	c7 05 20 00 00
	00 fd ff ff ff	 mov	 DWORD PTR ?enumAPPC@@3UStrEnumAPPC@@A+32, -3 ; fffffffdH

; 298  : 	enumAPPC.ERROR_NOT_FOUND_TOMB4_IMAGE = APPC_ERROR_NOT_FOUND_TOMB4_IMAGE;

  00456	c7 05 24 00 00
	00 fc ff ff ff	 mov	 DWORD PTR ?enumAPPC@@3UStrEnumAPPC@@A+36, -4 ; fffffffcH

; 299  : 	enumAPPC.ERROR_RESTORE_ZONE_OUTSIDE_CODE_RANGE = APPC_ERROR_RESTORE_ZONE_OUTSIDE_CODE_RANGE;

  00460	c7 05 28 00 00
	00 fb ff ff ff	 mov	 DWORD PTR ?enumAPPC@@3UStrEnumAPPC@@A+40, -5 ; fffffffbH

; 300  : 	enumAPPC.ERROR_WRONG_PATCH_FOR_RUN_TIME = APPC_ERROR_WRONG_PATCH_FOR_RUN_TIME;

  0046a	c7 05 2c 00 00
	00 fa ff ff ff	 mov	 DWORD PTR ?enumAPPC@@3UStrEnumAPPC@@A+44, -6 ; fffffffaH

; 301  : 	enumAPPC.ERROR_PATCH_OUTSIDE_CODE_SEGMENT = APPC_ERROR_PATCH_OUTSIDE_CODE_SEGMENT;

  00474	c7 05 30 00 00
	00 f9 ff ff ff	 mov	 DWORD PTR ?enumAPPC@@3UStrEnumAPPC@@A+48, -7 ; fffffff9H

; 302  : 	enumAPPC.ERROR_PATCH_OVERLAPPED_TO_RESERVED_ZONE = APPC_ERROR_PATCH_OVERLAPPED_TO_RESERVED_ZONE;

  0047e	c7 05 34 00 00
	00 f8 ff ff ff	 mov	 DWORD PTR ?enumAPPC@@3UStrEnumAPPC@@A+52, -8 ; fffffff8H

; 303  : 	enumAPPC.ERROR_RESERVED_ZONE_ALREADY_USED = APPC_ERROR_RESERVED_ZONE_ALREADY_USED;

  00488	c7 05 38 00 00
	00 f7 ff ff ff	 mov	 DWORD PTR ?enumAPPC@@3UStrEnumAPPC@@A+56, -9 ; fffffff7H

; 304  : 
; 305  : //  --------------- LOAD CONSTANTS FOR ENUM STRUCTURE: enumCB----------------------
; 306  : 	enumCB.INIT_PROGRAM = CB_INIT_PROGRAM;

  00492	c7 05 00 00 00
	00 00 00 00 00	 mov	 DWORD PTR ?enumCB@@3UStrEnumCB@@A, 0

; 307  : 	enumCB.SAVING_GAME = CB_SAVING_GAME;

  0049c	c7 05 04 00 00
	00 01 00 00 00	 mov	 DWORD PTR ?enumCB@@3UStrEnumCB@@A+4, 1

; 308  : 	enumCB.LOADING_GAME = CB_LOADING_GAME;

  004a6	c7 05 08 00 00
	00 02 00 00 00	 mov	 DWORD PTR ?enumCB@@3UStrEnumCB@@A+8, 2

; 309  : 	enumCB.INIT_GAME = CB_INIT_GAME;

  004b0	c7 05 0c 00 00
	00 03 00 00 00	 mov	 DWORD PTR ?enumCB@@3UStrEnumCB@@A+12, 3

; 310  : 	enumCB.INIT_LOAD_NEW_LEVEL = CB_INIT_LOAD_NEW_LEVEL;

  004ba	c7 05 10 00 00
	00 04 00 00 00	 mov	 DWORD PTR ?enumCB@@3UStrEnumCB@@A+16, 4

; 311  : 	enumCB.FLIPEFFECT_MINE = CB_FLIPEFFECT_MINE;

  004c4	c7 05 14 00 00
	00 05 00 00 00	 mov	 DWORD PTR ?enumCB@@3UStrEnumCB@@A+20, 5

; 312  : 	enumCB.ACTION_MINE = CB_ACTION_MINE;

  004ce	c7 05 18 00 00
	00 06 00 00 00	 mov	 DWORD PTR ?enumCB@@3UStrEnumCB@@A+24, 6

; 313  : 	enumCB.CONDITION_MINE = CB_CONDITION_MINE;

  004d8	c7 05 1c 00 00
	00 07 00 00 00	 mov	 DWORD PTR ?enumCB@@3UStrEnumCB@@A+28, 7

; 314  : 	enumCB.CUSTOMIZE_MINE = CB_CUSTOMIZE_MINE;

  004e2	c7 05 20 00 00
	00 08 00 00 00	 mov	 DWORD PTR ?enumCB@@3UStrEnumCB@@A+32, 8

; 315  : 	enumCB.PARAMETER_MINE = CB_PARAMETER_MINE;

  004ec	c7 05 24 00 00
	00 09 00 00 00	 mov	 DWORD PTR ?enumCB@@3UStrEnumCB@@A+36, 9

; 316  : 	enumCB.CYCLE_BEGIN = CB_CYCLE_BEGIN;

  004f6	c7 05 28 00 00
	00 0a 00 00 00	 mov	 DWORD PTR ?enumCB@@3UStrEnumCB@@A+40, 10 ; 0000000aH

; 317  : 	enumCB.CYCLE_END = CB_CYCLE_END;

  00500	c7 05 2c 00 00
	00 0b 00 00 00	 mov	 DWORD PTR ?enumCB@@3UStrEnumCB@@A+44, 11 ; 0000000bH

; 318  : 	enumCB.GLOBAL_TRIGGER = CB_GLOBAL_TRIGGER;

  0050a	c7 05 30 00 00
	00 0c 00 00 00	 mov	 DWORD PTR ?enumCB@@3UStrEnumCB@@A+48, 12 ; 0000000cH

; 319  : 	enumCB.INIT_OBJECTS = CB_INIT_OBJECTS;

  00514	c7 05 34 00 00
	00 0d 00 00 00	 mov	 DWORD PTR ?enumCB@@3UStrEnumCB@@A+52, 13 ; 0000000dH

; 320  : 	enumCB.PROGR_ACTION_MINE = CB_PROGR_ACTION_MINE;

  0051e	c7 05 38 00 00
	00 0e 00 00 00	 mov	 DWORD PTR ?enumCB@@3UStrEnumCB@@A+56, 14 ; 0000000eH

; 321  : 	enumCB.PROGR_ACTION_DRAW_MINE = CB_PROGR_ACTION_DRAW_MINE;

  00528	c7 05 3c 00 00
	00 0f 00 00 00	 mov	 DWORD PTR ?enumCB@@3UStrEnumCB@@A+60, 15 ; 0000000fH

; 322  : 	enumCB.INIT_LEVEL = CB_INIT_LEVEL;

  00532	c7 05 40 00 00
	00 10 00 00 00	 mov	 DWORD PTR ?enumCB@@3UStrEnumCB@@A+64, 16 ; 00000010H

; 323  : 	enumCB.COMPLETED_PROGR_ACTION = CB_COMPLETED_PROGR_ACTION;

  0053c	c7 05 44 00 00
	00 11 00 00 00	 mov	 DWORD PTR ?enumCB@@3UStrEnumCB@@A+68, 17 ; 00000011H

; 324  : 	enumCB.VEHICLE = CB_VEHICLE;

  00546	c7 05 48 00 00
	00 12 00 00 00	 mov	 DWORD PTR ?enumCB@@3UStrEnumCB@@A+72, 18 ; 00000012H

; 325  : 	enumCB.ASSIGN_SLOT_MINE = CB_ASSIGN_SLOT_MINE;

  00550	c7 05 4c 00 00
	00 13 00 00 00	 mov	 DWORD PTR ?enumCB@@3UStrEnumCB@@A+76, 19 ; 00000013H

; 326  : 	enumCB.FMV_MANAGER = CB_FMV_MANAGER;

  0055a	c7 05 50 00 00
	00 14 00 00 00	 mov	 DWORD PTR ?enumCB@@3UStrEnumCB@@A+80, 20 ; 00000014H

; 327  : 	enumCB.INPUT_MANAGER = CB_INPUT_MANAGER;

  00564	c7 05 54 00 00
	00 15 00 00 00	 mov	 DWORD PTR ?enumCB@@3UStrEnumCB@@A+84, 21 ; 00000015H

; 328  : 	enumCB.SAVEGAME_MANAGER = CB_SAVEGAME_MANAGER;

  0056e	c7 05 58 00 00
	00 16 00 00 00	 mov	 DWORD PTR ?enumCB@@3UStrEnumCB@@A+88, 22 ; 00000016H

; 329  : 	enumCB.PAUSE_MANAGER = CB_PAUSE_MANAGER;

  00578	c7 05 5c 00 00
	00 17 00 00 00	 mov	 DWORD PTR ?enumCB@@3UStrEnumCB@@A+92, 23 ; 00000017H

; 330  : 	enumCB.STATISTICS_MANAGER = CB_STATISTICS_MANAGER;

  00582	c7 05 60 00 00
	00 18 00 00 00	 mov	 DWORD PTR ?enumCB@@3UStrEnumCB@@A+96, 24 ; 00000018H

; 331  : 	enumCB.TITLE_MENU_MANAGER = CB_TITLE_MENU_MANAGER;

  0058c	c7 05 64 00 00
	00 19 00 00 00	 mov	 DWORD PTR ?enumCB@@3UStrEnumCB@@A+100, 25 ; 00000019H

; 332  : 	enumCB.WINDOWS_FONT_CREATE = CB_WINDOWS_FONT_CREATE;

  00596	c7 05 68 00 00
	00 1a 00 00 00	 mov	 DWORD PTR ?enumCB@@3UStrEnumCB@@A+104, 26 ; 0000001aH

; 333  : 	enumCB.WINDOWS_UNICODE_CONVERT = CB_WINDOWS_UNICODE_CONVERT;

  005a0	c7 05 6c 00 00
	00 1b 00 00 00	 mov	 DWORD PTR ?enumCB@@3UStrEnumCB@@A+108, 27 ; 0000001bH

; 334  : 	enumCB.WINDOWS_TEXT_PRINT = CB_WINDOWS_TEXT_PRINT;

  005aa	c7 05 70 00 00
	00 1c 00 00 00	 mov	 DWORD PTR ?enumCB@@3UStrEnumCB@@A+112, 28 ; 0000001cH

; 335  : 	enumCB.DIAGNOSTIC = CB_DIAGNOSTIC;

  005b4	c7 05 74 00 00
	00 1d 00 00 00	 mov	 DWORD PTR ?enumCB@@3UStrEnumCB@@A+116, 29 ; 0000001dH

; 336  : 	enumCB.LARA_CONTROL = CB_LARA_CONTROL;

  005be	c7 05 78 00 00
	00 21 00 00 00	 mov	 DWORD PTR ?enumCB@@3UStrEnumCB@@A+120, 33 ; 00000021H

; 337  : 	enumCB.LARA_DRAW = CB_LARA_DRAW;

  005c8	c7 05 7c 00 00
	00 22 00 00 00	 mov	 DWORD PTR ?enumCB@@3UStrEnumCB@@A+124, 34 ; 00000022H

; 338  : 	enumCB.LARA_HAIR_DRAW = CB_LARA_HAIR_DRAW;

  005d2	c7 05 80 00 00
	00 23 00 00 00	 mov	 DWORD PTR ?enumCB@@3UStrEnumCB@@A+128, 35 ; 00000023H

; 339  : 	enumCB.LARA_HAIR_CONTROL = CB_LARA_HAIR_CONTROL;

  005dc	c7 05 84 00 00
	00 24 00 00 00	 mov	 DWORD PTR ?enumCB@@3UStrEnumCB@@A+132, 36 ; 00000024H

; 340  : 	enumCB.INVENTORY_MAIN = CB_INVENTORY_MAIN;

  005e6	c7 05 88 00 00
	00 25 00 00 00	 mov	 DWORD PTR ?enumCB@@3UStrEnumCB@@A+136, 37 ; 00000025H

; 341  : 	enumCB.INVENT_BACKGROUND_CREATE = CB_INVENT_BACKGROUND_CREATE;

  005f0	c7 05 8c 00 00
	00 26 00 00 00	 mov	 DWORD PTR ?enumCB@@3UStrEnumCB@@A+140, 38 ; 00000026H

; 342  : 	enumCB.INVENT_BACKGROUND_DRAW = CB_INVENT_BACKGROUND_DRAW;

  005fa	c7 05 90 00 00
	00 27 00 00 00	 mov	 DWORD PTR ?enumCB@@3UStrEnumCB@@A+144, 39 ; 00000027H

; 343  : 	enumCB.INVENT_BACKGROUND_QUIT = CB_INVENT_BACKGROUND_QUIT;

  00604	c7 05 94 00 00
	00 28 00 00 00	 mov	 DWORD PTR ?enumCB@@3UStrEnumCB@@A+148, 40 ; 00000028H

; 344  : 	enumCB.ANIMATE_LARA = CB_ANIMATE_LARA;

  0060e	c7 05 98 00 00
	00 29 00 00 00	 mov	 DWORD PTR ?enumCB@@3UStrEnumCB@@A+152, 41 ; 00000029H

; 345  : 	enumCB.OPTIONS_MANAGER = CB_OPTIONS_MANAGER;

  00618	c7 05 9c 00 00
	00 2a 00 00 00	 mov	 DWORD PTR ?enumCB@@3UStrEnumCB@@A+156, 42 ; 0000002aH

; 346  : 	enumCB.FLIPEFFECT = CB_FLIPEFFECT;

  00622	c7 05 a0 00 00
	00 64 00 00 00	 mov	 DWORD PTR ?enumCB@@3UStrEnumCB@@A+160, 100 ; 00000064H

; 347  : 	enumCB.ACTION = CB_ACTION;

  0062c	c7 05 a4 00 00
	00 65 00 00 00	 mov	 DWORD PTR ?enumCB@@3UStrEnumCB@@A+164, 101 ; 00000065H

; 348  : 	enumCB.CONDITION = CB_CONDITION;

  00636	c7 05 a8 00 00
	00 66 00 00 00	 mov	 DWORD PTR ?enumCB@@3UStrEnumCB@@A+168, 102 ; 00000066H

; 349  : 	enumCB.VEHICLE_CONTROL = CB_VEHICLE_CONTROL;

  00640	c7 05 ac 00 00
	00 67 00 00 00	 mov	 DWORD PTR ?enumCB@@3UStrEnumCB@@A+172, 103 ; 00000067H

; 350  : 	enumCB.PROGR_ACTION = CB_PROGR_ACTION;

  0064a	c7 05 b0 00 00
	00 69 00 00 00	 mov	 DWORD PTR ?enumCB@@3UStrEnumCB@@A+176, 105 ; 00000069H

; 351  : 	enumCB.NUMERIC_TRNG_PATCH = CB_NUMERIC_TRNG_PATCH;

  00654	c7 05 b4 00 00
	00 6a 00 00 00	 mov	 DWORD PTR ?enumCB@@3UStrEnumCB@@A+180, 106 ; 0000006aH

; 352  : 	enumCB.SLOT_INITIALISE = CB_SLOT_INITIALISE;

  0065e	c7 05 b8 00 00
	00 6b 00 00 00	 mov	 DWORD PTR ?enumCB@@3UStrEnumCB@@A+184, 107 ; 0000006bH

; 353  : 	enumCB.SLOT_CONTROL = CB_SLOT_CONTROL;

  00668	c7 05 bc 00 00
	00 6c 00 00 00	 mov	 DWORD PTR ?enumCB@@3UStrEnumCB@@A+188, 108 ; 0000006cH

; 354  : 	enumCB.SLOT_COLLISION = CB_SLOT_COLLISION;

  00672	c7 05 c0 00 00
	00 6d 00 00 00	 mov	 DWORD PTR ?enumCB@@3UStrEnumCB@@A+192, 109 ; 0000006dH

; 355  : 	enumCB.SLOT_DRAW = CB_SLOT_DRAW;

  0067c	c7 05 c4 00 00
	00 6e 00 00 00	 mov	 DWORD PTR ?enumCB@@3UStrEnumCB@@A+196, 110 ; 0000006eH

; 356  : 	enumCB.SLOT_FLOOR = CB_SLOT_FLOOR;

  00686	c7 05 c8 00 00
	00 6f 00 00 00	 mov	 DWORD PTR ?enumCB@@3UStrEnumCB@@A+200, 111 ; 0000006fH

; 357  : 	enumCB.SLOT_CEILING = CB_SLOT_CEILING;

  00690	c7 05 cc 00 00
	00 70 00 00 00	 mov	 DWORD PTR ?enumCB@@3UStrEnumCB@@A+204, 112 ; 00000070H

; 358  : 	enumCB.SLOT_DRAW_EXTRA = CB_SLOT_DRAW_EXTRA;

  0069a	c7 05 d0 00 00
	00 71 00 00 00	 mov	 DWORD PTR ?enumCB@@3UStrEnumCB@@A+208, 113 ; 00000071H

; 359  : 	enumCB.STATE_ID_LARA_CTRL = CB_STATE_ID_LARA_CTRL;

  006a4	c7 05 d4 00 00
	00 72 00 00 00	 mov	 DWORD PTR ?enumCB@@3UStrEnumCB@@A+212, 114 ; 00000072H

; 360  : 	enumCB.STATE_ID_LARA_COLLISION = CB_STATE_ID_LARA_COLLISION;

  006ae	c7 05 d8 00 00
	00 73 00 00 00	 mov	 DWORD PTR ?enumCB@@3UStrEnumCB@@A+216, 115 ; 00000073H

; 361  : 
; 362  : //  --------------- LOAD CONSTANTS FOR ENUM STRUCTURE: enumSLOT----------------------
; 363  : 	enumSLOT.LARA = SLOT_LARA;

  006b8	c7 05 00 00 00
	00 00 00 00 00	 mov	 DWORD PTR ?enumSLOT@@3UStrEnumSLOT@@A, 0

; 364  : 	enumSLOT.PISTOLS_ANIM = SLOT_PISTOLS_ANIM;

  006c2	c7 05 04 00 00
	00 01 00 00 00	 mov	 DWORD PTR ?enumSLOT@@3UStrEnumSLOT@@A+4, 1

; 365  : 	enumSLOT.UZI_ANIM = SLOT_UZI_ANIM;

  006cc	c7 05 08 00 00
	00 02 00 00 00	 mov	 DWORD PTR ?enumSLOT@@3UStrEnumSLOT@@A+8, 2

; 366  : 	enumSLOT.SHOTGUN_ANIM = SLOT_SHOTGUN_ANIM;

  006d6	c7 05 0c 00 00
	00 03 00 00 00	 mov	 DWORD PTR ?enumSLOT@@3UStrEnumSLOT@@A+12, 3

; 367  : 	enumSLOT.CROSSBOW_ANIM = SLOT_CROSSBOW_ANIM;

  006e0	c7 05 10 00 00
	00 04 00 00 00	 mov	 DWORD PTR ?enumSLOT@@3UStrEnumSLOT@@A+16, 4

; 368  : 	enumSLOT.GRENADE_GUN_ANIM = SLOT_GRENADE_GUN_ANIM;

  006ea	c7 05 14 00 00
	00 05 00 00 00	 mov	 DWORD PTR ?enumSLOT@@3UStrEnumSLOT@@A+20, 5

; 369  : 	enumSLOT.SIXSHOOTER_ANIM = SLOT_SIXSHOOTER_ANIM;

  006f4	c7 05 18 00 00
	00 06 00 00 00	 mov	 DWORD PTR ?enumSLOT@@3UStrEnumSLOT@@A+24, 6

; 370  : 	enumSLOT.FLARE_ANIM = SLOT_FLARE_ANIM;

  006fe	c7 05 1c 00 00
	00 07 00 00 00	 mov	 DWORD PTR ?enumSLOT@@3UStrEnumSLOT@@A+28, 7

; 371  : 	enumSLOT.LARA_SKIN = SLOT_LARA_SKIN;

  00708	c7 05 20 00 00
	00 08 00 00 00	 mov	 DWORD PTR ?enumSLOT@@3UStrEnumSLOT@@A+32, 8

; 372  : 	enumSLOT.LARA_SKIN_JOINTS = SLOT_LARA_SKIN_JOINTS;

  00712	c7 05 24 00 00
	00 09 00 00 00	 mov	 DWORD PTR ?enumSLOT@@3UStrEnumSLOT@@A+36, 9

; 373  : 	enumSLOT.LARA_SCREAM = SLOT_LARA_SCREAM;

  0071c	c7 05 28 00 00
	00 0a 00 00 00	 mov	 DWORD PTR ?enumSLOT@@3UStrEnumSLOT@@A+40, 10 ; 0000000aH

; 374  : 	enumSLOT.LARA_CROSSBOW_LASER = SLOT_LARA_CROSSBOW_LASER;

  00726	c7 05 2c 00 00
	00 0b 00 00 00	 mov	 DWORD PTR ?enumSLOT@@3UStrEnumSLOT@@A+44, 11 ; 0000000bH

; 375  : 	enumSLOT.LARA_REVOLVER_LASER = SLOT_LARA_REVOLVER_LASER;

  00730	c7 05 30 00 00
	00 0c 00 00 00	 mov	 DWORD PTR ?enumSLOT@@3UStrEnumSLOT@@A+48, 12 ; 0000000cH

; 376  : 	enumSLOT.LARA_HOLSTERS = SLOT_LARA_HOLSTERS;

  0073a	c7 05 34 00 00
	00 0d 00 00 00	 mov	 DWORD PTR ?enumSLOT@@3UStrEnumSLOT@@A+52, 13 ; 0000000dH

; 377  : 	enumSLOT.LARA_HOLSTERS_PISTOLS = SLOT_LARA_HOLSTERS_PISTOLS;

  00744	c7 05 38 00 00
	00 0e 00 00 00	 mov	 DWORD PTR ?enumSLOT@@3UStrEnumSLOT@@A+56, 14 ; 0000000eH

; 378  : 	enumSLOT.LARA_HOLSTERS_UZIS = SLOT_LARA_HOLSTERS_UZIS;

  0074e	c7 05 3c 00 00
	00 0f 00 00 00	 mov	 DWORD PTR ?enumSLOT@@3UStrEnumSLOT@@A+60, 15 ; 0000000fH

; 379  : 	enumSLOT.LARA_HOLSTERS_SIXSHOOTER = SLOT_LARA_HOLSTERS_SIXSHOOTER;

  00758	c7 05 40 00 00
	00 10 00 00 00	 mov	 DWORD PTR ?enumSLOT@@3UStrEnumSLOT@@A+64, 16 ; 00000010H

; 380  : 	enumSLOT.LARA_SPEECH_HEAD1 = SLOT_LARA_SPEECH_HEAD1;

  00762	c7 05 44 00 00
	00 11 00 00 00	 mov	 DWORD PTR ?enumSLOT@@3UStrEnumSLOT@@A+68, 17 ; 00000011H

; 381  : 	enumSLOT.LARA_SPEECH_HEAD2 = SLOT_LARA_SPEECH_HEAD2;

  0076c	c7 05 48 00 00
	00 12 00 00 00	 mov	 DWORD PTR ?enumSLOT@@3UStrEnumSLOT@@A+72, 18 ; 00000012H

; 382  : 	enumSLOT.LARA_SPEECH_HEAD3 = SLOT_LARA_SPEECH_HEAD3;

  00776	c7 05 4c 00 00
	00 13 00 00 00	 mov	 DWORD PTR ?enumSLOT@@3UStrEnumSLOT@@A+76, 19 ; 00000013H

; 383  : 	enumSLOT.LARA_SPEECH_HEAD4 = SLOT_LARA_SPEECH_HEAD4;

  00780	c7 05 50 00 00
	00 14 00 00 00	 mov	 DWORD PTR ?enumSLOT@@3UStrEnumSLOT@@A+80, 20 ; 00000014H

; 384  : 	enumSLOT.ACTOR1_SPEECH_HEAD1 = SLOT_ACTOR1_SPEECH_HEAD1;

  0078a	c7 05 54 00 00
	00 15 00 00 00	 mov	 DWORD PTR ?enumSLOT@@3UStrEnumSLOT@@A+84, 21 ; 00000015H

; 385  : 	enumSLOT.ACTOR1_SPEECH_HEAD2 = SLOT_ACTOR1_SPEECH_HEAD2;

  00794	c7 05 58 00 00
	00 16 00 00 00	 mov	 DWORD PTR ?enumSLOT@@3UStrEnumSLOT@@A+88, 22 ; 00000016H

; 386  : 	enumSLOT.ACTOR2_SPEECH_HEAD1 = SLOT_ACTOR2_SPEECH_HEAD1;

  0079e	c7 05 5c 00 00
	00 17 00 00 00	 mov	 DWORD PTR ?enumSLOT@@3UStrEnumSLOT@@A+92, 23 ; 00000017H

; 387  : 	enumSLOT.ACTOR2_SPEECH_HEAD2 = SLOT_ACTOR2_SPEECH_HEAD2;

  007a8	c7 05 60 00 00
	00 18 00 00 00	 mov	 DWORD PTR ?enumSLOT@@3UStrEnumSLOT@@A+96, 24 ; 00000018H

; 388  : 	enumSLOT.LARA_WATER_MESH = SLOT_LARA_WATER_MESH;

  007b2	c7 05 64 00 00
	00 19 00 00 00	 mov	 DWORD PTR ?enumSLOT@@3UStrEnumSLOT@@A+100, 25 ; 00000019H

; 389  : 	enumSLOT.LARA_PETROL_MESH = SLOT_LARA_PETROL_MESH;

  007bc	c7 05 68 00 00
	00 1a 00 00 00	 mov	 DWORD PTR ?enumSLOT@@3UStrEnumSLOT@@A+104, 26 ; 0000001aH

; 390  : 	enumSLOT.LARA_DIRT_MESH = SLOT_LARA_DIRT_MESH;

  007c6	c7 05 6c 00 00
	00 1b 00 00 00	 mov	 DWORD PTR ?enumSLOT@@3UStrEnumSLOT@@A+108, 27 ; 0000001bH

; 391  : 	enumSLOT.CROWBAR_ANIM = SLOT_CROWBAR_ANIM;

  007d0	c7 05 70 00 00
	00 1c 00 00 00	 mov	 DWORD PTR ?enumSLOT@@3UStrEnumSLOT@@A+112, 28 ; 0000001cH

; 392  : 	enumSLOT.TORCH_ANIM = SLOT_TORCH_ANIM;

  007da	c7 05 74 00 00
	00 1d 00 00 00	 mov	 DWORD PTR ?enumSLOT@@3UStrEnumSLOT@@A+116, 29 ; 0000001dH

; 393  : 	enumSLOT.HAIR = SLOT_HAIR;

  007e4	c7 05 78 00 00
	00 1e 00 00 00	 mov	 DWORD PTR ?enumSLOT@@3UStrEnumSLOT@@A+120, 30 ; 0000001eH

; 394  : 	enumSLOT.MOTORBIKE = SLOT_MOTORBIKE;

  007ee	c7 05 7c 00 00
	00 1f 00 00 00	 mov	 DWORD PTR ?enumSLOT@@3UStrEnumSLOT@@A+124, 31 ; 0000001fH

; 395  : 	enumSLOT.JEEP = SLOT_JEEP;

  007f8	c7 05 80 00 00
	00 20 00 00 00	 mov	 DWORD PTR ?enumSLOT@@3UStrEnumSLOT@@A+128, 32 ; 00000020H

; 396  : 	enumSLOT.VEHICLE_EXTRA = SLOT_VEHICLE_EXTRA;

  00802	c7 05 84 00 00
	00 21 00 00 00	 mov	 DWORD PTR ?enumSLOT@@3UStrEnumSLOT@@A+132, 33 ; 00000021H

; 397  : 	enumSLOT.ENEMY_JEEP = SLOT_ENEMY_JEEP;

  0080c	c7 05 88 00 00
	00 22 00 00 00	 mov	 DWORD PTR ?enumSLOT@@3UStrEnumSLOT@@A+136, 34 ; 00000022H

; 398  : 	enumSLOT.SKELETON = SLOT_SKELETON;

  00816	c7 05 8c 00 00
	00 23 00 00 00	 mov	 DWORD PTR ?enumSLOT@@3UStrEnumSLOT@@A+140, 35 ; 00000023H

; 399  : 	enumSLOT.SKELETON_MIP = SLOT_SKELETON_MIP;

  00820	c7 05 90 00 00
	00 24 00 00 00	 mov	 DWORD PTR ?enumSLOT@@3UStrEnumSLOT@@A+144, 36 ; 00000024H

; 400  : 	enumSLOT.GUIDE = SLOT_GUIDE;

  0082a	c7 05 94 00 00
	00 25 00 00 00	 mov	 DWORD PTR ?enumSLOT@@3UStrEnumSLOT@@A+148, 37 ; 00000025H

; 401  : 	enumSLOT.GUIDE_MIP = SLOT_GUIDE_MIP;

  00834	c7 05 98 00 00
	00 26 00 00 00	 mov	 DWORD PTR ?enumSLOT@@3UStrEnumSLOT@@A+152, 38 ; 00000026H

; 402  : 	enumSLOT.VON_CROY = SLOT_VON_CROY;

  0083e	c7 05 9c 00 00
	00 27 00 00 00	 mov	 DWORD PTR ?enumSLOT@@3UStrEnumSLOT@@A+156, 39 ; 00000027H

; 403  : 	enumSLOT.VON_CROY_MIP = SLOT_VON_CROY_MIP;

  00848	c7 05 a0 00 00
	00 28 00 00 00	 mov	 DWORD PTR ?enumSLOT@@3UStrEnumSLOT@@A+160, 40 ; 00000028H

; 404  : 	enumSLOT.BADDY_1 = SLOT_BADDY_1;

  00852	c7 05 a4 00 00
	00 29 00 00 00	 mov	 DWORD PTR ?enumSLOT@@3UStrEnumSLOT@@A+164, 41 ; 00000029H

; 405  : 	enumSLOT.BADDY_1_MIP = SLOT_BADDY_1_MIP;

  0085c	c7 05 a8 00 00
	00 2a 00 00 00	 mov	 DWORD PTR ?enumSLOT@@3UStrEnumSLOT@@A+168, 42 ; 0000002aH

; 406  : 	enumSLOT.BADDY_2 = SLOT_BADDY_2;

  00866	c7 05 ac 00 00
	00 2b 00 00 00	 mov	 DWORD PTR ?enumSLOT@@3UStrEnumSLOT@@A+172, 43 ; 0000002bH

; 407  : 	enumSLOT.BADDY_2_MIP = SLOT_BADDY_2_MIP;

  00870	c7 05 b0 00 00
	00 2c 00 00 00	 mov	 DWORD PTR ?enumSLOT@@3UStrEnumSLOT@@A+176, 44 ; 0000002cH

; 408  : 	enumSLOT.SETHA = SLOT_SETHA;

  0087a	c7 05 b4 00 00
	00 2d 00 00 00	 mov	 DWORD PTR ?enumSLOT@@3UStrEnumSLOT@@A+180, 45 ; 0000002dH

; 409  : 	enumSLOT.SETHA_MIP = SLOT_SETHA_MIP;

  00884	c7 05 b8 00 00
	00 2e 00 00 00	 mov	 DWORD PTR ?enumSLOT@@3UStrEnumSLOT@@A+184, 46 ; 0000002eH

; 410  : 	enumSLOT.MUMMY = SLOT_MUMMY;

  0088e	c7 05 bc 00 00
	00 2f 00 00 00	 mov	 DWORD PTR ?enumSLOT@@3UStrEnumSLOT@@A+188, 47 ; 0000002fH

; 411  : 	enumSLOT.MUMMY_MIP = SLOT_MUMMY_MIP;

  00898	c7 05 c0 00 00
	00 30 00 00 00	 mov	 DWORD PTR ?enumSLOT@@3UStrEnumSLOT@@A+192, 48 ; 00000030H

; 412  : 	enumSLOT.SPHINX = SLOT_SPHINX;

  008a2	c7 05 c4 00 00
	00 31 00 00 00	 mov	 DWORD PTR ?enumSLOT@@3UStrEnumSLOT@@A+196, 49 ; 00000031H

; 413  : 	enumSLOT.SPHINX_MIP = SLOT_SPHINX_MIP;

  008ac	c7 05 c8 00 00
	00 32 00 00 00	 mov	 DWORD PTR ?enumSLOT@@3UStrEnumSLOT@@A+200, 50 ; 00000032H

; 414  : 	enumSLOT.CROCODILE = SLOT_CROCODILE;

  008b6	c7 05 cc 00 00
	00 33 00 00 00	 mov	 DWORD PTR ?enumSLOT@@3UStrEnumSLOT@@A+204, 51 ; 00000033H

; 415  : 	enumSLOT.CROCODILE_MIP = SLOT_CROCODILE_MIP;

  008c0	c7 05 d0 00 00
	00 34 00 00 00	 mov	 DWORD PTR ?enumSLOT@@3UStrEnumSLOT@@A+208, 52 ; 00000034H

; 416  : 	enumSLOT.HORSEMAN = SLOT_HORSEMAN;

  008ca	c7 05 d4 00 00
	00 35 00 00 00	 mov	 DWORD PTR ?enumSLOT@@3UStrEnumSLOT@@A+212, 53 ; 00000035H

; 417  : 	enumSLOT.HORSEMAN_MIP = SLOT_HORSEMAN_MIP;

  008d4	c7 05 d8 00 00
	00 36 00 00 00	 mov	 DWORD PTR ?enumSLOT@@3UStrEnumSLOT@@A+216, 54 ; 00000036H

; 418  : 	enumSLOT.SCORPION = SLOT_SCORPION;

  008de	c7 05 dc 00 00
	00 37 00 00 00	 mov	 DWORD PTR ?enumSLOT@@3UStrEnumSLOT@@A+220, 55 ; 00000037H

; 419  : 	enumSLOT.SCORPION_MIP = SLOT_SCORPION_MIP;

  008e8	c7 05 e0 00 00
	00 38 00 00 00	 mov	 DWORD PTR ?enumSLOT@@3UStrEnumSLOT@@A+224, 56 ; 00000038H

; 420  : 	enumSLOT.JEAN_YVES = SLOT_JEAN_YVES;

  008f2	c7 05 e4 00 00
	00 39 00 00 00	 mov	 DWORD PTR ?enumSLOT@@3UStrEnumSLOT@@A+228, 57 ; 00000039H

; 421  : 	enumSLOT.JEAN_YVES_MIP = SLOT_JEAN_YVES_MIP;

  008fc	c7 05 e8 00 00
	00 3a 00 00 00	 mov	 DWORD PTR ?enumSLOT@@3UStrEnumSLOT@@A+232, 58 ; 0000003aH

; 422  : 	enumSLOT.TROOPS = SLOT_TROOPS;

  00906	c7 05 ec 00 00
	00 3b 00 00 00	 mov	 DWORD PTR ?enumSLOT@@3UStrEnumSLOT@@A+236, 59 ; 0000003bH

; 423  : 	enumSLOT.TROOPS_MIP = SLOT_TROOPS_MIP;

  00910	c7 05 f0 00 00
	00 3c 00 00 00	 mov	 DWORD PTR ?enumSLOT@@3UStrEnumSLOT@@A+240, 60 ; 0000003cH

; 424  : 	enumSLOT.KNIGHTS_TEMPLAR = SLOT_KNIGHTS_TEMPLAR;

  0091a	c7 05 f4 00 00
	00 3d 00 00 00	 mov	 DWORD PTR ?enumSLOT@@3UStrEnumSLOT@@A+244, 61 ; 0000003dH

; 425  : 	enumSLOT.KNIGHTS_TEMPLAR_MIP = SLOT_KNIGHTS_TEMPLAR_MIP;

  00924	c7 05 f8 00 00
	00 3e 00 00 00	 mov	 DWORD PTR ?enumSLOT@@3UStrEnumSLOT@@A+248, 62 ; 0000003eH

; 426  : 	enumSLOT.MUTANT = SLOT_MUTANT;

  0092e	c7 05 fc 00 00
	00 3f 00 00 00	 mov	 DWORD PTR ?enumSLOT@@3UStrEnumSLOT@@A+252, 63 ; 0000003fH

; 427  : 	enumSLOT.MUTANT_MIP = SLOT_MUTANT_MIP;

  00938	c7 05 00 01 00
	00 40 00 00 00	 mov	 DWORD PTR ?enumSLOT@@3UStrEnumSLOT@@A+256, 64 ; 00000040H

; 428  : 	enumSLOT.HORSE = SLOT_HORSE;

  00942	c7 05 04 01 00
	00 41 00 00 00	 mov	 DWORD PTR ?enumSLOT@@3UStrEnumSLOT@@A+260, 65 ; 00000041H

; 429  : 	enumSLOT.HORSE_MIP = SLOT_HORSE_MIP;

  0094c	c7 05 08 01 00
	00 42 00 00 00	 mov	 DWORD PTR ?enumSLOT@@3UStrEnumSLOT@@A+264, 66 ; 00000042H

; 430  : 	enumSLOT.BABOON_NORMAL = SLOT_BABOON_NORMAL;

  00956	c7 05 0c 01 00
	00 43 00 00 00	 mov	 DWORD PTR ?enumSLOT@@3UStrEnumSLOT@@A+268, 67 ; 00000043H

; 431  : 	enumSLOT.BABOON_NORMAL_MIP = SLOT_BABOON_NORMAL_MIP;

  00960	c7 05 10 01 00
	00 44 00 00 00	 mov	 DWORD PTR ?enumSLOT@@3UStrEnumSLOT@@A+272, 68 ; 00000044H

; 432  : 	enumSLOT.BABOON_INV = SLOT_BABOON_INV;

  0096a	c7 05 14 01 00
	00 45 00 00 00	 mov	 DWORD PTR ?enumSLOT@@3UStrEnumSLOT@@A+276, 69 ; 00000045H

; 433  : 	enumSLOT.BABOON_INV_MIP = SLOT_BABOON_INV_MIP;

  00974	c7 05 18 01 00
	00 46 00 00 00	 mov	 DWORD PTR ?enumSLOT@@3UStrEnumSLOT@@A+280, 70 ; 00000046H

; 434  : 	enumSLOT.BABOON_SILENT = SLOT_BABOON_SILENT;

  0097e	c7 05 1c 01 00
	00 47 00 00 00	 mov	 DWORD PTR ?enumSLOT@@3UStrEnumSLOT@@A+284, 71 ; 00000047H

; 435  : 	enumSLOT.BABOON_SILENT_MIP = SLOT_BABOON_SILENT_MIP;

  00988	c7 05 20 01 00
	00 48 00 00 00	 mov	 DWORD PTR ?enumSLOT@@3UStrEnumSLOT@@A+288, 72 ; 00000048H

; 436  : 	enumSLOT.WILD_BOAR = SLOT_WILD_BOAR;

  00992	c7 05 24 01 00
	00 49 00 00 00	 mov	 DWORD PTR ?enumSLOT@@3UStrEnumSLOT@@A+292, 73 ; 00000049H

; 437  : 	enumSLOT.WILD_BOAR_MIP = SLOT_WILD_BOAR_MIP;

  0099c	c7 05 28 01 00
	00 4a 00 00 00	 mov	 DWORD PTR ?enumSLOT@@3UStrEnumSLOT@@A+296, 74 ; 0000004aH

; 438  : 	enumSLOT.HARPY = SLOT_HARPY;

  009a6	c7 05 2c 01 00
	00 4b 00 00 00	 mov	 DWORD PTR ?enumSLOT@@3UStrEnumSLOT@@A+300, 75 ; 0000004bH

; 439  : 	enumSLOT.HARPY_MIP = SLOT_HARPY_MIP;

  009b0	c7 05 30 01 00
	00 4c 00 00 00	 mov	 DWORD PTR ?enumSLOT@@3UStrEnumSLOT@@A+304, 76 ; 0000004cH

; 440  : 	enumSLOT.DEMIGOD1 = SLOT_DEMIGOD1;

  009ba	c7 05 34 01 00
	00 4d 00 00 00	 mov	 DWORD PTR ?enumSLOT@@3UStrEnumSLOT@@A+308, 77 ; 0000004dH

; 441  : 	enumSLOT.DEMIGOD1_MIP = SLOT_DEMIGOD1_MIP;

  009c4	c7 05 38 01 00
	00 4e 00 00 00	 mov	 DWORD PTR ?enumSLOT@@3UStrEnumSLOT@@A+312, 78 ; 0000004eH

; 442  : 	enumSLOT.DEMIGOD2 = SLOT_DEMIGOD2;

  009ce	c7 05 3c 01 00
	00 4f 00 00 00	 mov	 DWORD PTR ?enumSLOT@@3UStrEnumSLOT@@A+316, 79 ; 0000004fH

; 443  : 	enumSLOT.DEMIGOD2_MIP = SLOT_DEMIGOD2_MIP;

  009d8	c7 05 40 01 00
	00 50 00 00 00	 mov	 DWORD PTR ?enumSLOT@@3UStrEnumSLOT@@A+320, 80 ; 00000050H

; 444  : 	enumSLOT.DEMIGOD3 = SLOT_DEMIGOD3;

  009e2	c7 05 44 01 00
	00 51 00 00 00	 mov	 DWORD PTR ?enumSLOT@@3UStrEnumSLOT@@A+324, 81 ; 00000051H

; 445  : 	enumSLOT.DEMIGOD3_MIP = SLOT_DEMIGOD3_MIP;

  009ec	c7 05 48 01 00
	00 52 00 00 00	 mov	 DWORD PTR ?enumSLOT@@3UStrEnumSLOT@@A+328, 82 ; 00000052H

; 446  : 	enumSLOT.LITTLE_BEETLE = SLOT_LITTLE_BEETLE;

  009f6	c7 05 4c 01 00
	00 53 00 00 00	 mov	 DWORD PTR ?enumSLOT@@3UStrEnumSLOT@@A+332, 83 ; 00000053H

; 447  : 	enumSLOT.BIG_BEETLE = SLOT_BIG_BEETLE;

  00a00	c7 05 50 01 00
	00 54 00 00 00	 mov	 DWORD PTR ?enumSLOT@@3UStrEnumSLOT@@A+336, 84 ; 00000054H

; 448  : 	enumSLOT.BIG_BEETLE_MIP = SLOT_BIG_BEETLE_MIP;

  00a0a	c7 05 54 01 00
	00 55 00 00 00	 mov	 DWORD PTR ?enumSLOT@@3UStrEnumSLOT@@A+340, 85 ; 00000055H

; 449  : 	enumSLOT.WRAITH1 = SLOT_WRAITH1;

  00a14	c7 05 58 01 00
	00 56 00 00 00	 mov	 DWORD PTR ?enumSLOT@@3UStrEnumSLOT@@A+344, 86 ; 00000056H

; 450  : 	enumSLOT.WRAITH2 = SLOT_WRAITH2;

  00a1e	c7 05 5c 01 00
	00 57 00 00 00	 mov	 DWORD PTR ?enumSLOT@@3UStrEnumSLOT@@A+348, 87 ; 00000057H

; 451  : 	enumSLOT.WRAITH3 = SLOT_WRAITH3;

  00a28	c7 05 60 01 00
	00 58 00 00 00	 mov	 DWORD PTR ?enumSLOT@@3UStrEnumSLOT@@A+352, 88 ; 00000058H

; 452  : 	enumSLOT.WRAITH4 = SLOT_WRAITH4;

  00a32	c7 05 64 01 00
	00 59 00 00 00	 mov	 DWORD PTR ?enumSLOT@@3UStrEnumSLOT@@A+356, 89 ; 00000059H

; 453  : 	enumSLOT.BAT = SLOT_BAT;

  00a3c	c7 05 68 01 00
	00 5a 00 00 00	 mov	 DWORD PTR ?enumSLOT@@3UStrEnumSLOT@@A+360, 90 ; 0000005aH

; 454  : 	enumSLOT.DOG = SLOT_DOG;

  00a46	c7 05 6c 01 00
	00 5b 00 00 00	 mov	 DWORD PTR ?enumSLOT@@3UStrEnumSLOT@@A+364, 91 ; 0000005bH

; 455  : 	enumSLOT.DOG_MIP = SLOT_DOG_MIP;

  00a50	c7 05 70 01 00
	00 5c 00 00 00	 mov	 DWORD PTR ?enumSLOT@@3UStrEnumSLOT@@A+368, 92 ; 0000005cH

; 456  : 	enumSLOT.HAMMERHEAD = SLOT_HAMMERHEAD;

  00a5a	c7 05 74 01 00
	00 5d 00 00 00	 mov	 DWORD PTR ?enumSLOT@@3UStrEnumSLOT@@A+372, 93 ; 0000005dH

; 457  : 	enumSLOT.HAMMERHEAD_MIP = SLOT_HAMMERHEAD_MIP;

  00a64	c7 05 78 01 00
	00 5e 00 00 00	 mov	 DWORD PTR ?enumSLOT@@3UStrEnumSLOT@@A+376, 94 ; 0000005eH

; 458  : 	enumSLOT.SAS = SLOT_SAS;

  00a6e	c7 05 7c 01 00
	00 5f 00 00 00	 mov	 DWORD PTR ?enumSLOT@@3UStrEnumSLOT@@A+380, 95 ; 0000005fH

; 459  : 	enumSLOT.SAS_MIP = SLOT_SAS_MIP;

  00a78	c7 05 80 01 00
	00 60 00 00 00	 mov	 DWORD PTR ?enumSLOT@@3UStrEnumSLOT@@A+384, 96 ; 00000060H

; 460  : 	enumSLOT.SAS_DYING = SLOT_SAS_DYING;

  00a82	c7 05 84 01 00
	00 61 00 00 00	 mov	 DWORD PTR ?enumSLOT@@3UStrEnumSLOT@@A+388, 97 ; 00000061H

; 461  : 	enumSLOT.SAS_DYING_MIP = SLOT_SAS_DYING_MIP;

  00a8c	c7 05 88 01 00
	00 62 00 00 00	 mov	 DWORD PTR ?enumSLOT@@3UStrEnumSLOT@@A+392, 98 ; 00000062H

; 462  : 	enumSLOT.SAS_CAPTAIN = SLOT_SAS_CAPTAIN;

  00a96	c7 05 8c 01 00
	00 63 00 00 00	 mov	 DWORD PTR ?enumSLOT@@3UStrEnumSLOT@@A+396, 99 ; 00000063H

; 463  : 	enumSLOT.SAS_CAPTAIN_MIP = SLOT_SAS_CAPTAIN_MIP;

  00aa0	c7 05 90 01 00
	00 64 00 00 00	 mov	 DWORD PTR ?enumSLOT@@3UStrEnumSLOT@@A+400, 100 ; 00000064H

; 464  : 	enumSLOT.SAS_DRAG_BLOKE = SLOT_SAS_DRAG_BLOKE;

  00aaa	c7 05 94 01 00
	00 65 00 00 00	 mov	 DWORD PTR ?enumSLOT@@3UStrEnumSLOT@@A+404, 101 ; 00000065H

; 465  : 	enumSLOT.AHMET = SLOT_AHMET;

  00ab4	c7 05 98 01 00
	00 66 00 00 00	 mov	 DWORD PTR ?enumSLOT@@3UStrEnumSLOT@@A+408, 102 ; 00000066H

; 466  : 	enumSLOT.AHMET_MIP = SLOT_AHMET_MIP;

  00abe	c7 05 9c 01 00
	00 67 00 00 00	 mov	 DWORD PTR ?enumSLOT@@3UStrEnumSLOT@@A+412, 103 ; 00000067H

; 467  : 	enumSLOT.LARA_DOUBLE = SLOT_LARA_DOUBLE;

  00ac8	c7 05 a0 01 00
	00 68 00 00 00	 mov	 DWORD PTR ?enumSLOT@@3UStrEnumSLOT@@A+416, 104 ; 00000068H

; 468  : 	enumSLOT.LARA_DOUBLE_MIP = SLOT_LARA_DOUBLE_MIP;

  00ad2	c7 05 a4 01 00
	00 69 00 00 00	 mov	 DWORD PTR ?enumSLOT@@3UStrEnumSLOT@@A+420, 105 ; 00000069H

; 469  : 	enumSLOT.SMALL_SCORPION = SLOT_SMALL_SCORPION;

  00adc	c7 05 a8 01 00
	00 6a 00 00 00	 mov	 DWORD PTR ?enumSLOT@@3UStrEnumSLOT@@A+424, 106 ; 0000006aH

; 470  : 	enumSLOT.LOCUST_EMITTER = SLOT_LOCUST_EMITTER;

  00ae6	c7 05 ac 01 00
	00 6b 00 00 00	 mov	 DWORD PTR ?enumSLOT@@3UStrEnumSLOT@@A+428, 107 ; 0000006bH

; 471  : 	enumSLOT.GAME_PIECE1 = SLOT_GAME_PIECE1;

  00af0	c7 05 b0 01 00
	00 6c 00 00 00	 mov	 DWORD PTR ?enumSLOT@@3UStrEnumSLOT@@A+432, 108 ; 0000006cH

; 472  : 	enumSLOT.GAME_PIECE2 = SLOT_GAME_PIECE2;

  00afa	c7 05 b4 01 00
	00 6d 00 00 00	 mov	 DWORD PTR ?enumSLOT@@3UStrEnumSLOT@@A+436, 109 ; 0000006dH

; 473  : 	enumSLOT.GAME_PIECE3 = SLOT_GAME_PIECE3;

  00b04	c7 05 b8 01 00
	00 6e 00 00 00	 mov	 DWORD PTR ?enumSLOT@@3UStrEnumSLOT@@A+440, 110 ; 0000006eH

; 474  : 	enumSLOT.ENEMY_PIECE = SLOT_ENEMY_PIECE;

  00b0e	c7 05 bc 01 00
	00 6f 00 00 00	 mov	 DWORD PTR ?enumSLOT@@3UStrEnumSLOT@@A+444, 111 ; 0000006fH

; 475  : 	enumSLOT.WHEEL_OF_FORTUNE = SLOT_WHEEL_OF_FORTUNE;

  00b18	c7 05 c0 01 00
	00 70 00 00 00	 mov	 DWORD PTR ?enumSLOT@@3UStrEnumSLOT@@A+448, 112 ; 00000070H

; 476  : 	enumSLOT.SCALES = SLOT_SCALES;

  00b22	c7 05 c4 01 00
	00 71 00 00 00	 mov	 DWORD PTR ?enumSLOT@@3UStrEnumSLOT@@A+452, 113 ; 00000071H

; 477  : 	enumSLOT.DARTS = SLOT_DARTS;

  00b2c	c7 05 c8 01 00
	00 72 00 00 00	 mov	 DWORD PTR ?enumSLOT@@3UStrEnumSLOT@@A+456, 114 ; 00000072H

; 478  : 	enumSLOT.DART_EMITTER = SLOT_DART_EMITTER;

  00b36	c7 05 cc 01 00
	00 73 00 00 00	 mov	 DWORD PTR ?enumSLOT@@3UStrEnumSLOT@@A+460, 115 ; 00000073H

; 479  : 	enumSLOT.HOMING_DART_EMITTER = SLOT_HOMING_DART_EMITTER;

  00b40	c7 05 d0 01 00
	00 74 00 00 00	 mov	 DWORD PTR ?enumSLOT@@3UStrEnumSLOT@@A+464, 116 ; 00000074H

; 480  : 	enumSLOT.FALLING_CEILING = SLOT_FALLING_CEILING;

  00b4a	c7 05 d4 01 00
	00 75 00 00 00	 mov	 DWORD PTR ?enumSLOT@@3UStrEnumSLOT@@A+468, 117 ; 00000075H

; 481  : 	enumSLOT.FALLING_BLOCK = SLOT_FALLING_BLOCK;

  00b54	c7 05 d8 01 00
	00 76 00 00 00	 mov	 DWORD PTR ?enumSLOT@@3UStrEnumSLOT@@A+472, 118 ; 00000076H

; 482  : 	enumSLOT.FALLING_BLOCK2 = SLOT_FALLING_BLOCK2;

  00b5e	c7 05 dc 01 00
	00 77 00 00 00	 mov	 DWORD PTR ?enumSLOT@@3UStrEnumSLOT@@A+476, 119 ; 00000077H

; 483  : 	enumSLOT.SMASHABLE_BIKE_WALL = SLOT_SMASHABLE_BIKE_WALL;

  00b68	c7 05 e0 01 00
	00 78 00 00 00	 mov	 DWORD PTR ?enumSLOT@@3UStrEnumSLOT@@A+480, 120 ; 00000078H

; 484  : 	enumSLOT.SMASHABLE_BIKE_FLOOR = SLOT_SMASHABLE_BIKE_FLOOR;

  00b72	c7 05 e4 01 00
	00 79 00 00 00	 mov	 DWORD PTR ?enumSLOT@@3UStrEnumSLOT@@A+484, 121 ; 00000079H

; 485  : 	enumSLOT.TRAPDOOR1 = SLOT_TRAPDOOR1;

  00b7c	c7 05 e8 01 00
	00 7a 00 00 00	 mov	 DWORD PTR ?enumSLOT@@3UStrEnumSLOT@@A+488, 122 ; 0000007aH

; 486  : 	enumSLOT.TRAPDOOR2 = SLOT_TRAPDOOR2;

  00b86	c7 05 ec 01 00
	00 7b 00 00 00	 mov	 DWORD PTR ?enumSLOT@@3UStrEnumSLOT@@A+492, 123 ; 0000007bH

; 487  : 	enumSLOT.TRAPDOOR3 = SLOT_TRAPDOOR3;

  00b90	c7 05 f0 01 00
	00 7c 00 00 00	 mov	 DWORD PTR ?enumSLOT@@3UStrEnumSLOT@@A+496, 124 ; 0000007cH

; 488  : 	enumSLOT.FLOOR_TRAPDOOR1 = SLOT_FLOOR_TRAPDOOR1;

  00b9a	c7 05 f4 01 00
	00 7d 00 00 00	 mov	 DWORD PTR ?enumSLOT@@3UStrEnumSLOT@@A+500, 125 ; 0000007dH

; 489  : 	enumSLOT.FLOOR_TRAPDOOR2 = SLOT_FLOOR_TRAPDOOR2;

  00ba4	c7 05 f8 01 00
	00 7e 00 00 00	 mov	 DWORD PTR ?enumSLOT@@3UStrEnumSLOT@@A+504, 126 ; 0000007eH

; 490  : 	enumSLOT.CEILING_TRAPDOOR1 = SLOT_CEILING_TRAPDOOR1;

  00bae	c7 05 fc 01 00
	00 7f 00 00 00	 mov	 DWORD PTR ?enumSLOT@@3UStrEnumSLOT@@A+508, 127 ; 0000007fH

; 491  : 	enumSLOT.CEILING_TRAPDOOR2 = SLOT_CEILING_TRAPDOOR2;

  00bb8	c7 05 00 02 00
	00 80 00 00 00	 mov	 DWORD PTR ?enumSLOT@@3UStrEnumSLOT@@A+512, 128 ; 00000080H

; 492  : 	enumSLOT.SCALING_TRAPDOOR = SLOT_SCALING_TRAPDOOR;

  00bc2	c7 05 04 02 00
	00 81 00 00 00	 mov	 DWORD PTR ?enumSLOT@@3UStrEnumSLOT@@A+516, 129 ; 00000081H

; 493  : 	enumSLOT.ROLLINGBALL = SLOT_ROLLINGBALL;

  00bcc	c7 05 08 02 00
	00 82 00 00 00	 mov	 DWORD PTR ?enumSLOT@@3UStrEnumSLOT@@A+520, 130 ; 00000082H

; 494  : 	enumSLOT.SPIKEY_FLOOR = SLOT_SPIKEY_FLOOR;

  00bd6	c7 05 0c 02 00
	00 83 00 00 00	 mov	 DWORD PTR ?enumSLOT@@3UStrEnumSLOT@@A+524, 131 ; 00000083H

; 495  : 	enumSLOT.TEETH_SPIKES = SLOT_TEETH_SPIKES;

  00be0	c7 05 10 02 00
	00 84 00 00 00	 mov	 DWORD PTR ?enumSLOT@@3UStrEnumSLOT@@A+528, 132 ; 00000084H

; 496  : 	enumSLOT.JOBY_SPIKES = SLOT_JOBY_SPIKES;

  00bea	c7 05 14 02 00
	00 85 00 00 00	 mov	 DWORD PTR ?enumSLOT@@3UStrEnumSLOT@@A+532, 133 ; 00000085H

; 497  : 	enumSLOT.SLICER_DICER = SLOT_SLICER_DICER;

  00bf4	c7 05 18 02 00
	00 86 00 00 00	 mov	 DWORD PTR ?enumSLOT@@3UStrEnumSLOT@@A+536, 134 ; 00000086H

; 498  : 	enumSLOT.CHAIN = SLOT_CHAIN;

  00bfe	c7 05 1c 02 00
	00 87 00 00 00	 mov	 DWORD PTR ?enumSLOT@@3UStrEnumSLOT@@A+540, 135 ; 00000087H

; 499  : 	enumSLOT.PLOUGH = SLOT_PLOUGH;

  00c08	c7 05 20 02 00
	00 88 00 00 00	 mov	 DWORD PTR ?enumSLOT@@3UStrEnumSLOT@@A+544, 136 ; 00000088H

; 500  : 	enumSLOT.STARGATE = SLOT_STARGATE;

  00c12	c7 05 24 02 00
	00 89 00 00 00	 mov	 DWORD PTR ?enumSLOT@@3UStrEnumSLOT@@A+548, 137 ; 00000089H

; 501  : 	enumSLOT.HAMMER = SLOT_HAMMER;

  00c1c	c7 05 28 02 00
	00 8a 00 00 00	 mov	 DWORD PTR ?enumSLOT@@3UStrEnumSLOT@@A+552, 138 ; 0000008aH

; 502  : 	enumSLOT.BURNING_FLOOR = SLOT_BURNING_FLOOR;

  00c26	c7 05 2c 02 00
	00 8b 00 00 00	 mov	 DWORD PTR ?enumSLOT@@3UStrEnumSLOT@@A+556, 139 ; 0000008bH

; 503  : 	enumSLOT.COG = SLOT_COG;

  00c30	c7 05 30 02 00
	00 8c 00 00 00	 mov	 DWORD PTR ?enumSLOT@@3UStrEnumSLOT@@A+560, 140 ; 0000008cH

; 504  : 	enumSLOT.SPIKEBALL = SLOT_SPIKEBALL;

  00c3a	c7 05 34 02 00
	00 8d 00 00 00	 mov	 DWORD PTR ?enumSLOT@@3UStrEnumSLOT@@A+564, 141 ; 0000008dH

; 505  : 	enumSLOT.FLAME = SLOT_FLAME;

  00c44	c7 05 38 02 00
	00 8e 00 00 00	 mov	 DWORD PTR ?enumSLOT@@3UStrEnumSLOT@@A+568, 142 ; 0000008eH

; 506  : 	enumSLOT.FLAME_EMITTER = SLOT_FLAME_EMITTER;

  00c4e	c7 05 3c 02 00
	00 8f 00 00 00	 mov	 DWORD PTR ?enumSLOT@@3UStrEnumSLOT@@A+572, 143 ; 0000008fH

; 507  : 	enumSLOT.FLAME_EMITTER2 = SLOT_FLAME_EMITTER2;

  00c58	c7 05 40 02 00
	00 90 00 00 00	 mov	 DWORD PTR ?enumSLOT@@3UStrEnumSLOT@@A+576, 144 ; 00000090H

; 508  : 	enumSLOT.FLAME_EMITTER3 = SLOT_FLAME_EMITTER3;

  00c62	c7 05 44 02 00
	00 91 00 00 00	 mov	 DWORD PTR ?enumSLOT@@3UStrEnumSLOT@@A+580, 145 ; 00000091H

; 509  : 	enumSLOT.ROPE = SLOT_ROPE;

  00c6c	c7 05 48 02 00
	00 92 00 00 00	 mov	 DWORD PTR ?enumSLOT@@3UStrEnumSLOT@@A+584, 146 ; 00000092H

; 510  : 	enumSLOT.FIREROPE = SLOT_FIREROPE;

  00c76	c7 05 4c 02 00
	00 93 00 00 00	 mov	 DWORD PTR ?enumSLOT@@3UStrEnumSLOT@@A+588, 147 ; 00000093H

; 511  : 	enumSLOT.POLEROPE = SLOT_POLEROPE;

  00c80	c7 05 50 02 00
	00 94 00 00 00	 mov	 DWORD PTR ?enumSLOT@@3UStrEnumSLOT@@A+592, 148 ; 00000094H

; 512  : 	enumSLOT.ONEBLOCK_PLATFORM = SLOT_ONEBLOCK_PLATFORM;

  00c8a	c7 05 54 02 00
	00 95 00 00 00	 mov	 DWORD PTR ?enumSLOT@@3UStrEnumSLOT@@A+596, 149 ; 00000095H

; 513  : 	enumSLOT.TWOBLOCK_PLATFORM = SLOT_TWOBLOCK_PLATFORM;

  00c94	c7 05 58 02 00
	00 96 00 00 00	 mov	 DWORD PTR ?enumSLOT@@3UStrEnumSLOT@@A+600, 150 ; 00000096H

; 514  : 	enumSLOT.RAISING_BLOCK1 = SLOT_RAISING_BLOCK1;

  00c9e	c7 05 5c 02 00
	00 97 00 00 00	 mov	 DWORD PTR ?enumSLOT@@3UStrEnumSLOT@@A+604, 151 ; 00000097H

; 515  : 	enumSLOT.RAISING_BLOCK2 = SLOT_RAISING_BLOCK2;

  00ca8	c7 05 60 02 00
	00 98 00 00 00	 mov	 DWORD PTR ?enumSLOT@@3UStrEnumSLOT@@A+608, 152 ; 00000098H

; 516  : 	enumSLOT.EXPANDING_PLATFORM = SLOT_EXPANDING_PLATFORM;

  00cb2	c7 05 64 02 00
	00 99 00 00 00	 mov	 DWORD PTR ?enumSLOT@@3UStrEnumSLOT@@A+612, 153 ; 00000099H

; 517  : 	enumSLOT.SQUISHY_BLOCK1 = SLOT_SQUISHY_BLOCK1;

  00cbc	c7 05 68 02 00
	00 9a 00 00 00	 mov	 DWORD PTR ?enumSLOT@@3UStrEnumSLOT@@A+616, 154 ; 0000009aH

; 518  : 	enumSLOT.SQUISHY_BLOCK2 = SLOT_SQUISHY_BLOCK2;

  00cc6	c7 05 6c 02 00
	00 9b 00 00 00	 mov	 DWORD PTR ?enumSLOT@@3UStrEnumSLOT@@A+620, 155 ; 0000009bH

; 519  : 	enumSLOT.PUSHABLE_OBJECT1 = SLOT_PUSHABLE_OBJECT1;

  00cd0	c7 05 70 02 00
	00 9c 00 00 00	 mov	 DWORD PTR ?enumSLOT@@3UStrEnumSLOT@@A+624, 156 ; 0000009cH

; 520  : 	enumSLOT.PUSHABLE_OBJECT2 = SLOT_PUSHABLE_OBJECT2;

  00cda	c7 05 74 02 00
	00 9d 00 00 00	 mov	 DWORD PTR ?enumSLOT@@3UStrEnumSLOT@@A+628, 157 ; 0000009dH

; 521  : 	enumSLOT.PUSHABLE_OBJECT3 = SLOT_PUSHABLE_OBJECT3;

  00ce4	c7 05 78 02 00
	00 9e 00 00 00	 mov	 DWORD PTR ?enumSLOT@@3UStrEnumSLOT@@A+632, 158 ; 0000009eH

; 522  : 	enumSLOT.PUSHABLE_OBJECT4 = SLOT_PUSHABLE_OBJECT4;

  00cee	c7 05 7c 02 00
	00 9f 00 00 00	 mov	 DWORD PTR ?enumSLOT@@3UStrEnumSLOT@@A+636, 159 ; 0000009fH

; 523  : 	enumSLOT.PUSHABLE_OBJECT5 = SLOT_PUSHABLE_OBJECT5;

  00cf8	c7 05 80 02 00
	00 a0 00 00 00	 mov	 DWORD PTR ?enumSLOT@@3UStrEnumSLOT@@A+640, 160 ; 000000a0H

; 524  : 	enumSLOT.TRIPWIRE = SLOT_TRIPWIRE;

  00d02	c7 05 84 02 00
	00 a1 00 00 00	 mov	 DWORD PTR ?enumSLOT@@3UStrEnumSLOT@@A+644, 161 ; 000000a1H

; 525  : 	enumSLOT.SENTRY_GUN = SLOT_SENTRY_GUN;

  00d0c	c7 05 88 02 00
	00 a2 00 00 00	 mov	 DWORD PTR ?enumSLOT@@3UStrEnumSLOT@@A+648, 162 ; 000000a2H

; 526  : 	enumSLOT.MINE = SLOT_MINE;

  00d16	c7 05 8c 02 00
	00 a3 00 00 00	 mov	 DWORD PTR ?enumSLOT@@3UStrEnumSLOT@@A+652, 163 ; 000000a3H

; 527  : 	enumSLOT.MAPPER = SLOT_MAPPER;

  00d20	c7 05 90 02 00
	00 a4 00 00 00	 mov	 DWORD PTR ?enumSLOT@@3UStrEnumSLOT@@A+656, 164 ; 000000a4H

; 528  : 	enumSLOT.OBELISK = SLOT_OBELISK;

  00d2a	c7 05 94 02 00
	00 a5 00 00 00	 mov	 DWORD PTR ?enumSLOT@@3UStrEnumSLOT@@A+660, 165 ; 000000a5H

; 529  : 	enumSLOT.FLOOR_4BLADE = SLOT_FLOOR_4BLADE;

  00d34	c7 05 98 02 00
	00 a6 00 00 00	 mov	 DWORD PTR ?enumSLOT@@3UStrEnumSLOT@@A+664, 166 ; 000000a6H

; 530  : 	enumSLOT.ROOF_4BLADE = SLOT_ROOF_4BLADE;

  00d3e	c7 05 9c 02 00
	00 a7 00 00 00	 mov	 DWORD PTR ?enumSLOT@@3UStrEnumSLOT@@A+668, 167 ; 000000a7H

; 531  : 	enumSLOT.BIRD_BLADE = SLOT_BIRD_BLADE;

  00d48	c7 05 a0 02 00
	00 a8 00 00 00	 mov	 DWORD PTR ?enumSLOT@@3UStrEnumSLOT@@A+672, 168 ; 000000a8H

; 532  : 	enumSLOT.CATWALK_BLADE = SLOT_CATWALK_BLADE;

  00d52	c7 05 a4 02 00
	00 a9 00 00 00	 mov	 DWORD PTR ?enumSLOT@@3UStrEnumSLOT@@A+676, 169 ; 000000a9H

; 533  : 	enumSLOT.MOVING_BLADE = SLOT_MOVING_BLADE;

  00d5c	c7 05 a8 02 00
	00 aa 00 00 00	 mov	 DWORD PTR ?enumSLOT@@3UStrEnumSLOT@@A+680, 170 ; 000000aaH

; 534  : 	enumSLOT.PLINTH_BLADE = SLOT_PLINTH_BLADE;

  00d66	c7 05 ac 02 00
	00 ab 00 00 00	 mov	 DWORD PTR ?enumSLOT@@3UStrEnumSLOT@@A+684, 171 ; 000000abH

; 535  : 	enumSLOT.SETH_BLADE = SLOT_SETH_BLADE;

  00d70	c7 05 b0 02 00
	00 ac 00 00 00	 mov	 DWORD PTR ?enumSLOT@@3UStrEnumSLOT@@A+688, 172 ; 000000acH

; 536  : 	enumSLOT.LIGHTNING_CONDUCTOR = SLOT_LIGHTNING_CONDUCTOR;

  00d7a	c7 05 b4 02 00
	00 ad 00 00 00	 mov	 DWORD PTR ?enumSLOT@@3UStrEnumSLOT@@A+692, 173 ; 000000adH

; 537  : 	enumSLOT.ELEMENT_PUZZLE = SLOT_ELEMENT_PUZZLE;

  00d84	c7 05 b8 02 00
	00 ae 00 00 00	 mov	 DWORD PTR ?enumSLOT@@3UStrEnumSLOT@@A+696, 174 ; 000000aeH

; 538  : 	enumSLOT.PUZZLE_ITEM1 = SLOT_PUZZLE_ITEM1;

  00d8e	c7 05 bc 02 00
	00 af 00 00 00	 mov	 DWORD PTR ?enumSLOT@@3UStrEnumSLOT@@A+700, 175 ; 000000afH

; 539  : 	enumSLOT.PUZZLE_ITEM2 = SLOT_PUZZLE_ITEM2;

  00d98	c7 05 c0 02 00
	00 b0 00 00 00	 mov	 DWORD PTR ?enumSLOT@@3UStrEnumSLOT@@A+704, 176 ; 000000b0H

; 540  : 	enumSLOT.PUZZLE_ITEM3 = SLOT_PUZZLE_ITEM3;

  00da2	c7 05 c4 02 00
	00 b1 00 00 00	 mov	 DWORD PTR ?enumSLOT@@3UStrEnumSLOT@@A+708, 177 ; 000000b1H

; 541  : 	enumSLOT.PUZZLE_ITEM4 = SLOT_PUZZLE_ITEM4;

  00dac	c7 05 c8 02 00
	00 b2 00 00 00	 mov	 DWORD PTR ?enumSLOT@@3UStrEnumSLOT@@A+712, 178 ; 000000b2H

; 542  : 	enumSLOT.PUZZLE_ITEM5 = SLOT_PUZZLE_ITEM5;

  00db6	c7 05 cc 02 00
	00 b3 00 00 00	 mov	 DWORD PTR ?enumSLOT@@3UStrEnumSLOT@@A+716, 179 ; 000000b3H

; 543  : 	enumSLOT.PUZZLE_ITEM6 = SLOT_PUZZLE_ITEM6;

  00dc0	c7 05 d0 02 00
	00 b4 00 00 00	 mov	 DWORD PTR ?enumSLOT@@3UStrEnumSLOT@@A+720, 180 ; 000000b4H

; 544  : 	enumSLOT.PUZZLE_ITEM7 = SLOT_PUZZLE_ITEM7;

  00dca	c7 05 d4 02 00
	00 b5 00 00 00	 mov	 DWORD PTR ?enumSLOT@@3UStrEnumSLOT@@A+724, 181 ; 000000b5H

; 545  : 	enumSLOT.PUZZLE_ITEM8 = SLOT_PUZZLE_ITEM8;

  00dd4	c7 05 d8 02 00
	00 b6 00 00 00	 mov	 DWORD PTR ?enumSLOT@@3UStrEnumSLOT@@A+728, 182 ; 000000b6H

; 546  : 	enumSLOT.PUZZLE_ITEM9 = SLOT_PUZZLE_ITEM9;

  00dde	c7 05 dc 02 00
	00 b7 00 00 00	 mov	 DWORD PTR ?enumSLOT@@3UStrEnumSLOT@@A+732, 183 ; 000000b7H

; 547  : 	enumSLOT.PUZZLE_ITEM10 = SLOT_PUZZLE_ITEM10;

  00de8	c7 05 e0 02 00
	00 b8 00 00 00	 mov	 DWORD PTR ?enumSLOT@@3UStrEnumSLOT@@A+736, 184 ; 000000b8H

; 548  : 	enumSLOT.PUZZLE_ITEM11 = SLOT_PUZZLE_ITEM11;

  00df2	c7 05 e4 02 00
	00 b9 00 00 00	 mov	 DWORD PTR ?enumSLOT@@3UStrEnumSLOT@@A+740, 185 ; 000000b9H

; 549  : 	enumSLOT.PUZZLE_ITEM12 = SLOT_PUZZLE_ITEM12;

  00dfc	c7 05 e8 02 00
	00 ba 00 00 00	 mov	 DWORD PTR ?enumSLOT@@3UStrEnumSLOT@@A+744, 186 ; 000000baH

; 550  : 	enumSLOT.PUZZLE_ITEM1_COMBO1 = SLOT_PUZZLE_ITEM1_COMBO1;

  00e06	c7 05 ec 02 00
	00 bb 00 00 00	 mov	 DWORD PTR ?enumSLOT@@3UStrEnumSLOT@@A+748, 187 ; 000000bbH

; 551  : 	enumSLOT.PUZZLE_ITEM1_COMBO2 = SLOT_PUZZLE_ITEM1_COMBO2;

  00e10	c7 05 f0 02 00
	00 bc 00 00 00	 mov	 DWORD PTR ?enumSLOT@@3UStrEnumSLOT@@A+752, 188 ; 000000bcH

; 552  : 	enumSLOT.PUZZLE_ITEM2_COMBO1 = SLOT_PUZZLE_ITEM2_COMBO1;

  00e1a	c7 05 f4 02 00
	00 bd 00 00 00	 mov	 DWORD PTR ?enumSLOT@@3UStrEnumSLOT@@A+756, 189 ; 000000bdH

; 553  : 	enumSLOT.PUZZLE_ITEM2_COMBO2 = SLOT_PUZZLE_ITEM2_COMBO2;

  00e24	c7 05 f8 02 00
	00 be 00 00 00	 mov	 DWORD PTR ?enumSLOT@@3UStrEnumSLOT@@A+760, 190 ; 000000beH

; 554  : 	enumSLOT.PUZZLE_ITEM3_COMBO1 = SLOT_PUZZLE_ITEM3_COMBO1;

  00e2e	c7 05 fc 02 00
	00 bf 00 00 00	 mov	 DWORD PTR ?enumSLOT@@3UStrEnumSLOT@@A+764, 191 ; 000000bfH

; 555  : 	enumSLOT.PUZZLE_ITEM3_COMBO2 = SLOT_PUZZLE_ITEM3_COMBO2;

  00e38	c7 05 00 03 00
	00 c0 00 00 00	 mov	 DWORD PTR ?enumSLOT@@3UStrEnumSLOT@@A+768, 192 ; 000000c0H

; 556  : 	enumSLOT.PUZZLE_ITEM4_COMBO1 = SLOT_PUZZLE_ITEM4_COMBO1;

  00e42	c7 05 04 03 00
	00 c1 00 00 00	 mov	 DWORD PTR ?enumSLOT@@3UStrEnumSLOT@@A+772, 193 ; 000000c1H

; 557  : 	enumSLOT.PUZZLE_ITEM4_COMBO2 = SLOT_PUZZLE_ITEM4_COMBO2;

  00e4c	c7 05 08 03 00
	00 c2 00 00 00	 mov	 DWORD PTR ?enumSLOT@@3UStrEnumSLOT@@A+776, 194 ; 000000c2H

; 558  : 	enumSLOT.PUZZLE_ITEM5_COMBO1 = SLOT_PUZZLE_ITEM5_COMBO1;

  00e56	c7 05 0c 03 00
	00 c3 00 00 00	 mov	 DWORD PTR ?enumSLOT@@3UStrEnumSLOT@@A+780, 195 ; 000000c3H

; 559  : 	enumSLOT.PUZZLE_ITEM5_COMBO2 = SLOT_PUZZLE_ITEM5_COMBO2;

  00e60	c7 05 10 03 00
	00 c4 00 00 00	 mov	 DWORD PTR ?enumSLOT@@3UStrEnumSLOT@@A+784, 196 ; 000000c4H

; 560  : 	enumSLOT.PUZZLE_ITEM6_COMBO1 = SLOT_PUZZLE_ITEM6_COMBO1;

  00e6a	c7 05 14 03 00
	00 c5 00 00 00	 mov	 DWORD PTR ?enumSLOT@@3UStrEnumSLOT@@A+788, 197 ; 000000c5H

; 561  : 	enumSLOT.PUZZLE_ITEM6_COMBO2 = SLOT_PUZZLE_ITEM6_COMBO2;

  00e74	c7 05 18 03 00
	00 c6 00 00 00	 mov	 DWORD PTR ?enumSLOT@@3UStrEnumSLOT@@A+792, 198 ; 000000c6H

; 562  : 	enumSLOT.PUZZLE_ITEM7_COMBO1 = SLOT_PUZZLE_ITEM7_COMBO1;

  00e7e	c7 05 1c 03 00
	00 c7 00 00 00	 mov	 DWORD PTR ?enumSLOT@@3UStrEnumSLOT@@A+796, 199 ; 000000c7H

; 563  : 	enumSLOT.PUZZLE_ITEM7_COMBO2 = SLOT_PUZZLE_ITEM7_COMBO2;

  00e88	c7 05 20 03 00
	00 c8 00 00 00	 mov	 DWORD PTR ?enumSLOT@@3UStrEnumSLOT@@A+800, 200 ; 000000c8H

; 564  : 	enumSLOT.PUZZLE_ITEM8_COMBO1 = SLOT_PUZZLE_ITEM8_COMBO1;

  00e92	c7 05 24 03 00
	00 c9 00 00 00	 mov	 DWORD PTR ?enumSLOT@@3UStrEnumSLOT@@A+804, 201 ; 000000c9H

; 565  : 	enumSLOT.PUZZLE_ITEM8_COMBO2 = SLOT_PUZZLE_ITEM8_COMBO2;

  00e9c	c7 05 28 03 00
	00 ca 00 00 00	 mov	 DWORD PTR ?enumSLOT@@3UStrEnumSLOT@@A+808, 202 ; 000000caH

; 566  : 	enumSLOT.KEY_ITEM1 = SLOT_KEY_ITEM1;

  00ea6	c7 05 2c 03 00
	00 cb 00 00 00	 mov	 DWORD PTR ?enumSLOT@@3UStrEnumSLOT@@A+812, 203 ; 000000cbH

; 567  : 	enumSLOT.KEY_ITEM2 = SLOT_KEY_ITEM2;

  00eb0	c7 05 30 03 00
	00 cc 00 00 00	 mov	 DWORD PTR ?enumSLOT@@3UStrEnumSLOT@@A+816, 204 ; 000000ccH

; 568  : 	enumSLOT.KEY_ITEM3 = SLOT_KEY_ITEM3;

  00eba	c7 05 34 03 00
	00 cd 00 00 00	 mov	 DWORD PTR ?enumSLOT@@3UStrEnumSLOT@@A+820, 205 ; 000000cdH

; 569  : 	enumSLOT.KEY_ITEM4 = SLOT_KEY_ITEM4;

  00ec4	c7 05 38 03 00
	00 ce 00 00 00	 mov	 DWORD PTR ?enumSLOT@@3UStrEnumSLOT@@A+824, 206 ; 000000ceH

; 570  : 	enumSLOT.KEY_ITEM5 = SLOT_KEY_ITEM5;

  00ece	c7 05 3c 03 00
	00 cf 00 00 00	 mov	 DWORD PTR ?enumSLOT@@3UStrEnumSLOT@@A+828, 207 ; 000000cfH

; 571  : 	enumSLOT.KEY_ITEM6 = SLOT_KEY_ITEM6;

  00ed8	c7 05 40 03 00
	00 d0 00 00 00	 mov	 DWORD PTR ?enumSLOT@@3UStrEnumSLOT@@A+832, 208 ; 000000d0H

; 572  : 	enumSLOT.KEY_ITEM7 = SLOT_KEY_ITEM7;

  00ee2	c7 05 44 03 00
	00 d1 00 00 00	 mov	 DWORD PTR ?enumSLOT@@3UStrEnumSLOT@@A+836, 209 ; 000000d1H

; 573  : 	enumSLOT.KEY_ITEM8 = SLOT_KEY_ITEM8;

  00eec	c7 05 48 03 00
	00 d2 00 00 00	 mov	 DWORD PTR ?enumSLOT@@3UStrEnumSLOT@@A+840, 210 ; 000000d2H

; 574  : 	enumSLOT.KEY_ITEM9 = SLOT_KEY_ITEM9;

  00ef6	c7 05 4c 03 00
	00 d3 00 00 00	 mov	 DWORD PTR ?enumSLOT@@3UStrEnumSLOT@@A+844, 211 ; 000000d3H

; 575  : 	enumSLOT.KEY_ITEM10 = SLOT_KEY_ITEM10;

  00f00	c7 05 50 03 00
	00 d4 00 00 00	 mov	 DWORD PTR ?enumSLOT@@3UStrEnumSLOT@@A+848, 212 ; 000000d4H

; 576  : 	enumSLOT.KEY_ITEM11 = SLOT_KEY_ITEM11;

  00f0a	c7 05 54 03 00
	00 d5 00 00 00	 mov	 DWORD PTR ?enumSLOT@@3UStrEnumSLOT@@A+852, 213 ; 000000d5H

; 577  : 	enumSLOT.KEY_ITEM12 = SLOT_KEY_ITEM12;

  00f14	c7 05 58 03 00
	00 d6 00 00 00	 mov	 DWORD PTR ?enumSLOT@@3UStrEnumSLOT@@A+856, 214 ; 000000d6H

; 578  : 	enumSLOT.KEY_ITEM1_COMBO1 = SLOT_KEY_ITEM1_COMBO1;

  00f1e	c7 05 5c 03 00
	00 d7 00 00 00	 mov	 DWORD PTR ?enumSLOT@@3UStrEnumSLOT@@A+860, 215 ; 000000d7H

; 579  : 	enumSLOT.KEY_ITEM1_COMBO2 = SLOT_KEY_ITEM1_COMBO2;

  00f28	c7 05 60 03 00
	00 d8 00 00 00	 mov	 DWORD PTR ?enumSLOT@@3UStrEnumSLOT@@A+864, 216 ; 000000d8H

; 580  : 	enumSLOT.KEY_ITEM2_COMBO1 = SLOT_KEY_ITEM2_COMBO1;

  00f32	c7 05 64 03 00
	00 d9 00 00 00	 mov	 DWORD PTR ?enumSLOT@@3UStrEnumSLOT@@A+868, 217 ; 000000d9H

; 581  : 	enumSLOT.KEY_ITEM2_COMBO2 = SLOT_KEY_ITEM2_COMBO2;

  00f3c	c7 05 68 03 00
	00 da 00 00 00	 mov	 DWORD PTR ?enumSLOT@@3UStrEnumSLOT@@A+872, 218 ; 000000daH

; 582  : 	enumSLOT.KEY_ITEM3_COMBO1 = SLOT_KEY_ITEM3_COMBO1;

  00f46	c7 05 6c 03 00
	00 db 00 00 00	 mov	 DWORD PTR ?enumSLOT@@3UStrEnumSLOT@@A+876, 219 ; 000000dbH

; 583  : 	enumSLOT.KEY_ITEM3_COMBO2 = SLOT_KEY_ITEM3_COMBO2;

  00f50	c7 05 70 03 00
	00 dc 00 00 00	 mov	 DWORD PTR ?enumSLOT@@3UStrEnumSLOT@@A+880, 220 ; 000000dcH

; 584  : 	enumSLOT.KEY_ITEM4_COMBO1 = SLOT_KEY_ITEM4_COMBO1;

  00f5a	c7 05 74 03 00
	00 dd 00 00 00	 mov	 DWORD PTR ?enumSLOT@@3UStrEnumSLOT@@A+884, 221 ; 000000ddH

; 585  : 	enumSLOT.KEY_ITEM4_COMBO2 = SLOT_KEY_ITEM4_COMBO2;

  00f64	c7 05 78 03 00
	00 de 00 00 00	 mov	 DWORD PTR ?enumSLOT@@3UStrEnumSLOT@@A+888, 222 ; 000000deH

; 586  : 	enumSLOT.KEY_ITEM5_COMBO1 = SLOT_KEY_ITEM5_COMBO1;

  00f6e	c7 05 7c 03 00
	00 df 00 00 00	 mov	 DWORD PTR ?enumSLOT@@3UStrEnumSLOT@@A+892, 223 ; 000000dfH

; 587  : 	enumSLOT.KEY_ITEM5_COMBO2 = SLOT_KEY_ITEM5_COMBO2;

  00f78	c7 05 80 03 00
	00 e0 00 00 00	 mov	 DWORD PTR ?enumSLOT@@3UStrEnumSLOT@@A+896, 224 ; 000000e0H

; 588  : 	enumSLOT.KEY_ITEM6_COMBO1 = SLOT_KEY_ITEM6_COMBO1;

  00f82	c7 05 84 03 00
	00 e1 00 00 00	 mov	 DWORD PTR ?enumSLOT@@3UStrEnumSLOT@@A+900, 225 ; 000000e1H

; 589  : 	enumSLOT.KEY_ITEM6_COMBO2 = SLOT_KEY_ITEM6_COMBO2;

  00f8c	c7 05 88 03 00
	00 e2 00 00 00	 mov	 DWORD PTR ?enumSLOT@@3UStrEnumSLOT@@A+904, 226 ; 000000e2H

; 590  : 	enumSLOT.KEY_ITEM7_COMBO1 = SLOT_KEY_ITEM7_COMBO1;

  00f96	c7 05 8c 03 00
	00 e3 00 00 00	 mov	 DWORD PTR ?enumSLOT@@3UStrEnumSLOT@@A+908, 227 ; 000000e3H

; 591  : 	enumSLOT.KEY_ITEM7_COMBO2 = SLOT_KEY_ITEM7_COMBO2;

  00fa0	c7 05 90 03 00
	00 e4 00 00 00	 mov	 DWORD PTR ?enumSLOT@@3UStrEnumSLOT@@A+912, 228 ; 000000e4H

; 592  : 	enumSLOT.KEY_ITEM8_COMBO1 = SLOT_KEY_ITEM8_COMBO1;

  00faa	c7 05 94 03 00
	00 e5 00 00 00	 mov	 DWORD PTR ?enumSLOT@@3UStrEnumSLOT@@A+916, 229 ; 000000e5H

; 593  : 	enumSLOT.KEY_ITEM8_COMBO2 = SLOT_KEY_ITEM8_COMBO2;

  00fb4	c7 05 98 03 00
	00 e6 00 00 00	 mov	 DWORD PTR ?enumSLOT@@3UStrEnumSLOT@@A+920, 230 ; 000000e6H

; 594  : 	enumSLOT.PICKUP_ITEM1 = SLOT_PICKUP_ITEM1;

  00fbe	c7 05 9c 03 00
	00 e7 00 00 00	 mov	 DWORD PTR ?enumSLOT@@3UStrEnumSLOT@@A+924, 231 ; 000000e7H

; 595  : 	enumSLOT.PICKUP_ITEM2 = SLOT_PICKUP_ITEM2;

  00fc8	c7 05 a0 03 00
	00 e8 00 00 00	 mov	 DWORD PTR ?enumSLOT@@3UStrEnumSLOT@@A+928, 232 ; 000000e8H

; 596  : 	enumSLOT.PICKUP_ITEM3 = SLOT_PICKUP_ITEM3;

  00fd2	c7 05 a4 03 00
	00 e9 00 00 00	 mov	 DWORD PTR ?enumSLOT@@3UStrEnumSLOT@@A+932, 233 ; 000000e9H

; 597  : 	enumSLOT.PICKUP_ITEM4 = SLOT_PICKUP_ITEM4;

  00fdc	c7 05 a8 03 00
	00 ea 00 00 00	 mov	 DWORD PTR ?enumSLOT@@3UStrEnumSLOT@@A+936, 234 ; 000000eaH

; 598  : 	enumSLOT.PICKUP_ITEM1_COMBO1 = SLOT_PICKUP_ITEM1_COMBO1;

  00fe6	c7 05 ac 03 00
	00 eb 00 00 00	 mov	 DWORD PTR ?enumSLOT@@3UStrEnumSLOT@@A+940, 235 ; 000000ebH

; 599  : 	enumSLOT.PICKUP_ITEM1_COMBO2 = SLOT_PICKUP_ITEM1_COMBO2;

  00ff0	c7 05 b0 03 00
	00 ec 00 00 00	 mov	 DWORD PTR ?enumSLOT@@3UStrEnumSLOT@@A+944, 236 ; 000000ecH

; 600  : 	enumSLOT.PICKUP_ITEM2_COMBO1 = SLOT_PICKUP_ITEM2_COMBO1;

  00ffa	c7 05 b4 03 00
	00 ed 00 00 00	 mov	 DWORD PTR ?enumSLOT@@3UStrEnumSLOT@@A+948, 237 ; 000000edH

; 601  : 	enumSLOT.PICKUP_ITEM2_COMBO2 = SLOT_PICKUP_ITEM2_COMBO2;

  01004	c7 05 b8 03 00
	00 ee 00 00 00	 mov	 DWORD PTR ?enumSLOT@@3UStrEnumSLOT@@A+952, 238 ; 000000eeH

; 602  : 	enumSLOT.PICKUP_ITEM3_COMBO1 = SLOT_PICKUP_ITEM3_COMBO1;

  0100e	c7 05 bc 03 00
	00 ef 00 00 00	 mov	 DWORD PTR ?enumSLOT@@3UStrEnumSLOT@@A+956, 239 ; 000000efH

; 603  : 	enumSLOT.PICKUP_ITEM3_COMBO2 = SLOT_PICKUP_ITEM3_COMBO2;

  01018	c7 05 c0 03 00
	00 f0 00 00 00	 mov	 DWORD PTR ?enumSLOT@@3UStrEnumSLOT@@A+960, 240 ; 000000f0H

; 604  : 	enumSLOT.PICKUP_ITEM4_COMBO1 = SLOT_PICKUP_ITEM4_COMBO1;

  01022	c7 05 c4 03 00
	00 f1 00 00 00	 mov	 DWORD PTR ?enumSLOT@@3UStrEnumSLOT@@A+964, 241 ; 000000f1H

; 605  : 	enumSLOT.PICKUP_ITEM4_COMBO2 = SLOT_PICKUP_ITEM4_COMBO2;

  0102c	c7 05 c8 03 00
	00 f2 00 00 00	 mov	 DWORD PTR ?enumSLOT@@3UStrEnumSLOT@@A+968, 242 ; 000000f2H

; 606  : 	enumSLOT.EXAMINE1 = SLOT_EXAMINE1;

  01036	c7 05 cc 03 00
	00 f3 00 00 00	 mov	 DWORD PTR ?enumSLOT@@3UStrEnumSLOT@@A+972, 243 ; 000000f3H

; 607  : 	enumSLOT.EXAMINE2 = SLOT_EXAMINE2;

  01040	c7 05 d0 03 00
	00 f4 00 00 00	 mov	 DWORD PTR ?enumSLOT@@3UStrEnumSLOT@@A+976, 244 ; 000000f4H

; 608  : 	enumSLOT.EXAMINE3 = SLOT_EXAMINE3;

  0104a	c7 05 d4 03 00
	00 f5 00 00 00	 mov	 DWORD PTR ?enumSLOT@@3UStrEnumSLOT@@A+980, 245 ; 000000f5H

; 609  : 	enumSLOT.CROWBAR_ITEM = SLOT_CROWBAR_ITEM;

  01054	c7 05 d8 03 00
	00 f6 00 00 00	 mov	 DWORD PTR ?enumSLOT@@3UStrEnumSLOT@@A+984, 246 ; 000000f6H

; 610  : 	enumSLOT.BURNING_TORCH_ITEM = SLOT_BURNING_TORCH_ITEM;

  0105e	c7 05 dc 03 00
	00 f7 00 00 00	 mov	 DWORD PTR ?enumSLOT@@3UStrEnumSLOT@@A+988, 247 ; 000000f7H

; 611  : 	enumSLOT.CLOCKWORK_BEETLE = SLOT_CLOCKWORK_BEETLE;

  01068	c7 05 e0 03 00
	00 f8 00 00 00	 mov	 DWORD PTR ?enumSLOT@@3UStrEnumSLOT@@A+992, 248 ; 000000f8H

; 612  : 	enumSLOT.CLOCKWORK_BEETLE_COMBO1 = SLOT_CLOCKWORK_BEETLE_COMBO1;

  01072	c7 05 e4 03 00
	00 f9 00 00 00	 mov	 DWORD PTR ?enumSLOT@@3UStrEnumSLOT@@A+996, 249 ; 000000f9H

; 613  : 	enumSLOT.CLOCKWORK_BEETLE_COMBO2 = SLOT_CLOCKWORK_BEETLE_COMBO2;

  0107c	c7 05 e8 03 00
	00 fa 00 00 00	 mov	 DWORD PTR ?enumSLOT@@3UStrEnumSLOT@@A+1000, 250 ; 000000faH

; 614  : 	enumSLOT.MINE_DETECTOR = SLOT_MINE_DETECTOR;

  01086	c7 05 ec 03 00
	00 fb 00 00 00	 mov	 DWORD PTR ?enumSLOT@@3UStrEnumSLOT@@A+1004, 251 ; 000000fbH

; 615  : 	enumSLOT.QUEST_ITEM1 = SLOT_QUEST_ITEM1;

  01090	c7 05 f0 03 00
	00 fc 00 00 00	 mov	 DWORD PTR ?enumSLOT@@3UStrEnumSLOT@@A+1008, 252 ; 000000fcH

; 616  : 	enumSLOT.QUEST_ITEM2 = SLOT_QUEST_ITEM2;

  0109a	c7 05 f4 03 00
	00 fd 00 00 00	 mov	 DWORD PTR ?enumSLOT@@3UStrEnumSLOT@@A+1012, 253 ; 000000fdH

; 617  : 	enumSLOT.QUEST_ITEM3 = SLOT_QUEST_ITEM3;

  010a4	c7 05 f8 03 00
	00 fe 00 00 00	 mov	 DWORD PTR ?enumSLOT@@3UStrEnumSLOT@@A+1016, 254 ; 000000feH

; 618  : 	enumSLOT.QUEST_ITEM4 = SLOT_QUEST_ITEM4;

  010ae	c7 05 fc 03 00
	00 ff 00 00 00	 mov	 DWORD PTR ?enumSLOT@@3UStrEnumSLOT@@A+1020, 255 ; 000000ffH

; 619  : 	enumSLOT.QUEST_ITEM5 = SLOT_QUEST_ITEM5;

  010b8	c7 05 00 04 00
	00 00 01 00 00	 mov	 DWORD PTR ?enumSLOT@@3UStrEnumSLOT@@A+1024, 256 ; 00000100H

; 620  : 	enumSLOT.QUEST_ITEM6 = SLOT_QUEST_ITEM6;

  010c2	c7 05 04 04 00
	00 01 01 00 00	 mov	 DWORD PTR ?enumSLOT@@3UStrEnumSLOT@@A+1028, 257 ; 00000101H

; 621  : 	enumSLOT.MAP = SLOT_MAP;

  010cc	c7 05 08 04 00
	00 02 01 00 00	 mov	 DWORD PTR ?enumSLOT@@3UStrEnumSLOT@@A+1032, 258 ; 00000102H

; 622  : 	enumSLOT.SECRET_MAP = SLOT_SECRET_MAP;

  010d6	c7 05 0c 04 00
	00 03 01 00 00	 mov	 DWORD PTR ?enumSLOT@@3UStrEnumSLOT@@A+1036, 259 ; 00000103H

; 623  : 	enumSLOT.PUZZLE_HOLE1 = SLOT_PUZZLE_HOLE1;

  010e0	c7 05 10 04 00
	00 04 01 00 00	 mov	 DWORD PTR ?enumSLOT@@3UStrEnumSLOT@@A+1040, 260 ; 00000104H

; 624  : 	enumSLOT.PUZZLE_HOLE2 = SLOT_PUZZLE_HOLE2;

  010ea	c7 05 14 04 00
	00 05 01 00 00	 mov	 DWORD PTR ?enumSLOT@@3UStrEnumSLOT@@A+1044, 261 ; 00000105H

; 625  : 	enumSLOT.PUZZLE_HOLE3 = SLOT_PUZZLE_HOLE3;

  010f4	c7 05 18 04 00
	00 06 01 00 00	 mov	 DWORD PTR ?enumSLOT@@3UStrEnumSLOT@@A+1048, 262 ; 00000106H

; 626  : 	enumSLOT.PUZZLE_HOLE4 = SLOT_PUZZLE_HOLE4;

  010fe	c7 05 1c 04 00
	00 07 01 00 00	 mov	 DWORD PTR ?enumSLOT@@3UStrEnumSLOT@@A+1052, 263 ; 00000107H

; 627  : 	enumSLOT.PUZZLE_HOLE5 = SLOT_PUZZLE_HOLE5;

  01108	c7 05 20 04 00
	00 08 01 00 00	 mov	 DWORD PTR ?enumSLOT@@3UStrEnumSLOT@@A+1056, 264 ; 00000108H

; 628  : 	enumSLOT.PUZZLE_HOLE6 = SLOT_PUZZLE_HOLE6;

  01112	c7 05 24 04 00
	00 09 01 00 00	 mov	 DWORD PTR ?enumSLOT@@3UStrEnumSLOT@@A+1060, 265 ; 00000109H

; 629  : 	enumSLOT.PUZZLE_HOLE7 = SLOT_PUZZLE_HOLE7;

  0111c	c7 05 28 04 00
	00 0a 01 00 00	 mov	 DWORD PTR ?enumSLOT@@3UStrEnumSLOT@@A+1064, 266 ; 0000010aH

; 630  : 	enumSLOT.PUZZLE_HOLE8 = SLOT_PUZZLE_HOLE8;

  01126	c7 05 2c 04 00
	00 0b 01 00 00	 mov	 DWORD PTR ?enumSLOT@@3UStrEnumSLOT@@A+1068, 267 ; 0000010bH

; 631  : 	enumSLOT.PUZZLE_HOLE9 = SLOT_PUZZLE_HOLE9;

  01130	c7 05 30 04 00
	00 0c 01 00 00	 mov	 DWORD PTR ?enumSLOT@@3UStrEnumSLOT@@A+1072, 268 ; 0000010cH

; 632  : 	enumSLOT.PUZZLE_HOLE10 = SLOT_PUZZLE_HOLE10;

  0113a	c7 05 34 04 00
	00 0d 01 00 00	 mov	 DWORD PTR ?enumSLOT@@3UStrEnumSLOT@@A+1076, 269 ; 0000010dH

; 633  : 	enumSLOT.PUZZLE_HOLE11 = SLOT_PUZZLE_HOLE11;

  01144	c7 05 38 04 00
	00 0e 01 00 00	 mov	 DWORD PTR ?enumSLOT@@3UStrEnumSLOT@@A+1080, 270 ; 0000010eH

; 634  : 	enumSLOT.PUZZLE_HOLE12 = SLOT_PUZZLE_HOLE12;

  0114e	c7 05 3c 04 00
	00 0f 01 00 00	 mov	 DWORD PTR ?enumSLOT@@3UStrEnumSLOT@@A+1084, 271 ; 0000010fH

; 635  : 	enumSLOT.PUZZLE_DONE1 = SLOT_PUZZLE_DONE1;

  01158	c7 05 40 04 00
	00 10 01 00 00	 mov	 DWORD PTR ?enumSLOT@@3UStrEnumSLOT@@A+1088, 272 ; 00000110H

; 636  : 	enumSLOT.PUZZLE_DONE2 = SLOT_PUZZLE_DONE2;

  01162	c7 05 44 04 00
	00 11 01 00 00	 mov	 DWORD PTR ?enumSLOT@@3UStrEnumSLOT@@A+1092, 273 ; 00000111H

; 637  : 	enumSLOT.PUZZLE_DONE3 = SLOT_PUZZLE_DONE3;

  0116c	c7 05 48 04 00
	00 12 01 00 00	 mov	 DWORD PTR ?enumSLOT@@3UStrEnumSLOT@@A+1096, 274 ; 00000112H

; 638  : 	enumSLOT.PUZZLE_DONE4 = SLOT_PUZZLE_DONE4;

  01176	c7 05 4c 04 00
	00 13 01 00 00	 mov	 DWORD PTR ?enumSLOT@@3UStrEnumSLOT@@A+1100, 275 ; 00000113H

; 639  : 	enumSLOT.PUZZLE_DONE5 = SLOT_PUZZLE_DONE5;

  01180	c7 05 50 04 00
	00 14 01 00 00	 mov	 DWORD PTR ?enumSLOT@@3UStrEnumSLOT@@A+1104, 276 ; 00000114H

; 640  : 	enumSLOT.PUZZLE_DONE6 = SLOT_PUZZLE_DONE6;

  0118a	c7 05 54 04 00
	00 15 01 00 00	 mov	 DWORD PTR ?enumSLOT@@3UStrEnumSLOT@@A+1108, 277 ; 00000115H

; 641  : 	enumSLOT.PUZZLE_DONE7 = SLOT_PUZZLE_DONE7;

  01194	c7 05 58 04 00
	00 16 01 00 00	 mov	 DWORD PTR ?enumSLOT@@3UStrEnumSLOT@@A+1112, 278 ; 00000116H

; 642  : 	enumSLOT.PUZZLE_DONE8 = SLOT_PUZZLE_DONE8;

  0119e	c7 05 5c 04 00
	00 17 01 00 00	 mov	 DWORD PTR ?enumSLOT@@3UStrEnumSLOT@@A+1116, 279 ; 00000117H

; 643  : 	enumSLOT.PUZZLE_DONE9 = SLOT_PUZZLE_DONE9;

  011a8	c7 05 60 04 00
	00 18 01 00 00	 mov	 DWORD PTR ?enumSLOT@@3UStrEnumSLOT@@A+1120, 280 ; 00000118H

; 644  : 	enumSLOT.PUZZLE_DONE10 = SLOT_PUZZLE_DONE10;

  011b2	c7 05 64 04 00
	00 19 01 00 00	 mov	 DWORD PTR ?enumSLOT@@3UStrEnumSLOT@@A+1124, 281 ; 00000119H

; 645  : 	enumSLOT.PUZZLE_DONE11 = SLOT_PUZZLE_DONE11;

  011bc	c7 05 68 04 00
	00 1a 01 00 00	 mov	 DWORD PTR ?enumSLOT@@3UStrEnumSLOT@@A+1128, 282 ; 0000011aH

; 646  : 	enumSLOT.PUZZLE_DONE12 = SLOT_PUZZLE_DONE12;

  011c6	c7 05 6c 04 00
	00 1b 01 00 00	 mov	 DWORD PTR ?enumSLOT@@3UStrEnumSLOT@@A+1132, 283 ; 0000011bH

; 647  : 	enumSLOT.KEY_HOLE1 = SLOT_KEY_HOLE1;

  011d0	c7 05 70 04 00
	00 1c 01 00 00	 mov	 DWORD PTR ?enumSLOT@@3UStrEnumSLOT@@A+1136, 284 ; 0000011cH

; 648  : 	enumSLOT.KEY_HOLE2 = SLOT_KEY_HOLE2;

  011da	c7 05 74 04 00
	00 1d 01 00 00	 mov	 DWORD PTR ?enumSLOT@@3UStrEnumSLOT@@A+1140, 285 ; 0000011dH

; 649  : 	enumSLOT.KEY_HOLE3 = SLOT_KEY_HOLE3;

  011e4	c7 05 78 04 00
	00 1e 01 00 00	 mov	 DWORD PTR ?enumSLOT@@3UStrEnumSLOT@@A+1144, 286 ; 0000011eH

; 650  : 	enumSLOT.KEY_HOLE4 = SLOT_KEY_HOLE4;

  011ee	c7 05 7c 04 00
	00 1f 01 00 00	 mov	 DWORD PTR ?enumSLOT@@3UStrEnumSLOT@@A+1148, 287 ; 0000011fH

; 651  : 	enumSLOT.KEY_HOLE5 = SLOT_KEY_HOLE5;

  011f8	c7 05 80 04 00
	00 20 01 00 00	 mov	 DWORD PTR ?enumSLOT@@3UStrEnumSLOT@@A+1152, 288 ; 00000120H

; 652  : 	enumSLOT.KEY_HOLE6 = SLOT_KEY_HOLE6;

  01202	c7 05 84 04 00
	00 21 01 00 00	 mov	 DWORD PTR ?enumSLOT@@3UStrEnumSLOT@@A+1156, 289 ; 00000121H

; 653  : 	enumSLOT.KEY_HOLE7 = SLOT_KEY_HOLE7;

  0120c	c7 05 88 04 00
	00 22 01 00 00	 mov	 DWORD PTR ?enumSLOT@@3UStrEnumSLOT@@A+1160, 290 ; 00000122H

; 654  : 	enumSLOT.KEY_HOLE8 = SLOT_KEY_HOLE8;

  01216	c7 05 8c 04 00
	00 23 01 00 00	 mov	 DWORD PTR ?enumSLOT@@3UStrEnumSLOT@@A+1164, 291 ; 00000123H

; 655  : 	enumSLOT.KEY_HOLE9 = SLOT_KEY_HOLE9;

  01220	c7 05 90 04 00
	00 24 01 00 00	 mov	 DWORD PTR ?enumSLOT@@3UStrEnumSLOT@@A+1168, 292 ; 00000124H

; 656  : 	enumSLOT.KEY_HOLE10 = SLOT_KEY_HOLE10;

  0122a	c7 05 94 04 00
	00 25 01 00 00	 mov	 DWORD PTR ?enumSLOT@@3UStrEnumSLOT@@A+1172, 293 ; 00000125H

; 657  : 	enumSLOT.KEY_HOLE11 = SLOT_KEY_HOLE11;

  01234	c7 05 98 04 00
	00 26 01 00 00	 mov	 DWORD PTR ?enumSLOT@@3UStrEnumSLOT@@A+1176, 294 ; 00000126H

; 658  : 	enumSLOT.KEY_HOLE12 = SLOT_KEY_HOLE12;

  0123e	c7 05 9c 04 00
	00 27 01 00 00	 mov	 DWORD PTR ?enumSLOT@@3UStrEnumSLOT@@A+1180, 295 ; 00000127H

; 659  : 	enumSLOT.WATERSKIN1_EMPTY = SLOT_WATERSKIN1_EMPTY;

  01248	c7 05 a0 04 00
	00 28 01 00 00	 mov	 DWORD PTR ?enumSLOT@@3UStrEnumSLOT@@A+1184, 296 ; 00000128H

; 660  : 	enumSLOT.WATERSKIN1_1 = SLOT_WATERSKIN1_1;

  01252	c7 05 a4 04 00
	00 29 01 00 00	 mov	 DWORD PTR ?enumSLOT@@3UStrEnumSLOT@@A+1188, 297 ; 00000129H

; 661  : 	enumSLOT.WATERSKIN1_2 = SLOT_WATERSKIN1_2;

  0125c	c7 05 a8 04 00
	00 2a 01 00 00	 mov	 DWORD PTR ?enumSLOT@@3UStrEnumSLOT@@A+1192, 298 ; 0000012aH

; 662  : 	enumSLOT.WATERSKIN1_3 = SLOT_WATERSKIN1_3;

  01266	c7 05 ac 04 00
	00 2b 01 00 00	 mov	 DWORD PTR ?enumSLOT@@3UStrEnumSLOT@@A+1196, 299 ; 0000012bH

; 663  : 	enumSLOT.WATERSKIN2_EMPTY = SLOT_WATERSKIN2_EMPTY;

  01270	c7 05 b0 04 00
	00 2c 01 00 00	 mov	 DWORD PTR ?enumSLOT@@3UStrEnumSLOT@@A+1200, 300 ; 0000012cH

; 664  : 	enumSLOT.WATERSKIN2_1 = SLOT_WATERSKIN2_1;

  0127a	c7 05 b4 04 00
	00 2d 01 00 00	 mov	 DWORD PTR ?enumSLOT@@3UStrEnumSLOT@@A+1204, 301 ; 0000012dH

; 665  : 	enumSLOT.WATERSKIN2_2 = SLOT_WATERSKIN2_2;

  01284	c7 05 b8 04 00
	00 2e 01 00 00	 mov	 DWORD PTR ?enumSLOT@@3UStrEnumSLOT@@A+1208, 302 ; 0000012eH

; 666  : 	enumSLOT.WATERSKIN2_3 = SLOT_WATERSKIN2_3;

  0128e	c7 05 bc 04 00
	00 2f 01 00 00	 mov	 DWORD PTR ?enumSLOT@@3UStrEnumSLOT@@A+1212, 303 ; 0000012fH

; 667  : 	enumSLOT.WATERSKIN2_4 = SLOT_WATERSKIN2_4;

  01298	c7 05 c0 04 00
	00 30 01 00 00	 mov	 DWORD PTR ?enumSLOT@@3UStrEnumSLOT@@A+1216, 304 ; 00000130H

; 668  : 	enumSLOT.WATERSKIN2_5 = SLOT_WATERSKIN2_5;

  012a2	c7 05 c4 04 00
	00 31 01 00 00	 mov	 DWORD PTR ?enumSLOT@@3UStrEnumSLOT@@A+1220, 305 ; 00000131H

; 669  : 	enumSLOT.SWITCH_TYPE1 = SLOT_SWITCH_TYPE1;

  012ac	c7 05 c8 04 00
	00 32 01 00 00	 mov	 DWORD PTR ?enumSLOT@@3UStrEnumSLOT@@A+1224, 306 ; 00000132H

; 670  : 	enumSLOT.SWITCH_TYPE2 = SLOT_SWITCH_TYPE2;

  012b6	c7 05 cc 04 00
	00 33 01 00 00	 mov	 DWORD PTR ?enumSLOT@@3UStrEnumSLOT@@A+1228, 307 ; 00000133H

; 671  : 	enumSLOT.SWITCH_TYPE3 = SLOT_SWITCH_TYPE3;

  012c0	c7 05 d0 04 00
	00 34 01 00 00	 mov	 DWORD PTR ?enumSLOT@@3UStrEnumSLOT@@A+1232, 308 ; 00000134H

; 672  : 	enumSLOT.SWITCH_TYPE4 = SLOT_SWITCH_TYPE4;

  012ca	c7 05 d4 04 00
	00 35 01 00 00	 mov	 DWORD PTR ?enumSLOT@@3UStrEnumSLOT@@A+1236, 309 ; 00000135H

; 673  : 	enumSLOT.SWITCH_TYPE5 = SLOT_SWITCH_TYPE5;

  012d4	c7 05 d8 04 00
	00 36 01 00 00	 mov	 DWORD PTR ?enumSLOT@@3UStrEnumSLOT@@A+1240, 310 ; 00000136H

; 674  : 	enumSLOT.SWITCH_TYPE6 = SLOT_SWITCH_TYPE6;

  012de	c7 05 dc 04 00
	00 37 01 00 00	 mov	 DWORD PTR ?enumSLOT@@3UStrEnumSLOT@@A+1244, 311 ; 00000137H

; 675  : 	enumSLOT.SWITCH_TYPE7 = SLOT_SWITCH_TYPE7;

  012e8	c7 05 e0 04 00
	00 38 01 00 00	 mov	 DWORD PTR ?enumSLOT@@3UStrEnumSLOT@@A+1248, 312 ; 00000138H

; 676  : 	enumSLOT.SWITCH_TYPE8 = SLOT_SWITCH_TYPE8;

  012f2	c7 05 e4 04 00
	00 39 01 00 00	 mov	 DWORD PTR ?enumSLOT@@3UStrEnumSLOT@@A+1252, 313 ; 00000139H

; 677  : 	enumSLOT.UNDERWATER_SWITCH1 = SLOT_UNDERWATER_SWITCH1;

  012fc	c7 05 e8 04 00
	00 3a 01 00 00	 mov	 DWORD PTR ?enumSLOT@@3UStrEnumSLOT@@A+1256, 314 ; 0000013aH

; 678  : 	enumSLOT.UNDERWATER_SWITCH2 = SLOT_UNDERWATER_SWITCH2;

  01306	c7 05 ec 04 00
	00 3b 01 00 00	 mov	 DWORD PTR ?enumSLOT@@3UStrEnumSLOT@@A+1260, 315 ; 0000013bH

; 679  : 	enumSLOT.TURN_SWITCH = SLOT_TURN_SWITCH;

  01310	c7 05 f0 04 00
	00 3c 01 00 00	 mov	 DWORD PTR ?enumSLOT@@3UStrEnumSLOT@@A+1264, 316 ; 0000013cH

; 680  : 	enumSLOT.COG_SWITCH = SLOT_COG_SWITCH;

  0131a	c7 05 f4 04 00
	00 3d 01 00 00	 mov	 DWORD PTR ?enumSLOT@@3UStrEnumSLOT@@A+1268, 317 ; 0000013dH

; 681  : 	enumSLOT.LEVER_SWITCH = SLOT_LEVER_SWITCH;

  01324	c7 05 f8 04 00
	00 3e 01 00 00	 mov	 DWORD PTR ?enumSLOT@@3UStrEnumSLOT@@A+1272, 318 ; 0000013eH

; 682  : 	enumSLOT.JUMP_SWITCH = SLOT_JUMP_SWITCH;

  0132e	c7 05 fc 04 00
	00 3f 01 00 00	 mov	 DWORD PTR ?enumSLOT@@3UStrEnumSLOT@@A+1276, 319 ; 0000013fH

; 683  : 	enumSLOT.CROWBAR_SWITCH = SLOT_CROWBAR_SWITCH;

  01338	c7 05 00 05 00
	00 40 01 00 00	 mov	 DWORD PTR ?enumSLOT@@3UStrEnumSLOT@@A+1280, 320 ; 00000140H

; 684  : 	enumSLOT.PULLEY = SLOT_PULLEY;

  01342	c7 05 04 05 00
	00 41 01 00 00	 mov	 DWORD PTR ?enumSLOT@@3UStrEnumSLOT@@A+1284, 321 ; 00000141H

; 685  : 	enumSLOT.DOOR_TYPE1 = SLOT_DOOR_TYPE1;

  0134c	c7 05 08 05 00
	00 42 01 00 00	 mov	 DWORD PTR ?enumSLOT@@3UStrEnumSLOT@@A+1288, 322 ; 00000142H

; 686  : 	enumSLOT.DOOR_TYPE2 = SLOT_DOOR_TYPE2;

  01356	c7 05 0c 05 00
	00 43 01 00 00	 mov	 DWORD PTR ?enumSLOT@@3UStrEnumSLOT@@A+1292, 323 ; 00000143H

; 687  : 	enumSLOT.DOOR_TYPE3 = SLOT_DOOR_TYPE3;

  01360	c7 05 10 05 00
	00 44 01 00 00	 mov	 DWORD PTR ?enumSLOT@@3UStrEnumSLOT@@A+1296, 324 ; 00000144H

; 688  : 	enumSLOT.DOOR_TYPE4 = SLOT_DOOR_TYPE4;

  0136a	c7 05 14 05 00
	00 45 01 00 00	 mov	 DWORD PTR ?enumSLOT@@3UStrEnumSLOT@@A+1300, 325 ; 00000145H

; 689  : 	enumSLOT.DOOR_TYPE5 = SLOT_DOOR_TYPE5;

  01374	c7 05 18 05 00
	00 46 01 00 00	 mov	 DWORD PTR ?enumSLOT@@3UStrEnumSLOT@@A+1304, 326 ; 00000146H

; 690  : 	enumSLOT.DOOR_TYPE6 = SLOT_DOOR_TYPE6;

  0137e	c7 05 1c 05 00
	00 47 01 00 00	 mov	 DWORD PTR ?enumSLOT@@3UStrEnumSLOT@@A+1308, 327 ; 00000147H

; 691  : 	enumSLOT.DOOR_TYPE7 = SLOT_DOOR_TYPE7;

  01388	c7 05 20 05 00
	00 48 01 00 00	 mov	 DWORD PTR ?enumSLOT@@3UStrEnumSLOT@@A+1312, 328 ; 00000148H

; 692  : 	enumSLOT.DOOR_TYPE8 = SLOT_DOOR_TYPE8;

  01392	c7 05 24 05 00
	00 49 01 00 00	 mov	 DWORD PTR ?enumSLOT@@3UStrEnumSLOT@@A+1316, 329 ; 00000149H

; 693  : 	enumSLOT.PUSHPULL_DOOR1 = SLOT_PUSHPULL_DOOR1;

  0139c	c7 05 28 05 00
	00 4a 01 00 00	 mov	 DWORD PTR ?enumSLOT@@3UStrEnumSLOT@@A+1320, 330 ; 0000014aH

; 694  : 	enumSLOT.PUSHPULL_DOOR2 = SLOT_PUSHPULL_DOOR2;

  013a6	c7 05 2c 05 00
	00 4b 01 00 00	 mov	 DWORD PTR ?enumSLOT@@3UStrEnumSLOT@@A+1324, 331 ; 0000014bH

; 695  : 	enumSLOT.KICK_DOOR1 = SLOT_KICK_DOOR1;

  013b0	c7 05 30 05 00
	00 4c 01 00 00	 mov	 DWORD PTR ?enumSLOT@@3UStrEnumSLOT@@A+1328, 332 ; 0000014cH

; 696  : 	enumSLOT.KICK_DOOR2 = SLOT_KICK_DOOR2;

  013ba	c7 05 34 05 00
	00 4d 01 00 00	 mov	 DWORD PTR ?enumSLOT@@3UStrEnumSLOT@@A+1332, 333 ; 0000014dH

; 697  : 	enumSLOT.UNDERWATER_DOOR = SLOT_UNDERWATER_DOOR;

  013c4	c7 05 38 05 00
	00 4e 01 00 00	 mov	 DWORD PTR ?enumSLOT@@3UStrEnumSLOT@@A+1336, 334 ; 0000014eH

; 698  : 	enumSLOT.DOUBLE_DOORS = SLOT_DOUBLE_DOORS;

  013ce	c7 05 3c 05 00
	00 4f 01 00 00	 mov	 DWORD PTR ?enumSLOT@@3UStrEnumSLOT@@A+1340, 335 ; 0000014fH

; 699  : 	enumSLOT.BRIDGE_FLAT = SLOT_BRIDGE_FLAT;

  013d8	c7 05 40 05 00
	00 50 01 00 00	 mov	 DWORD PTR ?enumSLOT@@3UStrEnumSLOT@@A+1344, 336 ; 00000150H

; 700  : 	enumSLOT.BRIDGE_TILT1 = SLOT_BRIDGE_TILT1;

  013e2	c7 05 44 05 00
	00 51 01 00 00	 mov	 DWORD PTR ?enumSLOT@@3UStrEnumSLOT@@A+1348, 337 ; 00000151H

; 701  : 	enumSLOT.BRIDGE_TILT2 = SLOT_BRIDGE_TILT2;

  013ec	c7 05 48 05 00
	00 52 01 00 00	 mov	 DWORD PTR ?enumSLOT@@3UStrEnumSLOT@@A+1352, 338 ; 00000152H

; 702  : 	enumSLOT.SARCOPHAGUS = SLOT_SARCOPHAGUS;

  013f6	c7 05 4c 05 00
	00 53 01 00 00	 mov	 DWORD PTR ?enumSLOT@@3UStrEnumSLOT@@A+1356, 339 ; 00000153H

; 703  : 	enumSLOT.SEQUENCE_DOOR1 = SLOT_SEQUENCE_DOOR1;

  01400	c7 05 50 05 00
	00 54 01 00 00	 mov	 DWORD PTR ?enumSLOT@@3UStrEnumSLOT@@A+1360, 340 ; 00000154H

; 704  : 	enumSLOT.SEQUENCE_SWITCH1 = SLOT_SEQUENCE_SWITCH1;

  0140a	c7 05 54 05 00
	00 55 01 00 00	 mov	 DWORD PTR ?enumSLOT@@3UStrEnumSLOT@@A+1364, 341 ; 00000155H

; 705  : 	enumSLOT.SEQUENCE_SWITCH2 = SLOT_SEQUENCE_SWITCH2;

  01414	c7 05 58 05 00
	00 56 01 00 00	 mov	 DWORD PTR ?enumSLOT@@3UStrEnumSLOT@@A+1368, 342 ; 00000156H

; 706  : 	enumSLOT.SEQUENCE_SWITCH3 = SLOT_SEQUENCE_SWITCH3;

  0141e	c7 05 5c 05 00
	00 57 01 00 00	 mov	 DWORD PTR ?enumSLOT@@3UStrEnumSLOT@@A+1372, 343 ; 00000157H

; 707  : 	enumSLOT.SARCOPHAGUS_CUT = SLOT_SARCOPHAGUS_CUT;

  01428	c7 05 60 05 00
	00 58 01 00 00	 mov	 DWORD PTR ?enumSLOT@@3UStrEnumSLOT@@A+1376, 344 ; 00000158H

; 708  : 	enumSLOT.HORUS_STATUE = SLOT_HORUS_STATUE;

  01432	c7 05 64 05 00
	00 59 01 00 00	 mov	 DWORD PTR ?enumSLOT@@3UStrEnumSLOT@@A+1380, 345 ; 00000159H

; 709  : 	enumSLOT.GOD_HEAD = SLOT_GOD_HEAD;

  0143c	c7 05 68 05 00
	00 5a 01 00 00	 mov	 DWORD PTR ?enumSLOT@@3UStrEnumSLOT@@A+1384, 346 ; 0000015aH

; 710  : 	enumSLOT.SETH_DOOR = SLOT_SETH_DOOR;

  01446	c7 05 6c 05 00
	00 5b 01 00 00	 mov	 DWORD PTR ?enumSLOT@@3UStrEnumSLOT@@A+1388, 347 ; 0000015bH

; 711  : 	enumSLOT.STATUE_PLINTH = SLOT_STATUE_PLINTH;

  01450	c7 05 70 05 00
	00 5c 01 00 00	 mov	 DWORD PTR ?enumSLOT@@3UStrEnumSLOT@@A+1392, 348 ; 0000015cH

; 712  : 	enumSLOT.PISTOLS_ITEM = SLOT_PISTOLS_ITEM;

  0145a	c7 05 74 05 00
	00 5d 01 00 00	 mov	 DWORD PTR ?enumSLOT@@3UStrEnumSLOT@@A+1396, 349 ; 0000015dH

; 713  : 	enumSLOT.PISTOLS_AMMO_ITEM = SLOT_PISTOLS_AMMO_ITEM;

  01464	c7 05 78 05 00
	00 5e 01 00 00	 mov	 DWORD PTR ?enumSLOT@@3UStrEnumSLOT@@A+1400, 350 ; 0000015eH

; 714  : 	enumSLOT.UZI_ITEM = SLOT_UZI_ITEM;

  0146e	c7 05 7c 05 00
	00 5f 01 00 00	 mov	 DWORD PTR ?enumSLOT@@3UStrEnumSLOT@@A+1404, 351 ; 0000015fH

; 715  : 	enumSLOT.UZI_AMMO_ITEM = SLOT_UZI_AMMO_ITEM;

  01478	c7 05 80 05 00
	00 60 01 00 00	 mov	 DWORD PTR ?enumSLOT@@3UStrEnumSLOT@@A+1408, 352 ; 00000160H

; 716  : 	enumSLOT.SHOTGUN_ITEM = SLOT_SHOTGUN_ITEM;

  01482	c7 05 84 05 00
	00 61 01 00 00	 mov	 DWORD PTR ?enumSLOT@@3UStrEnumSLOT@@A+1412, 353 ; 00000161H

; 717  : 	enumSLOT.SHOTGUN_AMMO1_ITEM = SLOT_SHOTGUN_AMMO1_ITEM;

  0148c	c7 05 88 05 00
	00 62 01 00 00	 mov	 DWORD PTR ?enumSLOT@@3UStrEnumSLOT@@A+1416, 354 ; 00000162H

; 718  : 	enumSLOT.SHOTGUN_AMMO2_ITEM = SLOT_SHOTGUN_AMMO2_ITEM;

  01496	c7 05 8c 05 00
	00 63 01 00 00	 mov	 DWORD PTR ?enumSLOT@@3UStrEnumSLOT@@A+1420, 355 ; 00000163H

; 719  : 	enumSLOT.CROSSBOW_ITEM = SLOT_CROSSBOW_ITEM;

  014a0	c7 05 90 05 00
	00 64 01 00 00	 mov	 DWORD PTR ?enumSLOT@@3UStrEnumSLOT@@A+1424, 356 ; 00000164H

; 720  : 	enumSLOT.CROSSBOW_AMMO1_ITEM = SLOT_CROSSBOW_AMMO1_ITEM;

  014aa	c7 05 94 05 00
	00 65 01 00 00	 mov	 DWORD PTR ?enumSLOT@@3UStrEnumSLOT@@A+1428, 357 ; 00000165H

; 721  : 	enumSLOT.CROSSBOW_AMMO2_ITEM = SLOT_CROSSBOW_AMMO2_ITEM;

  014b4	c7 05 98 05 00
	00 66 01 00 00	 mov	 DWORD PTR ?enumSLOT@@3UStrEnumSLOT@@A+1432, 358 ; 00000166H

; 722  : 	enumSLOT.CROSSBOW_AMMO3_ITEM = SLOT_CROSSBOW_AMMO3_ITEM;

  014be	c7 05 9c 05 00
	00 67 01 00 00	 mov	 DWORD PTR ?enumSLOT@@3UStrEnumSLOT@@A+1436, 359 ; 00000167H

; 723  : 	enumSLOT.CROSSBOW_BOLT = SLOT_CROSSBOW_BOLT;

  014c8	c7 05 a0 05 00
	00 68 01 00 00	 mov	 DWORD PTR ?enumSLOT@@3UStrEnumSLOT@@A+1440, 360 ; 00000168H

; 724  : 	enumSLOT.GRENADE_GUN_ITEM = SLOT_GRENADE_GUN_ITEM;

  014d2	c7 05 a4 05 00
	00 69 01 00 00	 mov	 DWORD PTR ?enumSLOT@@3UStrEnumSLOT@@A+1444, 361 ; 00000169H

; 725  : 	enumSLOT.GRENADE_GUN_AMMO1_ITEM = SLOT_GRENADE_GUN_AMMO1_ITEM;

  014dc	c7 05 a8 05 00
	00 6a 01 00 00	 mov	 DWORD PTR ?enumSLOT@@3UStrEnumSLOT@@A+1448, 362 ; 0000016aH

; 726  : 	enumSLOT.GRENADE_GUN_AMMO2_ITEM = SLOT_GRENADE_GUN_AMMO2_ITEM;

  014e6	c7 05 ac 05 00
	00 6b 01 00 00	 mov	 DWORD PTR ?enumSLOT@@3UStrEnumSLOT@@A+1452, 363 ; 0000016bH

; 727  : 	enumSLOT.GRENADE_GUN_AMMO3_ITEM = SLOT_GRENADE_GUN_AMMO3_ITEM;

  014f0	c7 05 b0 05 00
	00 6c 01 00 00	 mov	 DWORD PTR ?enumSLOT@@3UStrEnumSLOT@@A+1456, 364 ; 0000016cH

; 728  : 	enumSLOT.GRENADE = SLOT_GRENADE;

  014fa	c7 05 b4 05 00
	00 6d 01 00 00	 mov	 DWORD PTR ?enumSLOT@@3UStrEnumSLOT@@A+1460, 365 ; 0000016dH

; 729  : 	enumSLOT.SIXSHOOTER_ITEM = SLOT_SIXSHOOTER_ITEM;

  01504	c7 05 b8 05 00
	00 6e 01 00 00	 mov	 DWORD PTR ?enumSLOT@@3UStrEnumSLOT@@A+1464, 366 ; 0000016eH

; 730  : 	enumSLOT.SIXSHOOTER_AMMO_ITEM = SLOT_SIXSHOOTER_AMMO_ITEM;

  0150e	c7 05 bc 05 00
	00 6f 01 00 00	 mov	 DWORD PTR ?enumSLOT@@3UStrEnumSLOT@@A+1468, 367 ; 0000016fH

; 731  : 	enumSLOT.BIGMEDI_ITEM = SLOT_BIGMEDI_ITEM;

  01518	c7 05 c0 05 00
	00 70 01 00 00	 mov	 DWORD PTR ?enumSLOT@@3UStrEnumSLOT@@A+1472, 368 ; 00000170H

; 732  : 	enumSLOT.SMALLMEDI_ITEM = SLOT_SMALLMEDI_ITEM;

  01522	c7 05 c4 05 00
	00 71 01 00 00	 mov	 DWORD PTR ?enumSLOT@@3UStrEnumSLOT@@A+1476, 369 ; 00000171H

; 733  : 	enumSLOT.LASERSIGHT_ITEM = SLOT_LASERSIGHT_ITEM;

  0152c	c7 05 c8 05 00
	00 72 01 00 00	 mov	 DWORD PTR ?enumSLOT@@3UStrEnumSLOT@@A+1480, 370 ; 00000172H

; 734  : 	enumSLOT.BINOCULARS_ITEM = SLOT_BINOCULARS_ITEM;

  01536	c7 05 cc 05 00
	00 73 01 00 00	 mov	 DWORD PTR ?enumSLOT@@3UStrEnumSLOT@@A+1484, 371 ; 00000173H

; 735  : 	enumSLOT.FLARE_ITEM = SLOT_FLARE_ITEM;

  01540	c7 05 d0 05 00
	00 74 01 00 00	 mov	 DWORD PTR ?enumSLOT@@3UStrEnumSLOT@@A+1488, 372 ; 00000174H

; 736  : 	enumSLOT.FLARE_INV_ITEM = SLOT_FLARE_INV_ITEM;

  0154a	c7 05 d4 05 00
	00 75 01 00 00	 mov	 DWORD PTR ?enumSLOT@@3UStrEnumSLOT@@A+1492, 373 ; 00000175H

; 737  : 	enumSLOT.DIARY_ITEM = SLOT_DIARY_ITEM;

  01554	c7 05 d8 05 00
	00 76 01 00 00	 mov	 DWORD PTR ?enumSLOT@@3UStrEnumSLOT@@A+1496, 374 ; 00000176H

; 738  : 	enumSLOT.COMPASS_ITEM = SLOT_COMPASS_ITEM;

  0155e	c7 05 dc 05 00
	00 77 01 00 00	 mov	 DWORD PTR ?enumSLOT@@3UStrEnumSLOT@@A+1500, 375 ; 00000177H

; 739  : 	enumSLOT.MEMCARD_LOAD_INV_ITEM = SLOT_MEMCARD_LOAD_INV_ITEM;

  01568	c7 05 e0 05 00
	00 78 01 00 00	 mov	 DWORD PTR ?enumSLOT@@3UStrEnumSLOT@@A+1504, 376 ; 00000178H

; 740  : 	enumSLOT.MEMCARD_SAVE_INV_ITEM = SLOT_MEMCARD_SAVE_INV_ITEM;

  01572	c7 05 e4 05 00
	00 79 01 00 00	 mov	 DWORD PTR ?enumSLOT@@3UStrEnumSLOT@@A+1508, 377 ; 00000179H

; 741  : 	enumSLOT.PC_LOAD_INV_ITEM = SLOT_PC_LOAD_INV_ITEM;

  0157c	c7 05 e8 05 00
	00 7a 01 00 00	 mov	 DWORD PTR ?enumSLOT@@3UStrEnumSLOT@@A+1512, 378 ; 0000017aH

; 742  : 	enumSLOT.PC_SAVE_INV_ITEM = SLOT_PC_SAVE_INV_ITEM;

  01586	c7 05 ec 05 00
	00 7b 01 00 00	 mov	 DWORD PTR ?enumSLOT@@3UStrEnumSLOT@@A+1516, 379 ; 0000017bH

; 743  : 	enumSLOT.SMOKE_EMITTER_WHITE = SLOT_SMOKE_EMITTER_WHITE;

  01590	c7 05 f0 05 00
	00 7c 01 00 00	 mov	 DWORD PTR ?enumSLOT@@3UStrEnumSLOT@@A+1520, 380 ; 0000017cH

; 744  : 	enumSLOT.SMOKE_EMITTER_BLACK = SLOT_SMOKE_EMITTER_BLACK;

  0159a	c7 05 f4 05 00
	00 7d 01 00 00	 mov	 DWORD PTR ?enumSLOT@@3UStrEnumSLOT@@A+1524, 381 ; 0000017dH

; 745  : 	enumSLOT.STEAM_EMITTER = SLOT_STEAM_EMITTER;

  015a4	c7 05 f8 05 00
	00 7e 01 00 00	 mov	 DWORD PTR ?enumSLOT@@3UStrEnumSLOT@@A+1528, 382 ; 0000017eH

; 746  : 	enumSLOT.EARTHQUAKE = SLOT_EARTHQUAKE;

  015ae	c7 05 fc 05 00
	00 7f 01 00 00	 mov	 DWORD PTR ?enumSLOT@@3UStrEnumSLOT@@A+1532, 383 ; 0000017fH

; 747  : 	enumSLOT.BUBBLES = SLOT_BUBBLES;

  015b8	c7 05 00 06 00
	00 80 01 00 00	 mov	 DWORD PTR ?enumSLOT@@3UStrEnumSLOT@@A+1536, 384 ; 00000180H

; 748  : 	enumSLOT.WATERFALLMIST = SLOT_WATERFALLMIST;

  015c2	c7 05 04 06 00
	00 81 01 00 00	 mov	 DWORD PTR ?enumSLOT@@3UStrEnumSLOT@@A+1540, 385 ; 00000181H

; 749  : 	enumSLOT.GUNSHELL = SLOT_GUNSHELL;

  015cc	c7 05 08 06 00
	00 82 01 00 00	 mov	 DWORD PTR ?enumSLOT@@3UStrEnumSLOT@@A+1544, 386 ; 00000182H

; 750  : 	enumSLOT.SHOTGUNSHELL = SLOT_SHOTGUNSHELL;

  015d6	c7 05 0c 06 00
	00 83 01 00 00	 mov	 DWORD PTR ?enumSLOT@@3UStrEnumSLOT@@A+1548, 387 ; 00000183H

; 751  : 	enumSLOT.GUN_FLASH = SLOT_GUN_FLASH;

  015e0	c7 05 10 06 00
	00 84 01 00 00	 mov	 DWORD PTR ?enumSLOT@@3UStrEnumSLOT@@A+1552, 388 ; 00000184H

; 752  : 	enumSLOT.BUTTERFLY = SLOT_BUTTERFLY;

  015ea	c7 05 14 06 00
	00 85 01 00 00	 mov	 DWORD PTR ?enumSLOT@@3UStrEnumSLOT@@A+1556, 389 ; 00000185H

; 753  : 	enumSLOT.SPRINKLER = SLOT_SPRINKLER;

  015f4	c7 05 18 06 00
	00 86 01 00 00	 mov	 DWORD PTR ?enumSLOT@@3UStrEnumSLOT@@A+1560, 390 ; 00000186H

; 754  : 	enumSLOT.RED_LIGHT = SLOT_RED_LIGHT;

  015fe	c7 05 1c 06 00
	00 87 01 00 00	 mov	 DWORD PTR ?enumSLOT@@3UStrEnumSLOT@@A+1564, 391 ; 00000187H

; 755  : 	enumSLOT.GREEN_LIGHT = SLOT_GREEN_LIGHT;

  01608	c7 05 20 06 00
	00 88 01 00 00	 mov	 DWORD PTR ?enumSLOT@@3UStrEnumSLOT@@A+1568, 392 ; 00000188H

; 756  : 	enumSLOT.BLUE_LIGHT = SLOT_BLUE_LIGHT;

  01612	c7 05 24 06 00
	00 89 01 00 00	 mov	 DWORD PTR ?enumSLOT@@3UStrEnumSLOT@@A+1572, 393 ; 00000189H

; 757  : 	enumSLOT.AMBER_LIGHT = SLOT_AMBER_LIGHT;

  0161c	c7 05 28 06 00
	00 8a 01 00 00	 mov	 DWORD PTR ?enumSLOT@@3UStrEnumSLOT@@A+1576, 394 ; 0000018aH

; 758  : 	enumSLOT.WHITE_LIGHT = SLOT_WHITE_LIGHT;

  01626	c7 05 2c 06 00
	00 8b 01 00 00	 mov	 DWORD PTR ?enumSLOT@@3UStrEnumSLOT@@A+1580, 395 ; 0000018bH

; 759  : 	enumSLOT.BLINKING_LIGHT = SLOT_BLINKING_LIGHT;

  01630	c7 05 30 06 00
	00 8c 01 00 00	 mov	 DWORD PTR ?enumSLOT@@3UStrEnumSLOT@@A+1584, 396 ; 0000018cH

; 760  : 	enumSLOT.LENS_FLARE = SLOT_LENS_FLARE;

  0163a	c7 05 34 06 00
	00 8d 01 00 00	 mov	 DWORD PTR ?enumSLOT@@3UStrEnumSLOT@@A+1588, 397 ; 0000018dH

; 761  : 	enumSLOT.AI_GUARD = SLOT_AI_GUARD;

  01644	c7 05 38 06 00
	00 8e 01 00 00	 mov	 DWORD PTR ?enumSLOT@@3UStrEnumSLOT@@A+1592, 398 ; 0000018eH

; 762  : 	enumSLOT.AI_AMBUSH = SLOT_AI_AMBUSH;

  0164e	c7 05 3c 06 00
	00 8f 01 00 00	 mov	 DWORD PTR ?enumSLOT@@3UStrEnumSLOT@@A+1596, 399 ; 0000018fH

; 763  : 	enumSLOT.AI_PATROL1 = SLOT_AI_PATROL1;

  01658	c7 05 40 06 00
	00 90 01 00 00	 mov	 DWORD PTR ?enumSLOT@@3UStrEnumSLOT@@A+1600, 400 ; 00000190H

; 764  : 	enumSLOT.AI_MODIFY = SLOT_AI_MODIFY;

  01662	c7 05 44 06 00
	00 91 01 00 00	 mov	 DWORD PTR ?enumSLOT@@3UStrEnumSLOT@@A+1604, 401 ; 00000191H

; 765  : 	enumSLOT.AI_FOLLOW = SLOT_AI_FOLLOW;

  0166c	c7 05 48 06 00
	00 92 01 00 00	 mov	 DWORD PTR ?enumSLOT@@3UStrEnumSLOT@@A+1608, 402 ; 00000192H

; 766  : 	enumSLOT.AI_PATROL2 = SLOT_AI_PATROL2;

  01676	c7 05 4c 06 00
	00 93 01 00 00	 mov	 DWORD PTR ?enumSLOT@@3UStrEnumSLOT@@A+1612, 403 ; 00000193H

; 767  : 	enumSLOT.AI_X1 = SLOT_AI_X1;

  01680	c7 05 50 06 00
	00 94 01 00 00	 mov	 DWORD PTR ?enumSLOT@@3UStrEnumSLOT@@A+1616, 404 ; 00000194H

; 768  : 	enumSLOT.AI_X2 = SLOT_AI_X2;

  0168a	c7 05 54 06 00
	00 95 01 00 00	 mov	 DWORD PTR ?enumSLOT@@3UStrEnumSLOT@@A+1620, 405 ; 00000195H

; 769  : 	enumSLOT.LARA_START_POS = SLOT_LARA_START_POS;

  01694	c7 05 58 06 00
	00 96 01 00 00	 mov	 DWORD PTR ?enumSLOT@@3UStrEnumSLOT@@A+1624, 406 ; 00000196H

; 770  : 	enumSLOT.KILL_ALL_TRIGGERS = SLOT_KILL_ALL_TRIGGERS;

  0169e	c7 05 5c 06 00
	00 97 01 00 00	 mov	 DWORD PTR ?enumSLOT@@3UStrEnumSLOT@@A+1628, 407 ; 00000197H

; 771  : 	enumSLOT.TRIGGER_TRIGGERER = SLOT_TRIGGER_TRIGGERER;

  016a8	c7 05 60 06 00
	00 98 01 00 00	 mov	 DWORD PTR ?enumSLOT@@3UStrEnumSLOT@@A+1632, 408 ; 00000198H

; 772  : 	enumSLOT.SMASH_OBJECT1 = SLOT_SMASH_OBJECT1;

  016b2	c7 05 64 06 00
	00 99 01 00 00	 mov	 DWORD PTR ?enumSLOT@@3UStrEnumSLOT@@A+1636, 409 ; 00000199H

; 773  : 	enumSLOT.SMASH_OBJECT2 = SLOT_SMASH_OBJECT2;

  016bc	c7 05 68 06 00
	00 9a 01 00 00	 mov	 DWORD PTR ?enumSLOT@@3UStrEnumSLOT@@A+1640, 410 ; 0000019aH

; 774  : 	enumSLOT.SMASH_OBJECT3 = SLOT_SMASH_OBJECT3;

  016c6	c7 05 6c 06 00
	00 9b 01 00 00	 mov	 DWORD PTR ?enumSLOT@@3UStrEnumSLOT@@A+1644, 411 ; 0000019bH

; 775  : 	enumSLOT.SMASH_OBJECT4 = SLOT_SMASH_OBJECT4;

  016d0	c7 05 70 06 00
	00 9c 01 00 00	 mov	 DWORD PTR ?enumSLOT@@3UStrEnumSLOT@@A+1648, 412 ; 0000019cH

; 776  : 	enumSLOT.SMASH_OBJECT5 = SLOT_SMASH_OBJECT5;

  016da	c7 05 74 06 00
	00 9d 01 00 00	 mov	 DWORD PTR ?enumSLOT@@3UStrEnumSLOT@@A+1652, 413 ; 0000019dH

; 777  : 	enumSLOT.SMASH_OBJECT6 = SLOT_SMASH_OBJECT6;

  016e4	c7 05 78 06 00
	00 9e 01 00 00	 mov	 DWORD PTR ?enumSLOT@@3UStrEnumSLOT@@A+1656, 414 ; 0000019eH

; 778  : 	enumSLOT.SMASH_OBJECT7 = SLOT_SMASH_OBJECT7;

  016ee	c7 05 7c 06 00
	00 9f 01 00 00	 mov	 DWORD PTR ?enumSLOT@@3UStrEnumSLOT@@A+1660, 415 ; 0000019fH

; 779  : 	enumSLOT.SMASH_OBJECT8 = SLOT_SMASH_OBJECT8;

  016f8	c7 05 80 06 00
	00 a0 01 00 00	 mov	 DWORD PTR ?enumSLOT@@3UStrEnumSLOT@@A+1664, 416 ; 000001a0H

; 780  : 	enumSLOT.MESHSWAP1 = SLOT_MESHSWAP1;

  01702	c7 05 84 06 00
	00 a1 01 00 00	 mov	 DWORD PTR ?enumSLOT@@3UStrEnumSLOT@@A+1668, 417 ; 000001a1H

; 781  : 	enumSLOT.MESHSWAP2 = SLOT_MESHSWAP2;

  0170c	c7 05 88 06 00
	00 a2 01 00 00	 mov	 DWORD PTR ?enumSLOT@@3UStrEnumSLOT@@A+1672, 418 ; 000001a2H

; 782  : 	enumSLOT.MESHSWAP3 = SLOT_MESHSWAP3;

  01716	c7 05 8c 06 00
	00 a3 01 00 00	 mov	 DWORD PTR ?enumSLOT@@3UStrEnumSLOT@@A+1676, 419 ; 000001a3H

; 783  : 	enumSLOT.DEATH_SLIDE = SLOT_DEATH_SLIDE;

  01720	c7 05 90 06 00
	00 a4 01 00 00	 mov	 DWORD PTR ?enumSLOT@@3UStrEnumSLOT@@A+1680, 420 ; 000001a4H

; 784  : 	enumSLOT.BODY_PART = SLOT_BODY_PART;

  0172a	c7 05 94 06 00
	00 a5 01 00 00	 mov	 DWORD PTR ?enumSLOT@@3UStrEnumSLOT@@A+1684, 421 ; 000001a5H

; 785  : 	enumSLOT.CAMERA_TARGET = SLOT_CAMERA_TARGET;

  01734	c7 05 98 06 00
	00 a6 01 00 00	 mov	 DWORD PTR ?enumSLOT@@3UStrEnumSLOT@@A+1688, 422 ; 000001a6H

; 786  : 	enumSLOT.WATERFALL1 = SLOT_WATERFALL1;

  0173e	c7 05 9c 06 00
	00 a7 01 00 00	 mov	 DWORD PTR ?enumSLOT@@3UStrEnumSLOT@@A+1692, 423 ; 000001a7H

; 787  : 	enumSLOT.WATERFALL2 = SLOT_WATERFALL2;

  01748	c7 05 a0 06 00
	00 a8 01 00 00	 mov	 DWORD PTR ?enumSLOT@@3UStrEnumSLOT@@A+1696, 424 ; 000001a8H

; 788  : 	enumSLOT.WATERFALL3 = SLOT_WATERFALL3;

  01752	c7 05 a4 06 00
	00 a9 01 00 00	 mov	 DWORD PTR ?enumSLOT@@3UStrEnumSLOT@@A+1700, 425 ; 000001a9H

; 789  : 	enumSLOT.PLANET_EFFECT = SLOT_PLANET_EFFECT;

  0175c	c7 05 a8 06 00
	00 aa 01 00 00	 mov	 DWORD PTR ?enumSLOT@@3UStrEnumSLOT@@A+1704, 426 ; 000001aaH

; 790  : 	enumSLOT.ANIMATING1 = SLOT_ANIMATING1;

  01766	c7 05 ac 06 00
	00 ab 01 00 00	 mov	 DWORD PTR ?enumSLOT@@3UStrEnumSLOT@@A+1708, 427 ; 000001abH

; 791  : 	enumSLOT.ANIMATING1_MIP = SLOT_ANIMATING1_MIP;

  01770	c7 05 b0 06 00
	00 ac 01 00 00	 mov	 DWORD PTR ?enumSLOT@@3UStrEnumSLOT@@A+1712, 428 ; 000001acH

; 792  : 	enumSLOT.ANIMATING2 = SLOT_ANIMATING2;

  0177a	c7 05 b4 06 00
	00 ad 01 00 00	 mov	 DWORD PTR ?enumSLOT@@3UStrEnumSLOT@@A+1716, 429 ; 000001adH

; 793  : 	enumSLOT.ANIMATING2_MIP = SLOT_ANIMATING2_MIP;

  01784	c7 05 b8 06 00
	00 ae 01 00 00	 mov	 DWORD PTR ?enumSLOT@@3UStrEnumSLOT@@A+1720, 430 ; 000001aeH

; 794  : 	enumSLOT.ANIMATING3 = SLOT_ANIMATING3;

  0178e	c7 05 bc 06 00
	00 af 01 00 00	 mov	 DWORD PTR ?enumSLOT@@3UStrEnumSLOT@@A+1724, 431 ; 000001afH

; 795  : 	enumSLOT.ANIMATING3_MIP = SLOT_ANIMATING3_MIP;

  01798	c7 05 c0 06 00
	00 b0 01 00 00	 mov	 DWORD PTR ?enumSLOT@@3UStrEnumSLOT@@A+1728, 432 ; 000001b0H

; 796  : 	enumSLOT.ANIMATING4 = SLOT_ANIMATING4;

  017a2	c7 05 c4 06 00
	00 b1 01 00 00	 mov	 DWORD PTR ?enumSLOT@@3UStrEnumSLOT@@A+1732, 433 ; 000001b1H

; 797  : 	enumSLOT.ANIMATING4_MIP = SLOT_ANIMATING4_MIP;

  017ac	c7 05 c8 06 00
	00 b2 01 00 00	 mov	 DWORD PTR ?enumSLOT@@3UStrEnumSLOT@@A+1736, 434 ; 000001b2H

; 798  : 	enumSLOT.ANIMATING5 = SLOT_ANIMATING5;

  017b6	c7 05 cc 06 00
	00 b3 01 00 00	 mov	 DWORD PTR ?enumSLOT@@3UStrEnumSLOT@@A+1740, 435 ; 000001b3H

; 799  : 	enumSLOT.ANIMATING5_MIP = SLOT_ANIMATING5_MIP;

  017c0	c7 05 d0 06 00
	00 b4 01 00 00	 mov	 DWORD PTR ?enumSLOT@@3UStrEnumSLOT@@A+1744, 436 ; 000001b4H

; 800  : 	enumSLOT.ANIMATING6 = SLOT_ANIMATING6;

  017ca	c7 05 d4 06 00
	00 b5 01 00 00	 mov	 DWORD PTR ?enumSLOT@@3UStrEnumSLOT@@A+1748, 437 ; 000001b5H

; 801  : 	enumSLOT.ANIMATING6_MIP = SLOT_ANIMATING6_MIP;

  017d4	c7 05 d8 06 00
	00 b6 01 00 00	 mov	 DWORD PTR ?enumSLOT@@3UStrEnumSLOT@@A+1752, 438 ; 000001b6H

; 802  : 	enumSLOT.ANIMATING7 = SLOT_ANIMATING7;

  017de	c7 05 dc 06 00
	00 b7 01 00 00	 mov	 DWORD PTR ?enumSLOT@@3UStrEnumSLOT@@A+1756, 439 ; 000001b7H

; 803  : 	enumSLOT.ANIMATING7_MIP = SLOT_ANIMATING7_MIP;

  017e8	c7 05 e0 06 00
	00 b8 01 00 00	 mov	 DWORD PTR ?enumSLOT@@3UStrEnumSLOT@@A+1760, 440 ; 000001b8H

; 804  : 	enumSLOT.ANIMATING8 = SLOT_ANIMATING8;

  017f2	c7 05 e4 06 00
	00 b9 01 00 00	 mov	 DWORD PTR ?enumSLOT@@3UStrEnumSLOT@@A+1764, 441 ; 000001b9H

; 805  : 	enumSLOT.ANIMATING8_MIP = SLOT_ANIMATING8_MIP;

  017fc	c7 05 e8 06 00
	00 ba 01 00 00	 mov	 DWORD PTR ?enumSLOT@@3UStrEnumSLOT@@A+1768, 442 ; 000001baH

; 806  : 	enumSLOT.ANIMATING9 = SLOT_ANIMATING9;

  01806	c7 05 ec 06 00
	00 bb 01 00 00	 mov	 DWORD PTR ?enumSLOT@@3UStrEnumSLOT@@A+1772, 443 ; 000001bbH

; 807  : 	enumSLOT.ANIMATING9_MIP = SLOT_ANIMATING9_MIP;

  01810	c7 05 f0 06 00
	00 bc 01 00 00	 mov	 DWORD PTR ?enumSLOT@@3UStrEnumSLOT@@A+1776, 444 ; 000001bcH

; 808  : 	enumSLOT.ANIMATING10 = SLOT_ANIMATING10;

  0181a	c7 05 f4 06 00
	00 bd 01 00 00	 mov	 DWORD PTR ?enumSLOT@@3UStrEnumSLOT@@A+1780, 445 ; 000001bdH

; 809  : 	enumSLOT.ANIMATING10_MIP = SLOT_ANIMATING10_MIP;

  01824	c7 05 f8 06 00
	00 be 01 00 00	 mov	 DWORD PTR ?enumSLOT@@3UStrEnumSLOT@@A+1784, 446 ; 000001beH

; 810  : 	enumSLOT.ANIMATING11 = SLOT_ANIMATING11;

  0182e	c7 05 fc 06 00
	00 bf 01 00 00	 mov	 DWORD PTR ?enumSLOT@@3UStrEnumSLOT@@A+1788, 447 ; 000001bfH

; 811  : 	enumSLOT.ANIMATING11_MIP = SLOT_ANIMATING11_MIP;

  01838	c7 05 00 07 00
	00 c0 01 00 00	 mov	 DWORD PTR ?enumSLOT@@3UStrEnumSLOT@@A+1792, 448 ; 000001c0H

; 812  : 	enumSLOT.ANIMATING12 = SLOT_ANIMATING12;

  01842	c7 05 04 07 00
	00 c1 01 00 00	 mov	 DWORD PTR ?enumSLOT@@3UStrEnumSLOT@@A+1796, 449 ; 000001c1H

; 813  : 	enumSLOT.ANIMATING12_MIP = SLOT_ANIMATING12_MIP;

  0184c	c7 05 08 07 00
	00 c2 01 00 00	 mov	 DWORD PTR ?enumSLOT@@3UStrEnumSLOT@@A+1800, 450 ; 000001c2H

; 814  : 	enumSLOT.ANIMATING13 = SLOT_ANIMATING13;

  01856	c7 05 0c 07 00
	00 c3 01 00 00	 mov	 DWORD PTR ?enumSLOT@@3UStrEnumSLOT@@A+1804, 451 ; 000001c3H

; 815  : 	enumSLOT.ANIMATING13_MIP = SLOT_ANIMATING13_MIP;

  01860	c7 05 10 07 00
	00 c4 01 00 00	 mov	 DWORD PTR ?enumSLOT@@3UStrEnumSLOT@@A+1808, 452 ; 000001c4H

; 816  : 	enumSLOT.ANIMATING14 = SLOT_ANIMATING14;

  0186a	c7 05 14 07 00
	00 c5 01 00 00	 mov	 DWORD PTR ?enumSLOT@@3UStrEnumSLOT@@A+1812, 453 ; 000001c5H

; 817  : 	enumSLOT.ANIMATING14_MIP = SLOT_ANIMATING14_MIP;

  01874	c7 05 18 07 00
	00 c6 01 00 00	 mov	 DWORD PTR ?enumSLOT@@3UStrEnumSLOT@@A+1816, 454 ; 000001c6H

; 818  : 	enumSLOT.ANIMATING15 = SLOT_ANIMATING15;

  0187e	c7 05 1c 07 00
	00 c7 01 00 00	 mov	 DWORD PTR ?enumSLOT@@3UStrEnumSLOT@@A+1820, 455 ; 000001c7H

; 819  : 	enumSLOT.ANIMATING15_MIP = SLOT_ANIMATING15_MIP;

  01888	c7 05 20 07 00
	00 c8 01 00 00	 mov	 DWORD PTR ?enumSLOT@@3UStrEnumSLOT@@A+1824, 456 ; 000001c8H

; 820  : 	enumSLOT.ANIMATING16 = SLOT_ANIMATING16;

  01892	c7 05 24 07 00
	00 c9 01 00 00	 mov	 DWORD PTR ?enumSLOT@@3UStrEnumSLOT@@A+1828, 457 ; 000001c9H

; 821  : 	enumSLOT.ANIMATING16_MIP = SLOT_ANIMATING16_MIP;

  0189c	c7 05 28 07 00
	00 ca 01 00 00	 mov	 DWORD PTR ?enumSLOT@@3UStrEnumSLOT@@A+1832, 458 ; 000001caH

; 822  : 	enumSLOT.HORIZON = SLOT_HORIZON;

  018a6	c7 05 2c 07 00
	00 cb 01 00 00	 mov	 DWORD PTR ?enumSLOT@@3UStrEnumSLOT@@A+1836, 459 ; 000001cbH

; 823  : 	enumSLOT.SKY_GRAPHICS = SLOT_SKY_GRAPHICS;

  018b0	c7 05 30 07 00
	00 cc 01 00 00	 mov	 DWORD PTR ?enumSLOT@@3UStrEnumSLOT@@A+1840, 460 ; 000001ccH

; 824  : 	enumSLOT.BINOCULAR_GRAPHICS = SLOT_BINOCULAR_GRAPHICS;

  018ba	c7 05 34 07 00
	00 cd 01 00 00	 mov	 DWORD PTR ?enumSLOT@@3UStrEnumSLOT@@A+1844, 461 ; 000001cdH

; 825  : 	enumSLOT.TARGET_GRAPHICS = SLOT_TARGET_GRAPHICS;

  018c4	c7 05 38 07 00
	00 ce 01 00 00	 mov	 DWORD PTR ?enumSLOT@@3UStrEnumSLOT@@A+1848, 462 ; 000001ceH

; 826  : 	enumSLOT.DEFAULT_SPRITES = SLOT_DEFAULT_SPRITES;

  018ce	c7 05 3c 07 00
	00 cf 01 00 00	 mov	 DWORD PTR ?enumSLOT@@3UStrEnumSLOT@@A+1852, 463 ; 000001cfH

; 827  : 	enumSLOT.MISC_SPRITES = SLOT_MISC_SPRITES;

  018d8	c7 05 40 07 00
	00 d0 01 00 00	 mov	 DWORD PTR ?enumSLOT@@3UStrEnumSLOT@@A+1856, 464 ; 000001d0H

; 828  : 	enumSLOT.MOTOR_BOAT = SLOT_MOTOR_BOAT;

  018e2	c7 05 44 07 00
	00 d1 01 00 00	 mov	 DWORD PTR ?enumSLOT@@3UStrEnumSLOT@@A+1860, 465 ; 000001d1H

; 829  : 	enumSLOT.MOTOR_BOAT_LARA = SLOT_MOTOR_BOAT_LARA;

  018ec	c7 05 48 07 00
	00 d2 01 00 00	 mov	 DWORD PTR ?enumSLOT@@3UStrEnumSLOT@@A+1864, 466 ; 000001d2H

; 830  : 	enumSLOT.RUBBER_BOAT = SLOT_RUBBER_BOAT;

  018f6	c7 05 4c 07 00
	00 d3 01 00 00	 mov	 DWORD PTR ?enumSLOT@@3UStrEnumSLOT@@A+1868, 467 ; 000001d3H

; 831  : 	enumSLOT.RUBBER_BOAT_LARA = SLOT_RUBBER_BOAT_LARA;

  01900	c7 05 50 07 00
	00 d4 01 00 00	 mov	 DWORD PTR ?enumSLOT@@3UStrEnumSLOT@@A+1872, 468 ; 000001d4H

; 832  : 	enumSLOT.MOTORBIKE_LARA = SLOT_MOTORBIKE_LARA;

  0190a	c7 05 54 07 00
	00 d5 01 00 00	 mov	 DWORD PTR ?enumSLOT@@3UStrEnumSLOT@@A+1876, 469 ; 000001d5H

; 833  : 	enumSLOT.FONT_GRAPHICS = SLOT_FONT_GRAPHICS;

  01914	c7 05 58 07 00
	00 d6 01 00 00	 mov	 DWORD PTR ?enumSLOT@@3UStrEnumSLOT@@A+1880, 470 ; 000001d6H

; 834  : 	enumSLOT.PARALLEL_BARS = SLOT_PARALLEL_BARS;

  0191e	c7 05 5c 07 00
	00 d7 01 00 00	 mov	 DWORD PTR ?enumSLOT@@3UStrEnumSLOT@@A+1884, 471 ; 000001d7H

; 835  : 	enumSLOT.PANEL_BORDER = SLOT_PANEL_BORDER;

  01928	c7 05 60 07 00
	00 d8 01 00 00	 mov	 DWORD PTR ?enumSLOT@@3UStrEnumSLOT@@A+1888, 472 ; 000001d8H

; 836  : 	enumSLOT.PANEL_MIDDLE = SLOT_PANEL_MIDDLE;

  01932	c7 05 64 07 00
	00 d9 01 00 00	 mov	 DWORD PTR ?enumSLOT@@3UStrEnumSLOT@@A+1892, 473 ; 000001d9H

; 837  : 	enumSLOT.PANEL_CORNER = SLOT_PANEL_CORNER;

  0193c	c7 05 68 07 00
	00 da 01 00 00	 mov	 DWORD PTR ?enumSLOT@@3UStrEnumSLOT@@A+1896, 474 ; 000001daH

; 838  : 	enumSLOT.PANEL_DIAGONAL = SLOT_PANEL_DIAGONAL;

  01946	c7 05 6c 07 00
	00 db 01 00 00	 mov	 DWORD PTR ?enumSLOT@@3UStrEnumSLOT@@A+1900, 475 ; 000001dbH

; 839  : 	enumSLOT.PANEL_STRIP = SLOT_PANEL_STRIP;

  01950	c7 05 70 07 00
	00 dc 01 00 00	 mov	 DWORD PTR ?enumSLOT@@3UStrEnumSLOT@@A+1904, 476 ; 000001dcH

; 840  : 	enumSLOT.PANEL_HALF_BORDER1 = SLOT_PANEL_HALF_BORDER1;

  0195a	c7 05 74 07 00
	00 dd 01 00 00	 mov	 DWORD PTR ?enumSLOT@@3UStrEnumSLOT@@A+1908, 477 ; 000001ddH

; 841  : 	enumSLOT.PANEL_HALF_BORDER2 = SLOT_PANEL_HALF_BORDER2;

  01964	c7 05 78 07 00
	00 de 01 00 00	 mov	 DWORD PTR ?enumSLOT@@3UStrEnumSLOT@@A+1912, 478 ; 000001deH

; 842  : 	enumSLOT.PANEL_MIDDLE_CORNER = SLOT_PANEL_MIDDLE_CORNER;

  0196e	c7 05 7c 07 00
	00 df 01 00 00	 mov	 DWORD PTR ?enumSLOT@@3UStrEnumSLOT@@A+1916, 479 ; 000001dfH

; 843  : 	enumSLOT.TIGHT_ROPE = SLOT_TIGHT_ROPE;

  01978	c7 05 80 07 00
	00 e0 01 00 00	 mov	 DWORD PTR ?enumSLOT@@3UStrEnumSLOT@@A+1920, 480 ; 000001e0H

; 844  : 	enumSLOT.LASER_HEAD = SLOT_LASER_HEAD;

  01982	c7 05 84 07 00
	00 e1 01 00 00	 mov	 DWORD PTR ?enumSLOT@@3UStrEnumSLOT@@A+1924, 481 ; 000001e1H

; 845  : 	enumSLOT.LASER_HEAD_BASE = SLOT_LASER_HEAD_BASE;

  0198c	c7 05 88 07 00
	00 e2 01 00 00	 mov	 DWORD PTR ?enumSLOT@@3UStrEnumSLOT@@A+1928, 482 ; 000001e2H

; 846  : 	enumSLOT.LASER_HEAD_TENTACLE = SLOT_LASER_HEAD_TENTACLE;

  01996	c7 05 8c 07 00
	00 e3 01 00 00	 mov	 DWORD PTR ?enumSLOT@@3UStrEnumSLOT@@A+1932, 483 ; 000001e3H

; 847  : 	enumSLOT.HYDRA = SLOT_HYDRA;

  019a0	c7 05 90 07 00
	00 e4 01 00 00	 mov	 DWORD PTR ?enumSLOT@@3UStrEnumSLOT@@A+1936, 484 ; 000001e4H

; 848  : 	enumSLOT.HYDRA_MISSILE = SLOT_HYDRA_MISSILE;

  019aa	c7 05 94 07 00
	00 e5 01 00 00	 mov	 DWORD PTR ?enumSLOT@@3UStrEnumSLOT@@A+1940, 485 ; 000001e5H

; 849  : 	enumSLOT.ENEMY_SUB_MARINE = SLOT_ENEMY_SUB_MARINE;

  019b4	c7 05 98 07 00
	00 e6 01 00 00	 mov	 DWORD PTR ?enumSLOT@@3UStrEnumSLOT@@A+1944, 486 ; 000001e6H

; 850  : 	enumSLOT.ENEMY_SUB_MARINE_MIP = SLOT_ENEMY_SUB_MARINE_MIP;

  019be	c7 05 9c 07 00
	00 e7 01 00 00	 mov	 DWORD PTR ?enumSLOT@@3UStrEnumSLOT@@A+1948, 487 ; 000001e7H

; 851  : 	enumSLOT.SUB_MARINE_MISSILE = SLOT_SUB_MARINE_MISSILE;

  019c8	c7 05 a0 07 00
	00 e8 01 00 00	 mov	 DWORD PTR ?enumSLOT@@3UStrEnumSLOT@@A+1952, 488 ; 000001e8H

; 852  : 	enumSLOT.FROG_MAN = SLOT_FROG_MAN;

  019d2	c7 05 a4 07 00
	00 e9 01 00 00	 mov	 DWORD PTR ?enumSLOT@@3UStrEnumSLOT@@A+1956, 489 ; 000001e9H

; 853  : 	enumSLOT.FROG_MAN_HARPOON = SLOT_FROG_MAN_HARPOON;

  019dc	c7 05 a8 07 00
	00 ea 01 00 00	 mov	 DWORD PTR ?enumSLOT@@3UStrEnumSLOT@@A+1960, 490 ; 000001eaH

; 854  : 	enumSLOT.FISH_EMITTER = SLOT_FISH_EMITTER;

  019e6	c7 05 ac 07 00
	00 eb 01 00 00	 mov	 DWORD PTR ?enumSLOT@@3UStrEnumSLOT@@A+1964, 491 ; 000001ebH

; 855  : 	enumSLOT.KAYAK = SLOT_KAYAK;

  019f0	c7 05 b0 07 00
	00 ec 01 00 00	 mov	 DWORD PTR ?enumSLOT@@3UStrEnumSLOT@@A+1968, 492 ; 000001ecH

; 856  : 	enumSLOT.KAYAK_LARA = SLOT_KAYAK_LARA;

  019fa	c7 05 b4 07 00
	00 ed 01 00 00	 mov	 DWORD PTR ?enumSLOT@@3UStrEnumSLOT@@A+1972, 493 ; 000001edH

; 857  : 	enumSLOT.CUSTOM_SPRITES = SLOT_CUSTOM_SPRITES;

  01a04	c7 05 b8 07 00
	00 ee 01 00 00	 mov	 DWORD PTR ?enumSLOT@@3UStrEnumSLOT@@A+1976, 494 ; 000001eeH

; 858  : 	enumSLOT.BRIDGE_TILT3 = SLOT_BRIDGE_TILT3;

  01a0e	c7 05 bc 07 00
	00 ef 01 00 00	 mov	 DWORD PTR ?enumSLOT@@3UStrEnumSLOT@@A+1980, 495 ; 000001efH

; 859  : 	enumSLOT.BRIDGE_TILT4 = SLOT_BRIDGE_TILT4;

  01a18	c7 05 c0 07 00
	00 f0 01 00 00	 mov	 DWORD PTR ?enumSLOT@@3UStrEnumSLOT@@A+1984, 496 ; 000001f0H

; 860  : 	enumSLOT.BRIDGE_CUSTOM = SLOT_BRIDGE_CUSTOM;

  01a22	c7 05 c4 07 00
	00 f1 01 00 00	 mov	 DWORD PTR ?enumSLOT@@3UStrEnumSLOT@@A+1988, 497 ; 000001f1H

; 861  : 	enumSLOT.ROBOT_CLEANER = SLOT_ROBOT_CLEANER;

  01a2c	c7 05 c8 07 00
	00 f2 01 00 00	 mov	 DWORD PTR ?enumSLOT@@3UStrEnumSLOT@@A+1992, 498 ; 000001f2H

; 862  : 	enumSLOT.ROBOT_STAR_WARS = SLOT_ROBOT_STAR_WARS;

  01a36	c7 05 cc 07 00
	00 f3 01 00 00	 mov	 DWORD PTR ?enumSLOT@@3UStrEnumSLOT@@A+1996, 499 ; 000001f3H

; 863  : 	enumSLOT.MECH_WARRIOR = SLOT_MECH_WARRIOR;

  01a40	c7 05 d0 07 00
	00 f4 01 00 00	 mov	 DWORD PTR ?enumSLOT@@3UStrEnumSLOT@@A+2000, 500 ; 000001f4H

; 864  : 	enumSLOT.MECH_WARRIOR_LARA = SLOT_MECH_WARRIOR_LARA;

  01a4a	c7 05 d4 07 00
	00 f5 01 00 00	 mov	 DWORD PTR ?enumSLOT@@3UStrEnumSLOT@@A+2004, 501 ; 000001f5H

; 865  : 	enumSLOT.UW_PROPULSOR = SLOT_UW_PROPULSOR;

  01a54	c7 05 d8 07 00
	00 f6 01 00 00	 mov	 DWORD PTR ?enumSLOT@@3UStrEnumSLOT@@A+2008, 502 ; 000001f6H

; 866  : 	enumSLOT.UW_PROPULSOR_LARA = SLOT_UW_PROPULSOR_LARA;

  01a5e	c7 05 dc 07 00
	00 f7 01 00 00	 mov	 DWORD PTR ?enumSLOT@@3UStrEnumSLOT@@A+2012, 503 ; 000001f7H

; 867  : 	enumSLOT.MINE_CART = SLOT_MINE_CART;

  01a68	c7 05 e0 07 00
	00 f8 01 00 00	 mov	 DWORD PTR ?enumSLOT@@3UStrEnumSLOT@@A+2016, 504 ; 000001f8H

; 868  : 	enumSLOT.MINE_CART_LARA = SLOT_MINE_CART_LARA;

  01a72	c7 05 e4 07 00
	00 f9 01 00 00	 mov	 DWORD PTR ?enumSLOT@@3UStrEnumSLOT@@A+2020, 505 ; 000001f9H

; 869  : 	enumSLOT.NEW_SLOT5 = SLOT_NEW_SLOT5;

  01a7c	c7 05 e8 07 00
	00 fa 01 00 00	 mov	 DWORD PTR ?enumSLOT@@3UStrEnumSLOT@@A+2024, 506 ; 000001faH

; 870  : 	enumSLOT.NEW_SLOT6 = SLOT_NEW_SLOT6;

  01a86	c7 05 ec 07 00
	00 fb 01 00 00	 mov	 DWORD PTR ?enumSLOT@@3UStrEnumSLOT@@A+2028, 507 ; 000001fbH

; 871  : 	enumSLOT.NEW_SLOT7 = SLOT_NEW_SLOT7;

  01a90	c7 05 f0 07 00
	00 fc 01 00 00	 mov	 DWORD PTR ?enumSLOT@@3UStrEnumSLOT@@A+2032, 508 ; 000001fcH

; 872  : 	enumSLOT.NEW_SLOT8 = SLOT_NEW_SLOT8;

  01a9a	c7 05 f4 07 00
	00 fd 01 00 00	 mov	 DWORD PTR ?enumSLOT@@3UStrEnumSLOT@@A+2036, 509 ; 000001fdH

; 873  : 	enumSLOT.NEW_SLOT9 = SLOT_NEW_SLOT9;

  01aa4	c7 05 f8 07 00
	00 fe 01 00 00	 mov	 DWORD PTR ?enumSLOT@@3UStrEnumSLOT@@A+2040, 510 ; 000001feH

; 874  : 	enumSLOT.NEW_SLOT10 = SLOT_NEW_SLOT10;

  01aae	c7 05 fc 07 00
	00 ff 01 00 00	 mov	 DWORD PTR ?enumSLOT@@3UStrEnumSLOT@@A+2044, 511 ; 000001ffH

; 875  : 	enumSLOT.NEW_SLOT11 = SLOT_NEW_SLOT11;

  01ab8	c7 05 00 08 00
	00 00 02 00 00	 mov	 DWORD PTR ?enumSLOT@@3UStrEnumSLOT@@A+2048, 512 ; 00000200H

; 876  : 	enumSLOT.NEW_SLOT12 = SLOT_NEW_SLOT12;

  01ac2	c7 05 04 08 00
	00 01 02 00 00	 mov	 DWORD PTR ?enumSLOT@@3UStrEnumSLOT@@A+2052, 513 ; 00000201H

; 877  : 	enumSLOT.NEW_SLOT13 = SLOT_NEW_SLOT13;

  01acc	c7 05 08 08 00
	00 02 02 00 00	 mov	 DWORD PTR ?enumSLOT@@3UStrEnumSLOT@@A+2056, 514 ; 00000202H

; 878  : 	enumSLOT.NEW_SLOT14 = SLOT_NEW_SLOT14;

  01ad6	c7 05 0c 08 00
	00 03 02 00 00	 mov	 DWORD PTR ?enumSLOT@@3UStrEnumSLOT@@A+2060, 515 ; 00000203H

; 879  : 	enumSLOT.NEW_SLOT15 = SLOT_NEW_SLOT15;

  01ae0	c7 05 10 08 00
	00 04 02 00 00	 mov	 DWORD PTR ?enumSLOT@@3UStrEnumSLOT@@A+2064, 516 ; 00000204H

; 880  : 	enumSLOT.NEW_SLOT16 = SLOT_NEW_SLOT16;

  01aea	c7 05 14 08 00
	00 05 02 00 00	 mov	 DWORD PTR ?enumSLOT@@3UStrEnumSLOT@@A+2068, 517 ; 00000205H

; 881  : 	enumSLOT.NEW_SLOT17 = SLOT_NEW_SLOT17;

  01af4	c7 05 18 08 00
	00 06 02 00 00	 mov	 DWORD PTR ?enumSLOT@@3UStrEnumSLOT@@A+2072, 518 ; 00000206H

; 882  : 	enumSLOT.NEW_SLOT18 = SLOT_NEW_SLOT18;

  01afe	c7 05 1c 08 00
	00 07 02 00 00	 mov	 DWORD PTR ?enumSLOT@@3UStrEnumSLOT@@A+2076, 519 ; 00000207H

; 883  : 	enumSLOT.NUMBER_OBJECTS = SLOT_NUMBER_OBJECTS;

  01b08	c7 05 20 08 00
	00 08 02 00 00	 mov	 DWORD PTR ?enumSLOT@@3UStrEnumSLOT@@A+2080, 520 ; 00000208H

; 884  : 
; 885  : //  --------------- LOAD CONSTANTS FOR ENUM STRUCTURE: enumGET----------------------
; 886  : 	enumGET.LARA = GET_LARA;

  01b12	c7 05 00 00 00
	00 00 00 00 00	 mov	 DWORD PTR ?enumGET@@3UStrEnumGET@@A, 0

; 887  : 	enumGET.ITEM = GET_ITEM;

  01b1c	c7 05 04 00 00
	00 01 00 00 00	 mov	 DWORD PTR ?enumGET@@3UStrEnumGET@@A+4, 1

; 888  : 	enumGET.STATIC = GET_STATIC;

  01b26	c7 05 08 00 00
	00 02 00 00 00	 mov	 DWORD PTR ?enumGET@@3UStrEnumGET@@A+8, 2

; 889  : 	enumGET.ROOM = GET_ROOM;

  01b30	c7 05 0c 00 00
	00 03 00 00 00	 mov	 DWORD PTR ?enumGET@@3UStrEnumGET@@A+12, 3

; 890  : 	enumGET.ITEM_COLL_BOX = GET_ITEM_COLL_BOX;

  01b3a	c7 05 10 00 00
	00 04 00 00 00	 mov	 DWORD PTR ?enumGET@@3UStrEnumGET@@A+16, 4

; 891  : 	enumGET.STATIC_COLL_BOX = GET_STATIC_COLL_BOX;

  01b44	c7 05 14 00 00
	00 05 00 00 00	 mov	 DWORD PTR ?enumGET@@3UStrEnumGET@@A+20, 5

; 892  : 	enumGET.STATIC_VIEW_BOX = GET_STATIC_VIEW_BOX;

  01b4e	c7 05 18 00 00
	00 06 00 00 00	 mov	 DWORD PTR ?enumGET@@3UStrEnumGET@@A+24, 6

; 893  : 	enumGET.DOOR_OF_ROOM = GET_DOOR_OF_ROOM;

  01b58	c7 05 1c 00 00
	00 07 00 00 00	 mov	 DWORD PTR ?enumGET@@3UStrEnumGET@@A+28, 7

; 894  : 	enumGET.INFO_LARA = GET_INFO_LARA;

  01b62	c7 05 20 00 00
	00 08 00 00 00	 mov	 DWORD PTR ?enumGET@@3UStrEnumGET@@A+32, 8

; 895  : 	enumGET.MY_PARAMETER_COMMAND = GET_MY_PARAMETER_COMMAND;

  01b6c	c7 05 24 00 00
	00 09 00 00 00	 mov	 DWORD PTR ?enumGET@@3UStrEnumGET@@A+36, 9

; 896  : 	enumGET.MY_CUSTOMIZE_COMMAND = GET_MY_CUSTOMIZE_COMMAND;

  01b76	c7 05 28 00 00
	00 0a 00 00 00	 mov	 DWORD PTR ?enumGET@@3UStrEnumGET@@A+40, 10 ; 0000000aH

; 897  : 	enumGET.INPUT = GET_INPUT;

  01b80	c7 05 2c 00 00
	00 0b 00 00 00	 mov	 DWORD PTR ?enumGET@@3UStrEnumGET@@A+44, 11 ; 0000000bH

; 898  : 	enumGET.STRINGNG = GET_STRINGNG;

  01b8a	c7 05 30 00 00
	00 0c 00 00 00	 mov	 DWORD PTR ?enumGET@@3UStrEnumGET@@A+48, 12 ; 0000000cH

; 899  : 	enumGET.STRING = GET_STRING;

  01b94	c7 05 34 00 00
	00 0d 00 00 00	 mov	 DWORD PTR ?enumGET@@3UStrEnumGET@@A+52, 13 ; 0000000dH

; 900  : 	enumGET.BIG_NUMBER = GET_BIG_NUMBER;

  01b9e	c7 05 38 00 00
	00 0e 00 00 00	 mov	 DWORD PTR ?enumGET@@3UStrEnumGET@@A+56, 14 ; 0000000eH

; 901  : 	enumGET.SCRIPT_SETTINGS = GET_SCRIPT_SETTINGS;

  01ba8	c7 05 3c 00 00
	00 0f 00 00 00	 mov	 DWORD PTR ?enumGET@@3UStrEnumGET@@A+60, 15 ; 0000000fH

; 902  : 	enumGET.PROGRESSIVE_ACTION = GET_PROGRESSIVE_ACTION;

  01bb2	c7 05 40 00 00
	00 10 00 00 00	 mov	 DWORD PTR ?enumGET@@3UStrEnumGET@@A+64, 16 ; 00000010H

; 903  : 	enumGET.AI_ITEM = GET_AI_ITEM;

  01bbc	c7 05 44 00 00
	00 11 00 00 00	 mov	 DWORD PTR ?enumGET@@3UStrEnumGET@@A+68, 17 ; 00000011H

; 904  : 	enumGET.LIGHT = GET_LIGHT;

  01bc6	c7 05 48 00 00
	00 12 00 00 00	 mov	 DWORD PTR ?enumGET@@3UStrEnumGET@@A+72, 18 ; 00000012H

; 905  : 	enumGET.CAMERA = GET_CAMERA;

  01bd0	c7 05 4c 00 00
	00 13 00 00 00	 mov	 DWORD PTR ?enumGET@@3UStrEnumGET@@A+76, 19 ; 00000013H

; 906  : 	enumGET.CAMERA_FLY = GET_CAMERA_FLY;

  01bda	c7 05 50 00 00
	00 14 00 00 00	 mov	 DWORD PTR ?enumGET@@3UStrEnumGET@@A+80, 20 ; 00000014H

; 907  : 	enumGET.COLOR_RGB = GET_COLOR_RGB;

  01be4	c7 05 54 00 00
	00 15 00 00 00	 mov	 DWORD PTR ?enumGET@@3UStrEnumGET@@A+84, 21 ; 00000015H

; 908  : 	enumGET.GAME_INFO = GET_GAME_INFO;

  01bee	c7 05 58 00 00
	00 16 00 00 00	 mov	 DWORD PTR ?enumGET@@3UStrEnumGET@@A+88, 22 ; 00000016H

; 909  : 	enumGET.SLOT = GET_SLOT;

  01bf8	c7 05 5c 00 00
	00 17 00 00 00	 mov	 DWORD PTR ?enumGET@@3UStrEnumGET@@A+92, 23 ; 00000017H

; 910  : 	enumGET.INVENTORY = GET_INVENTORY;

  01c02	c7 05 60 00 00
	00 18 00 00 00	 mov	 DWORD PTR ?enumGET@@3UStrEnumGET@@A+96, 24 ; 00000018H

; 911  : 	enumGET.ANIMATION = GET_ANIMATION;

  01c0c	c7 05 64 00 00
	00 19 00 00 00	 mov	 DWORD PTR ?enumGET@@3UStrEnumGET@@A+100, 25 ; 00000019H

; 912  : 	enumGET.INFO_ITEM = GET_INFO_ITEM;

  01c16	c7 05 68 00 00
	00 1a 00 00 00	 mov	 DWORD PTR ?enumGET@@3UStrEnumGET@@A+104, 26 ; 0000001aH

; 913  : 	enumGET.VARIABLES = GET_VARIABLES;

  01c20	c7 05 6c 00 00
	00 1b 00 00 00	 mov	 DWORD PTR ?enumGET@@3UStrEnumGET@@A+108, 27 ; 0000001bH

; 914  : 	enumGET.FLIPMAPS = GET_FLIPMAPS;

  01c2a	c7 05 70 00 00
	00 1c 00 00 00	 mov	 DWORD PTR ?enumGET@@3UStrEnumGET@@A+112, 28 ; 0000001cH

; 915  : 
; 916  : //  --------------- LOAD CONSTANTS FOR ENUM STRUCTURE: enumSKIP----------------------
; 917  : 	enumSKIP.NONE = SKIP_NONE;

  01c34	c7 05 00 00 00
	00 00 00 00 00	 mov	 DWORD PTR ?enumSKIP@@3UStrEnumSKIP@@A, 0

; 918  : 	enumSKIP.FIXED_CAMERA = SKIP_FIXED_CAMERA;

  01c3e	c7 05 04 00 00
	00 01 00 00 00	 mov	 DWORD PTR ?enumSKIP@@3UStrEnumSKIP@@A+4, 1

; 919  : 	enumSKIP.FLY_CAMERA = SKIP_FLY_CAMERA;

  01c48	c7 05 08 00 00
	00 02 00 00 00	 mov	 DWORD PTR ?enumSKIP@@3UStrEnumSKIP@@A+8, 2

; 920  : 	enumSKIP.LOADING_LEVEL = SKIP_LOADING_LEVEL;

  01c52	c7 05 0c 00 00
	00 04 00 00 00	 mov	 DWORD PTR ?enumSKIP@@3UStrEnumSKIP@@A+12, 4

; 921  : 	enumSKIP.FADE = SKIP_FADE;

  01c5c	c7 05 10 00 00
	00 08 00 00 00	 mov	 DWORD PTR ?enumSKIP@@3UStrEnumSKIP@@A+16, 8

; 922  : 	enumSKIP.TITLE_LEVEL = SKIP_TITLE_LEVEL;

  01c66	c7 05 14 00 00
	00 10 00 00 00	 mov	 DWORD PTR ?enumSKIP@@3UStrEnumSKIP@@A+20, 16 ; 00000010H

; 923  : 	enumSKIP.GRAY_SCREEN = SKIP_GRAY_SCREEN;

  01c70	c7 05 18 00 00
	00 20 00 00 00	 mov	 DWORD PTR ?enumSKIP@@3UStrEnumSKIP@@A+24, 32 ; 00000020H

; 924  : 	enumSKIP.NO_VIEW_OGGETTI = SKIP_NO_VIEW_OGGETTI;

  01c7a	c7 05 1c 00 00
	00 40 00 00 00	 mov	 DWORD PTR ?enumSKIP@@3UStrEnumSKIP@@A+28, 64 ; 00000040H

; 925  : 	enumSKIP.BINOCULARS = SKIP_BINOCULARS;

  01c84	c7 05 20 00 00
	00 80 00 00 00	 mov	 DWORD PTR ?enumSKIP@@3UStrEnumSKIP@@A+32, 128 ; 00000080H

; 926  : 	enumSKIP.LASER_SIGHT = SKIP_LASER_SIGHT;

  01c8e	c7 05 24 00 00
	00 00 01 00 00	 mov	 DWORD PTR ?enumSKIP@@3UStrEnumSKIP@@A+36, 256 ; 00000100H

; 927  : 	enumSKIP.FULL_IMAGE = SKIP_FULL_IMAGE;

  01c98	c7 05 28 00 00
	00 00 02 00 00	 mov	 DWORD PTR ?enumSKIP@@3UStrEnumSKIP@@A+40, 512 ; 00000200H

; 928  : 
; 929  : //  --------------- LOAD CONSTANTS FOR ENUM STRUCTURE: enumFL2----------------------
; 930  : 	enumFL2.OVER_MINE_TRIGGER = FL2_OVER_MINE_TRIGGER;

  01ca2	c7 05 00 00 00
	00 01 00 00 00	 mov	 DWORD PTR ?enumFL2@@3UStrEnumFL2@@A, 1

; 931  : 	enumFL2.IS_BURNING = FL2_IS_BURNING;

  01cac	c7 05 04 00 00
	00 02 00 00 00	 mov	 DWORD PTR ?enumFL2@@3UStrEnumFL2@@A+4, 2

; 932  : 	enumFL2.IS_DUCK = FL2_IS_DUCK;

  01cb6	c7 05 08 00 00
	00 04 00 00 00	 mov	 DWORD PTR ?enumFL2@@3UStrEnumFL2@@A+8, 4

; 933  : 	enumFL2.IS_INVULNERABLE = FL2_IS_INVULNERABLE;

  01cc0	c7 05 0c 00 00
	00 08 00 00 00	 mov	 DWORD PTR ?enumFL2@@3UStrEnumFL2@@A+12, 8

; 934  : 	enumFL2.IS_USING_LASER_SIGHT_OR_BINOCULARS = FL2_IS_USING_LASER_SIGHT_OR_BINOCULARS;

  01cca	c7 05 10 00 00
	00 10 00 00 00	 mov	 DWORD PTR ?enumFL2@@3UStrEnumFL2@@A+16, 16 ; 00000010H

; 935  : 	enumFL2.TORCH_IS_BURNING = FL2_TORCH_IS_BURNING;

  01cd4	c7 05 14 00 00
	00 20 00 00 00	 mov	 DWORD PTR ?enumFL2@@3UStrEnumFL2@@A+20, 32 ; 00000020H

; 936  : 	enumFL2.IS_CLIMBING = FL2_IS_CLIMBING;

  01cde	c7 05 18 00 00
	00 40 00 00 00	 mov	 DWORD PTR ?enumFL2@@3UStrEnumFL2@@A+24, 64 ; 00000040H

; 937  : 
; 938  : //  --------------- LOAD CONSTANTS FOR ENUM STRUCTURE: enumHOLD----------------------
; 939  : 	enumHOLD.PISTOLS = HOLD_PISTOLS;

  01ce8	c7 05 00 00 00
	00 01 00 00 00	 mov	 DWORD PTR ?enumHOLD@@3UStrEnumHOLD@@A, 1

; 940  : 	enumHOLD.REVOLVER = HOLD_REVOLVER;

  01cf2	c7 05 04 00 00
	00 02 00 00 00	 mov	 DWORD PTR ?enumHOLD@@3UStrEnumHOLD@@A+4, 2

; 941  : 	enumHOLD.UZI = HOLD_UZI;

  01cfc	c7 05 08 00 00
	00 03 00 00 00	 mov	 DWORD PTR ?enumHOLD@@3UStrEnumHOLD@@A+8, 3

; 942  : 	enumHOLD.SHOTGUN = HOLD_SHOTGUN;

  01d06	c7 05 0c 00 00
	00 04 00 00 00	 mov	 DWORD PTR ?enumHOLD@@3UStrEnumHOLD@@A+12, 4

; 943  : 	enumHOLD.GRENADEGUN = HOLD_GRENADEGUN;

  01d10	c7 05 10 00 00
	00 05 00 00 00	 mov	 DWORD PTR ?enumHOLD@@3UStrEnumHOLD@@A+16, 5

; 944  : 	enumHOLD.CROSSBOW = HOLD_CROSSBOW;

  01d1a	c7 05 14 00 00
	00 06 00 00 00	 mov	 DWORD PTR ?enumHOLD@@3UStrEnumHOLD@@A+20, 6

; 945  : 	enumHOLD.FLARE = HOLD_FLARE;

  01d24	c7 05 18 00 00
	00 07 00 00 00	 mov	 DWORD PTR ?enumHOLD@@3UStrEnumHOLD@@A+24, 7

; 946  : 	enumHOLD.OUT_TORCH = HOLD_OUT_TORCH;

  01d2e	c7 05 1c 00 00
	00 08 00 00 00	 mov	 DWORD PTR ?enumHOLD@@3UStrEnumHOLD@@A+28, 8

; 947  : 	enumHOLD.FIRED_TORCH = HOLD_FIRED_TORCH;

  01d38	c7 05 20 00 00
	00 09 00 00 00	 mov	 DWORD PTR ?enumHOLD@@3UStrEnumHOLD@@A+32, 9

; 948  : 	enumHOLD.JEEP = HOLD_JEEP;

  01d42	c7 05 24 00 00
	00 0a 00 00 00	 mov	 DWORD PTR ?enumHOLD@@3UStrEnumHOLD@@A+36, 10 ; 0000000aH

; 949  : 	enumHOLD.SIDECAR = HOLD_SIDECAR;

  01d4c	c7 05 28 00 00
	00 0b 00 00 00	 mov	 DWORD PTR ?enumHOLD@@3UStrEnumHOLD@@A+40, 11 ; 0000000bH

; 950  : 	enumHOLD.RUBBER_BOAT = HOLD_RUBBER_BOAT;

  01d56	c7 05 2c 00 00
	00 0c 00 00 00	 mov	 DWORD PTR ?enumHOLD@@3UStrEnumHOLD@@A+44, 12 ; 0000000cH

; 951  : 	enumHOLD.MOTOR_BOAT = HOLD_MOTOR_BOAT;

  01d60	c7 05 30 00 00
	00 0d 00 00 00	 mov	 DWORD PTR ?enumHOLD@@3UStrEnumHOLD@@A+48, 13 ; 0000000dH

; 952  : 	enumHOLD.ROPE = HOLD_ROPE;

  01d6a	c7 05 34 00 00
	00 0e 00 00 00	 mov	 DWORD PTR ?enumHOLD@@3UStrEnumHOLD@@A+52, 14 ; 0000000eH

; 953  : 	enumHOLD.POLE = HOLD_POLE;

  01d74	c7 05 38 00 00
	00 0f 00 00 00	 mov	 DWORD PTR ?enumHOLD@@3UStrEnumHOLD@@A+56, 15 ; 0000000fH

; 954  : 	enumHOLD.ANY_TORCH = HOLD_ANY_TORCH;

  01d7e	c7 05 3c 00 00
	00 10 00 00 00	 mov	 DWORD PTR ?enumHOLD@@3UStrEnumHOLD@@A+60, 16 ; 00000010H

; 955  : 	enumHOLD.KAYAK = HOLD_KAYAK;

  01d88	c7 05 40 00 00
	00 11 00 00 00	 mov	 DWORD PTR ?enumHOLD@@3UStrEnumHOLD@@A+64, 17 ; 00000011H

; 956  : 
; 957  : //  --------------- LOAD CONSTANTS FOR ENUM STRUCTURE: enumLLF----------------------
; 958  : 	enumLLF.GROUND = LLF_GROUND;

  01d92	c7 05 00 00 00
	00 00 00 00 00	 mov	 DWORD PTR ?enumLLF@@3UStrEnumLLF@@A, 0

; 959  : 	enumLLF.UNDERWATER = LLF_UNDERWATER;

  01d9c	c7 05 04 00 00
	00 01 00 00 00	 mov	 DWORD PTR ?enumLLF@@3UStrEnumLLF@@A+4, 1

; 960  : 	enumLLF.FLOATING = LLF_FLOATING;

  01da6	c7 05 08 00 00
	00 02 00 00 00	 mov	 DWORD PTR ?enumLLF@@3UStrEnumLLF@@A+8, 2

; 961  : 	enumLLF.DOZY = LLF_DOZY;

  01db0	c7 05 0c 00 00
	00 03 00 00 00	 mov	 DWORD PTR ?enumLLF@@3UStrEnumLLF@@A+12, 3

; 962  : 	enumLLF.LOW_WATER = LLF_LOW_WATER;

  01dba	c7 05 10 00 00
	00 04 00 00 00	 mov	 DWORD PTR ?enumLLF@@3UStrEnumLLF@@A+16, 4

; 963  : 
; 964  : //  --------------- LOAD CONSTANTS FOR ENUM STRUCTURE: enumSCANF----------------------
; 965  : 	enumSCANF.HEAVY = SCANF_HEAVY;

  01dc4	c7 05 00 00 00
	00 00 01 00 00	 mov	 DWORD PTR ?enumSCANF@@3UStrEnumSCANF@@A, 256 ; 00000100H

; 966  : 	enumSCANF.TEMP_ONE_SHOT = SCANF_TEMP_ONE_SHOT;

  01dce	c7 05 04 00 00
	00 00 02 00 00	 mov	 DWORD PTR ?enumSCANF@@3UStrEnumSCANF@@A+4, 512 ; 00000200H

; 967  : 	enumSCANF.BUTTON_ONE_SHOT = SCANF_BUTTON_ONE_SHOT;

  01dd8	c7 05 08 00 00
	00 00 04 00 00	 mov	 DWORD PTR ?enumSCANF@@3UStrEnumSCANF@@A+8, 1024 ; 00000400H

; 968  : 	enumSCANF.YET_TO_PERFORM = SCANF_YET_TO_PERFORM;

  01de2	c7 05 0c 00 00
	00 00 08 00 00	 mov	 DWORD PTR ?enumSCANF@@3UStrEnumSCANF@@A+12, 2048 ; 00000800H

; 969  : 	enumSCANF.SCRIPT_TRIGGER = SCANF_SCRIPT_TRIGGER;

  01dec	c7 05 10 00 00
	00 00 10 00 00	 mov	 DWORD PTR ?enumSCANF@@3UStrEnumSCANF@@A+16, 4096 ; 00001000H

; 970  : 	enumSCANF.DIRECT_CALL = SCANF_DIRECT_CALL;

  01df6	c7 05 14 00 00
	00 00 20 00 00	 mov	 DWORD PTR ?enumSCANF@@3UStrEnumSCANF@@A+20, 8192 ; 00002000H

; 971  : 	enumSCANF.FLOOR_DATA = SCANF_FLOOR_DATA;

  01e00	c7 05 18 00 00
	00 00 40 00 00	 mov	 DWORD PTR ?enumSCANF@@3UStrEnumSCANF@@A+24, 16384 ; 00004000H

; 972  : 	enumSCANF.ANIM_COMMAND = SCANF_ANIM_COMMAND;

  01e0a	c7 05 1c 00 00
	00 00 80 00 00	 mov	 DWORD PTR ?enumSCANF@@3UStrEnumSCANF@@A+28, 32768 ; 00008000H

; 973  : 
; 974  : //  --------------- LOAD CONSTANTS FOR ENUM STRUCTURE: enumMESH----------------------
; 975  : 	enumMESH.BUTT = MESH_BUTT;

  01e14	c7 05 00 00 00
	00 00 00 00 00	 mov	 DWORD PTR ?enumMESH@@3UStrEnumMESH@@A, 0

; 976  : 	enumMESH.RIGHT_THIGH = MESH_RIGHT_THIGH;

  01e1e	c7 05 04 00 00
	00 01 00 00 00	 mov	 DWORD PTR ?enumMESH@@3UStrEnumMESH@@A+4, 1

; 977  : 	enumMESH.RIGHT_CALF = MESH_RIGHT_CALF;

  01e28	c7 05 08 00 00
	00 02 00 00 00	 mov	 DWORD PTR ?enumMESH@@3UStrEnumMESH@@A+8, 2

; 978  : 	enumMESH.RIGHT_FOOT = MESH_RIGHT_FOOT;

  01e32	c7 05 0c 00 00
	00 03 00 00 00	 mov	 DWORD PTR ?enumMESH@@3UStrEnumMESH@@A+12, 3

; 979  : 	enumMESH.LEFT_THIGH = MESH_LEFT_THIGH;

  01e3c	c7 05 10 00 00
	00 04 00 00 00	 mov	 DWORD PTR ?enumMESH@@3UStrEnumMESH@@A+16, 4

; 980  : 	enumMESH.LEFT_CALF = MESH_LEFT_CALF;

  01e46	c7 05 14 00 00
	00 05 00 00 00	 mov	 DWORD PTR ?enumMESH@@3UStrEnumMESH@@A+20, 5

; 981  : 	enumMESH.LEFT_FOOT = MESH_LEFT_FOOT;

  01e50	c7 05 18 00 00
	00 06 00 00 00	 mov	 DWORD PTR ?enumMESH@@3UStrEnumMESH@@A+24, 6

; 982  : 	enumMESH.CHEST = MESH_CHEST;

  01e5a	c7 05 1c 00 00
	00 07 00 00 00	 mov	 DWORD PTR ?enumMESH@@3UStrEnumMESH@@A+28, 7

; 983  : 	enumMESH.RIGHT_ARM = MESH_RIGHT_ARM;

  01e64	c7 05 20 00 00
	00 08 00 00 00	 mov	 DWORD PTR ?enumMESH@@3UStrEnumMESH@@A+32, 8

; 984  : 	enumMESH.RIGHT_FOREARM = MESH_RIGHT_FOREARM;

  01e6e	c7 05 24 00 00
	00 09 00 00 00	 mov	 DWORD PTR ?enumMESH@@3UStrEnumMESH@@A+36, 9

; 985  : 	enumMESH.RIGHT_HAND = MESH_RIGHT_HAND;

  01e78	c7 05 28 00 00
	00 0a 00 00 00	 mov	 DWORD PTR ?enumMESH@@3UStrEnumMESH@@A+40, 10 ; 0000000aH

; 986  : 	enumMESH.LEFT_ARM = MESH_LEFT_ARM;

  01e82	c7 05 2c 00 00
	00 0b 00 00 00	 mov	 DWORD PTR ?enumMESH@@3UStrEnumMESH@@A+44, 11 ; 0000000bH

; 987  : 	enumMESH.LEFT_FOREARM = MESH_LEFT_FOREARM;

  01e8c	c7 05 30 00 00
	00 0c 00 00 00	 mov	 DWORD PTR ?enumMESH@@3UStrEnumMESH@@A+48, 12 ; 0000000cH

; 988  : 	enumMESH.LEFT_HAND = MESH_LEFT_HAND;

  01e96	c7 05 34 00 00
	00 0d 00 00 00	 mov	 DWORD PTR ?enumMESH@@3UStrEnumMESH@@A+52, 13 ; 0000000dH

; 989  : 	enumMESH.HEAD = MESH_HEAD;

  01ea0	c7 05 38 00 00
	00 0e 00 00 00	 mov	 DWORD PTR ?enumMESH@@3UStrEnumMESH@@A+56, 14 ; 0000000eH

; 990  : 
; 991  : //  --------------- LOAD CONSTANTS FOR ENUM STRUCTURE: enumTRET----------------------
; 992  : 	enumTRET.PERFORM_ALWAYS = TRET_PERFORM_ALWAYS;

  01eaa	c7 05 00 00 00
	00 00 00 00 00	 mov	 DWORD PTR ?enumTRET@@3UStrEnumTRET@@A, 0

; 993  : 	enumTRET.PERFORM_ONCE_AND_GO = TRET_PERFORM_ONCE_AND_GO;

  01eb4	c7 05 04 00 00
	00 01 00 00 00	 mov	 DWORD PTR ?enumTRET@@3UStrEnumTRET@@A+4, 1

; 994  : 	enumTRET.PERFORM_NEVER_MORE = TRET_PERFORM_NEVER_MORE;

  01ebe	c7 05 08 00 00
	00 02 00 00 00	 mov	 DWORD PTR ?enumTRET@@3UStrEnumTRET@@A+8, 2

; 995  : 	enumTRET.EXECUTE_ORIGINAL = TRET_EXECUTE_ORIGINAL;

  01ec8	c7 05 0c 00 00
	00 03 00 00 00	 mov	 DWORD PTR ?enumTRET@@3UStrEnumTRET@@A+12, 3

; 996  : 
; 997  : //  --------------- LOAD CONSTANTS FOR ENUM STRUCTURE: enumCTRET----------------------
; 998  : 	enumCTRET.IS_TRUE = CTRET_IS_TRUE;

  01ed2	c7 05 00 00 00
	00 01 00 00 00	 mov	 DWORD PTR ?enumCTRET@@3UStrEnumCTRET@@A, 1

; 999  : 	enumCTRET.EXTRA_PARAM = CTRET_EXTRA_PARAM;

  01edc	c7 05 04 00 00
	00 02 00 00 00	 mov	 DWORD PTR ?enumCTRET@@3UStrEnumCTRET@@A+4, 2

; 1000 : 	enumCTRET.ON_MOVEABLE = CTRET_ON_MOVEABLE;

  01ee6	c7 05 08 00 00
	00 04 00 00 00	 mov	 DWORD PTR ?enumCTRET@@3UStrEnumCTRET@@A+8, 4

; 1001 : 	enumCTRET.PERFORM_ALWAYS = CTRET_PERFORM_ALWAYS;

  01ef0	c7 05 0c 00 00
	00 08 00 00 00	 mov	 DWORD PTR ?enumCTRET@@3UStrEnumCTRET@@A+12, 8

; 1002 : 	enumCTRET.ONLY_ONCE_ON_TRUE = CTRET_ONLY_ONCE_ON_TRUE;

  01efa	c7 05 10 00 00
	00 10 00 00 00	 mov	 DWORD PTR ?enumCTRET@@3UStrEnumCTRET@@A+16, 16 ; 00000010H

; 1003 : 	enumCTRET.NEVER_MORE_ON_TRUE = CTRET_NEVER_MORE_ON_TRUE;

  01f04	c7 05 14 00 00
	00 20 00 00 00	 mov	 DWORD PTR ?enumCTRET@@3UStrEnumCTRET@@A+20, 32 ; 00000020H

; 1004 : 	enumCTRET.PERFORM_ONCE_AND_GO = CTRET_PERFORM_ONCE_AND_GO;

  01f0e	c7 05 18 00 00
	00 40 00 00 00	 mov	 DWORD PTR ?enumCTRET@@3UStrEnumCTRET@@A+24, 64 ; 00000040H

; 1005 : 	enumCTRET.EXECUTE_ORIGINAL = CTRET_EXECUTE_ORIGINAL;

  01f18	c7 05 1c 00 00
	00 80 00 00 00	 mov	 DWORD PTR ?enumCTRET@@3UStrEnumCTRET@@A+28, 128 ; 00000080H

; 1006 : 
; 1007 : //  --------------- LOAD CONSTANTS FOR ENUM STRUCTURE: enumSRET----------------------
; 1008 : 	enumSRET.OK = SRET_OK;

  01f22	c7 05 00 00 00
	00 00 00 00 00	 mov	 DWORD PTR ?enumSRET@@3UStrEnumSRET@@A, 0

; 1009 : 	enumSRET.SKIP_ORIGINAL = SRET_SKIP_ORIGINAL;

  01f2c	c7 05 04 00 00
	00 01 00 00 00	 mov	 DWORD PTR ?enumSRET@@3UStrEnumSRET@@A+4, 1

; 1010 : 	enumSRET.SKIP_TRNG_CODE = SRET_SKIP_TRNG_CODE;

  01f36	c7 05 08 00 00
	00 02 00 00 00	 mov	 DWORD PTR ?enumSRET@@3UStrEnumSRET@@A+8, 2

; 1011 : 
; 1012 : //  --------------- LOAD CONSTANTS FOR ENUM STRUCTURE: enumJOINT----------------------
; 1013 : 	enumJOINT.LEFT_THIGH = JOINT_LEFT_THIGH;

  01f40	c7 05 00 00 00
	00 01 00 00 00	 mov	 DWORD PTR ?enumJOINT@@3UStrEnumJOINT@@A, 1

; 1014 : 	enumJOINT.LEFT_KNEE = JOINT_LEFT_KNEE;

  01f4a	c7 05 04 00 00
	00 02 00 00 00	 mov	 DWORD PTR ?enumJOINT@@3UStrEnumJOINT@@A+4, 2

; 1015 : 	enumJOINT.LEFT_ANCKLE = JOINT_LEFT_ANCKLE;

  01f54	c7 05 08 00 00
	00 03 00 00 00	 mov	 DWORD PTR ?enumJOINT@@3UStrEnumJOINT@@A+8, 3

; 1016 : 	enumJOINT.RIGHT_THIGH = JOINT_RIGHT_THIGH;

  01f5e	c7 05 0c 00 00
	00 04 00 00 00	 mov	 DWORD PTR ?enumJOINT@@3UStrEnumJOINT@@A+12, 4

; 1017 : 	enumJOINT.RIGHT_KNEE = JOINT_RIGHT_KNEE;

  01f68	c7 05 10 00 00
	00 05 00 00 00	 mov	 DWORD PTR ?enumJOINT@@3UStrEnumJOINT@@A+16, 5

; 1018 : 	enumJOINT.RIGHT_ANCKLE = JOINT_RIGHT_ANCKLE;

  01f72	c7 05 14 00 00
	00 06 00 00 00	 mov	 DWORD PTR ?enumJOINT@@3UStrEnumJOINT@@A+20, 6

; 1019 : 	enumJOINT.ABDOMEN = JOINT_ABDOMEN;

  01f7c	c7 05 18 00 00
	00 07 00 00 00	 mov	 DWORD PTR ?enumJOINT@@3UStrEnumJOINT@@A+24, 7

; 1020 : 	enumJOINT.NECK = JOINT_NECK;

  01f86	c7 05 1c 00 00
	00 08 00 00 00	 mov	 DWORD PTR ?enumJOINT@@3UStrEnumJOINT@@A+28, 8

; 1021 : 	enumJOINT.LEFT_SHOULDER = JOINT_LEFT_SHOULDER;

  01f90	c7 05 20 00 00
	00 09 00 00 00	 mov	 DWORD PTR ?enumJOINT@@3UStrEnumJOINT@@A+32, 9

; 1022 : 	enumJOINT.LEFT_ELBOW = JOINT_LEFT_ELBOW;

  01f9a	c7 05 24 00 00
	00 0a 00 00 00	 mov	 DWORD PTR ?enumJOINT@@3UStrEnumJOINT@@A+36, 10 ; 0000000aH

; 1023 : 	enumJOINT.LEFT_WRIST = JOINT_LEFT_WRIST;

  01fa4	c7 05 28 00 00
	00 0b 00 00 00	 mov	 DWORD PTR ?enumJOINT@@3UStrEnumJOINT@@A+40, 11 ; 0000000bH

; 1024 : 	enumJOINT.RIGHT_SHOULDER = JOINT_RIGHT_SHOULDER;

  01fae	c7 05 2c 00 00
	00 0c 00 00 00	 mov	 DWORD PTR ?enumJOINT@@3UStrEnumJOINT@@A+44, 12 ; 0000000cH

; 1025 : 	enumJOINT.RIGHT_ELBOW = JOINT_RIGHT_ELBOW;

  01fb8	c7 05 30 00 00
	00 0d 00 00 00	 mov	 DWORD PTR ?enumJOINT@@3UStrEnumJOINT@@A+48, 13 ; 0000000dH

; 1026 : 	enumJOINT.RIGHT_WRIST = JOINT_RIGHT_WRIST;

  01fc2	c7 05 34 00 00
	00 0e 00 00 00	 mov	 DWORD PTR ?enumJOINT@@3UStrEnumJOINT@@A+52, 14 ; 0000000eH

; 1027 : 
; 1028 : //  --------------- LOAD CONSTANTS FOR ENUM STRUCTURE: enumSC----------------------
; 1029 : 	enumSC.NORMAL = SC_NORMAL;

  01fcc	c7 05 00 00 00
	00 00 00 00 00	 mov	 DWORD PTR ?enumSC@@3UStrEnumSC@@A, 0

; 1030 : 	enumSC.HALF_WIDTH = SC_HALF_WIDTH;

  01fd6	c7 05 04 00 00
	00 01 00 00 00	 mov	 DWORD PTR ?enumSC@@3UStrEnumSC@@A+4, 1

; 1031 : 	enumSC.HALF_HEIGHT = SC_HALF_HEIGHT;

  01fe0	c7 05 08 00 00
	00 02 00 00 00	 mov	 DWORD PTR ?enumSC@@3UStrEnumSC@@A+8, 2

; 1032 : 	enumSC.HALF_SIZE = SC_HALF_SIZE;

  01fea	c7 05 0c 00 00
	00 03 00 00 00	 mov	 DWORD PTR ?enumSC@@3UStrEnumSC@@A+12, 3

; 1033 : 	enumSC.DOUBLE_WIDTH = SC_DOUBLE_WIDTH;

  01ff4	c7 05 10 00 00
	00 04 00 00 00	 mov	 DWORD PTR ?enumSC@@3UStrEnumSC@@A+16, 4

; 1034 : 	enumSC.DOUBLE_HEIGHT = SC_DOUBLE_HEIGHT;

  01ffe	c7 05 14 00 00
	00 05 00 00 00	 mov	 DWORD PTR ?enumSC@@3UStrEnumSC@@A+20, 5

; 1035 : 	enumSC.DOUBLE_SIZE = SC_DOUBLE_SIZE;

  02008	c7 05 18 00 00
	00 06 00 00 00	 mov	 DWORD PTR ?enumSC@@3UStrEnumSC@@A+24, 6

; 1036 : 
; 1037 : //  --------------- LOAD CONSTANTS FOR ENUM STRUCTURE: enumSTRING----------------------
; 1038 : 	enumSTRING.NG = STRING_NG;

  02012	c7 05 00 00 00
	00 00 80 00 00	 mov	 DWORD PTR ?enumSTRING@@3UStrEnumSTRING@@A, 32768 ; 00008000H

; 1039 : 	enumSTRING.BOTTOM_CENTER = STRING_BOTTOM_CENTER;

  0201c	c7 05 04 00 00
	00 01 00 00 00	 mov	 DWORD PTR ?enumSTRING@@3UStrEnumSTRING@@A+4, 1

; 1040 : 	enumSTRING.TOP_CENTER = STRING_TOP_CENTER;

  02026	c7 05 08 00 00
	00 02 00 00 00	 mov	 DWORD PTR ?enumSTRING@@3UStrEnumSTRING@@A+8, 2

; 1041 : 	enumSTRING.CENTER_CENTER = STRING_CENTER_CENTER;

  02030	c7 05 0c 00 00
	00 03 00 00 00	 mov	 DWORD PTR ?enumSTRING@@3UStrEnumSTRING@@A+12, 3

; 1042 : 	enumSTRING.TOP_LEFT = STRING_TOP_LEFT;

  0203a	c7 05 10 00 00
	00 04 00 00 00	 mov	 DWORD PTR ?enumSTRING@@3UStrEnumSTRING@@A+16, 4

; 1043 : 	enumSTRING.TOP_RIGHT = STRING_TOP_RIGHT;

  02044	c7 05 14 00 00
	00 05 00 00 00	 mov	 DWORD PTR ?enumSTRING@@3UStrEnumSTRING@@A+20, 5

; 1044 : 	enumSTRING.BOTTOM_LEFT = STRING_BOTTOM_LEFT;

  0204e	c7 05 18 00 00
	00 06 00 00 00	 mov	 DWORD PTR ?enumSTRING@@3UStrEnumSTRING@@A+24, 6

; 1045 : 	enumSTRING.BOTTOM_RIGHT = STRING_BOTTOM_RIGHT;

  02058	c7 05 1c 00 00
	00 07 00 00 00	 mov	 DWORD PTR ?enumSTRING@@3UStrEnumSTRING@@A+28, 7

; 1046 : 	enumSTRING.DOWN_DAMAGE_BAR = STRING_DOWN_DAMAGE_BAR;

  02062	c7 05 20 00 00
	00 08 00 00 00	 mov	 DWORD PTR ?enumSTRING@@3UStrEnumSTRING@@A+32, 8

; 1047 : 	enumSTRING.DOWN_COLD_BAR = STRING_DOWN_COLD_BAR;

  0206c	c7 05 24 00 00
	00 09 00 00 00	 mov	 DWORD PTR ?enumSTRING@@3UStrEnumSTRING@@A+36, 9

; 1048 : 	enumSTRING.DOWN_LEFT_BARS = STRING_DOWN_LEFT_BARS;

  02076	c7 05 28 00 00
	00 0a 00 00 00	 mov	 DWORD PTR ?enumSTRING@@3UStrEnumSTRING@@A+40, 10 ; 0000000aH

; 1049 : 	enumSTRING.DOWN_RIGHT_BARS = STRING_DOWN_RIGHT_BARS;

  02080	c7 05 2c 00 00
	00 0b 00 00 00	 mov	 DWORD PTR ?enumSTRING@@3UStrEnumSTRING@@A+44, 11 ; 0000000bH

; 1050 : 
; 1051 : //  --------------- LOAD CONSTANTS FOR ENUM STRUCTURE: enumADD----------------------
; 1052 : 	enumADD.FLAME = ADD_FLAME;

  0208a	c7 05 00 00 00
	00 01 00 00 00	 mov	 DWORD PTR ?enumADD@@3UStrEnumADD@@A, 1

; 1053 : 	enumADD.SMOKE = ADD_SMOKE;

  02094	c7 05 04 00 00
	00 02 00 00 00	 mov	 DWORD PTR ?enumADD@@3UStrEnumADD@@A+4, 2

; 1054 : 	enumADD.BLOOD = ADD_BLOOD;

  0209e	c7 05 08 00 00
	00 03 00 00 00	 mov	 DWORD PTR ?enumADD@@3UStrEnumADD@@A+8, 3

; 1055 : 	enumADD.MIST = ADD_MIST;

  020a8	c7 05 0c 00 00
	00 04 00 00 00	 mov	 DWORD PTR ?enumADD@@3UStrEnumADD@@A+12, 4

; 1056 : 	enumADD.LIGHT_FLAT = ADD_LIGHT_FLAT;

  020b2	c7 05 10 00 00
	00 05 00 00 00	 mov	 DWORD PTR ?enumADD@@3UStrEnumADD@@A+16, 5

; 1057 : 	enumADD.LIGHT_BLINK = ADD_LIGHT_BLINK;

  020bc	c7 05 14 00 00
	00 06 00 00 00	 mov	 DWORD PTR ?enumADD@@3UStrEnumADD@@A+20, 6

; 1058 : 	enumADD.LIGHT_SPOT = ADD_LIGHT_SPOT;

  020c6	c7 05 18 00 00
	00 07 00 00 00	 mov	 DWORD PTR ?enumADD@@3UStrEnumADD@@A+24, 7

; 1059 : 	enumADD.LIGHT_GLOVE = ADD_LIGHT_GLOVE;

  020d0	c7 05 1c 00 00
	00 08 00 00 00	 mov	 DWORD PTR ?enumADD@@3UStrEnumADD@@A+28, 8

; 1060 : 
; 1061 : //  --------------- LOAD CONSTANTS FOR ENUM STRUCTURE: enumENV----------------------
; 1062 : 	enumENV.NO_BLOCK_IN_FRONT = ENV_NO_BLOCK_IN_FRONT;

  020da	c7 05 00 00 00
	00 01 00 00 00	 mov	 DWORD PTR ?enumENV@@3UStrEnumENV@@A, 1

; 1063 : 	enumENV.HANG_WITH_FEET = ENV_HANG_WITH_FEET;

  020e4	c7 05 04 00 00
	00 02 00 00 00	 mov	 DWORD PTR ?enumENV@@3UStrEnumENV@@A+4, 2

; 1064 : 	enumENV.HOLE_FLOOR_IN_FRONT = ENV_HOLE_FLOOR_IN_FRONT;

  020ee	c7 05 08 00 00
	00 03 00 00 00	 mov	 DWORD PTR ?enumENV@@3UStrEnumENV@@A+8, 3

; 1065 : 	enumENV.MONKEY_CEILING = ENV_MONKEY_CEILING;

  020f8	c7 05 0c 00 00
	00 04 00 00 00	 mov	 DWORD PTR ?enumENV@@3UStrEnumENV@@A+12, 4

; 1066 : 	enumENV.CLIMB_WALL_IN_FRONT = ENV_CLIMB_WALL_IN_FRONT;

  02102	c7 05 10 00 00
	00 05 00 00 00	 mov	 DWORD PTR ?enumENV@@3UStrEnumENV@@A+16, 5

; 1067 : 	enumENV.CLIMB_WALL_AT_RIGHT = ENV_CLIMB_WALL_AT_RIGHT;

  0210c	c7 05 14 00 00
	00 06 00 00 00	 mov	 DWORD PTR ?enumENV@@3UStrEnumENV@@A+20, 6

; 1068 : 	enumENV.CLIMB_WALL_AT_LEFT = ENV_CLIMB_WALL_AT_LEFT;

  02116	c7 05 18 00 00
	00 07 00 00 00	 mov	 DWORD PTR ?enumENV@@3UStrEnumENV@@A+24, 7

; 1069 : 	enumENV.HOLE_IN_FRONT_CEILING_CLIMB = ENV_HOLE_IN_FRONT_CEILING_CLIMB;

  02120	c7 05 1c 00 00
	00 08 00 00 00	 mov	 DWORD PTR ?enumENV@@3UStrEnumENV@@A+28, 8

; 1070 : 	enumENV.HOLE_BACK_CEILING_CLIMB = ENV_HOLE_BACK_CEILING_CLIMB;

  0212a	c7 05 20 00 00
	00 09 00 00 00	 mov	 DWORD PTR ?enumENV@@3UStrEnumENV@@A+32, 9

; 1071 : 	enumENV.NO_BLOCK_AT_RIGHT = ENV_NO_BLOCK_AT_RIGHT;

  02134	c7 05 24 00 00
	00 0a 00 00 00	 mov	 DWORD PTR ?enumENV@@3UStrEnumENV@@A+36, 10 ; 0000000aH

; 1072 : 	enumENV.NO_BLOCK_AT_LEFT = ENV_NO_BLOCK_AT_LEFT;

  0213e	c7 05 28 00 00
	00 0b 00 00 00	 mov	 DWORD PTR ?enumENV@@3UStrEnumENV@@A+40, 11 ; 0000000bH

; 1073 : 	enumENV.HOLE_FLOOR_AT_RIGHT = ENV_HOLE_FLOOR_AT_RIGHT;

  02148	c7 05 2c 00 00
	00 0c 00 00 00	 mov	 DWORD PTR ?enumENV@@3UStrEnumENV@@A+44, 12 ; 0000000cH

; 1074 : 	enumENV.HOLE_FLOOR_AT_LEFT = ENV_HOLE_FLOOR_AT_LEFT;

  02152	c7 05 30 00 00
	00 0d 00 00 00	 mov	 DWORD PTR ?enumENV@@3UStrEnumENV@@A+48, 13 ; 0000000dH

; 1075 : 	enumENV.HOLE_FLOOR_BACK = ENV_HOLE_FLOOR_BACK;

  0215c	c7 05 34 00 00
	00 0e 00 00 00	 mov	 DWORD PTR ?enumENV@@3UStrEnumENV@@A+52, 14 ; 0000000eH

; 1076 : 	enumENV.NO_BLOCK_BACK = ENV_NO_BLOCK_BACK;

  02166	c7 05 38 00 00
	00 0f 00 00 00	 mov	 DWORD PTR ?enumENV@@3UStrEnumENV@@A+56, 15 ; 0000000fH

; 1077 : 	enumENV.CLIMB_WALL_BACK = ENV_CLIMB_WALL_BACK;

  02170	c7 05 3c 00 00
	00 10 00 00 00	 mov	 DWORD PTR ?enumENV@@3UStrEnumENV@@A+60, 16 ; 00000010H

; 1078 : 	enumENV.SUPPORT_IN_FRONT_WALL = ENV_SUPPORT_IN_FRONT_WALL;

  0217a	c7 05 40 00 00
	00 11 00 00 00	 mov	 DWORD PTR ?enumENV@@3UStrEnumENV@@A+64, 17 ; 00000011H

; 1079 : 	enumENV.SUPPORT_IN_RIGHT_WALL = ENV_SUPPORT_IN_RIGHT_WALL;

  02184	c7 05 44 00 00
	00 12 00 00 00	 mov	 DWORD PTR ?enumENV@@3UStrEnumENV@@A+68, 18 ; 00000012H

; 1080 : 	enumENV.SUPPORT_IN_LEFT_WALL = ENV_SUPPORT_IN_LEFT_WALL;

  0218e	c7 05 48 00 00
	00 13 00 00 00	 mov	 DWORD PTR ?enumENV@@3UStrEnumENV@@A+72, 19 ; 00000013H

; 1081 : 	enumENV.SUPPORT_IN_BACK_WALL = ENV_SUPPORT_IN_BACK_WALL;

  02198	c7 05 4c 00 00
	00 14 00 00 00	 mov	 DWORD PTR ?enumENV@@3UStrEnumENV@@A+76, 20 ; 00000014H

; 1082 : 	enumENV.ITEM_EXTRA_IN_FRONT = ENV_ITEM_EXTRA_IN_FRONT;

  021a2	c7 05 50 00 00
	00 15 00 00 00	 mov	 DWORD PTR ?enumENV@@3UStrEnumENV@@A+80, 21 ; 00000015H

; 1083 : 	enumENV.ITEM_EXTRA_OVER = ENV_ITEM_EXTRA_OVER;

  021ac	c7 05 54 00 00
	00 16 00 00 00	 mov	 DWORD PTR ?enumENV@@3UStrEnumENV@@A+84, 22 ; 00000016H

; 1084 : 	enumENV.ITEM_EXTRA_UNDER = ENV_ITEM_EXTRA_UNDER;

  021b6	c7 05 58 00 00
	00 17 00 00 00	 mov	 DWORD PTR ?enumENV@@3UStrEnumENV@@A+88, 23 ; 00000017H

; 1085 : 	enumENV.MULT_CONDITION = ENV_MULT_CONDITION;

  021c0	c7 05 5c 00 00
	00 18 00 00 00	 mov	 DWORD PTR ?enumENV@@3UStrEnumENV@@A+92, 24 ; 00000018H

; 1086 : 	enumENV.HANG_LEFT_IN_CORNER = ENV_HANG_LEFT_IN_CORNER;

  021ca	c7 05 60 00 00
	00 19 00 00 00	 mov	 DWORD PTR ?enumENV@@3UStrEnumENV@@A+96, 25 ; 00000019H

; 1087 : 	enumENV.HANG_LEFT_OUT_CORNER = ENV_HANG_LEFT_OUT_CORNER;

  021d4	c7 05 64 00 00
	00 1a 00 00 00	 mov	 DWORD PTR ?enumENV@@3UStrEnumENV@@A+100, 26 ; 0000001aH

; 1088 : 	enumENV.HANG_RIGHT_IN_CORNER = ENV_HANG_RIGHT_IN_CORNER;

  021de	c7 05 68 00 00
	00 1b 00 00 00	 mov	 DWORD PTR ?enumENV@@3UStrEnumENV@@A+104, 27 ; 0000001bH

; 1089 : 	enumENV.HANG_RIGHT_OUT_CORNER = ENV_HANG_RIGHT_OUT_CORNER;

  021e8	c7 05 6c 00 00
	00 1c 00 00 00	 mov	 DWORD PTR ?enumENV@@3UStrEnumENV@@A+108, 28 ; 0000001cH

; 1090 : 	enumENV.HANG_LEFT_SPACE = ENV_HANG_LEFT_SPACE;

  021f2	c7 05 70 00 00
	00 1d 00 00 00	 mov	 DWORD PTR ?enumENV@@3UStrEnumENV@@A+112, 29 ; 0000001dH

; 1091 : 	enumENV.HANG_RIGHT_SPACE = ENV_HANG_RIGHT_SPACE;

  021fc	c7 05 74 00 00
	00 1e 00 00 00	 mov	 DWORD PTR ?enumENV@@3UStrEnumENV@@A+116, 30 ; 0000001eH

; 1092 : 	enumENV.DISTANCE_CEILING = ENV_DISTANCE_CEILING;

  02206	c7 05 78 00 00
	00 1f 00 00 00	 mov	 DWORD PTR ?enumENV@@3UStrEnumENV@@A+120, 31 ; 0000001fH

; 1093 : 	enumENV.CLIMB_LEFT_IN_CORNER = ENV_CLIMB_LEFT_IN_CORNER;

  02210	c7 05 7c 00 00
	00 20 00 00 00	 mov	 DWORD PTR ?enumENV@@3UStrEnumENV@@A+124, 32 ; 00000020H

; 1094 : 	enumENV.CLIMB_LEFT_OUT_CORNER = ENV_CLIMB_LEFT_OUT_CORNER;

  0221a	c7 05 80 00 00
	00 21 00 00 00	 mov	 DWORD PTR ?enumENV@@3UStrEnumENV@@A+128, 33 ; 00000021H

; 1095 : 	enumENV.CLIMB_RIGHT_IN_CORNER = ENV_CLIMB_RIGHT_IN_CORNER;

  02224	c7 05 84 00 00
	00 22 00 00 00	 mov	 DWORD PTR ?enumENV@@3UStrEnumENV@@A+132, 34 ; 00000022H

; 1096 : 	enumENV.CLIMB_RIGHT_OUT_CORNER = ENV_CLIMB_RIGHT_OUT_CORNER;

  0222e	c7 05 88 00 00
	00 23 00 00 00	 mov	 DWORD PTR ?enumENV@@3UStrEnumENV@@A+136, 35 ; 00000023H

; 1097 : 	enumENV.CLIMB_LEFT_SPACE = ENV_CLIMB_LEFT_SPACE;

  02238	c7 05 8c 00 00
	00 24 00 00 00	 mov	 DWORD PTR ?enumENV@@3UStrEnumENV@@A+140, 36 ; 00000024H

; 1098 : 	enumENV.CLIMB_RIGHT_SPACE = ENV_CLIMB_RIGHT_SPACE;

  02242	c7 05 90 00 00
	00 25 00 00 00	 mov	 DWORD PTR ?enumENV@@3UStrEnumENV@@A+144, 37 ; 00000025H

; 1099 : 	enumENV.MULT_OR_CONDITION = ENV_MULT_OR_CONDITION;

  0224c	c7 05 94 00 00
	00 26 00 00 00	 mov	 DWORD PTR ?enumENV@@3UStrEnumENV@@A+148, 38 ; 00000026H

; 1100 : 	enumENV.DISTANCE_FLOOR = ENV_DISTANCE_FLOOR;

  02256	c7 05 98 00 00
	00 27 00 00 00	 mov	 DWORD PTR ?enumENV@@3UStrEnumENV@@A+152, 39 ; 00000027H

; 1101 : 	enumENV.FRAME_NUMBER = ENV_FRAME_NUMBER;

  02260	c7 05 9c 00 00
	00 28 00 00 00	 mov	 DWORD PTR ?enumENV@@3UStrEnumENV@@A+156, 40 ; 00000028H

; 1102 : 	enumENV.VERTICAL_ORIENT = ENV_VERTICAL_ORIENT;

  0226a	c7 05 a0 00 00
	00 29 00 00 00	 mov	 DWORD PTR ?enumENV@@3UStrEnumENV@@A+160, 41 ; 00000029H

; 1103 : 	enumENV.ON_VEHICLE = ENV_ON_VEHICLE;

  02274	c7 05 a4 00 00
	00 2a 00 00 00	 mov	 DWORD PTR ?enumENV@@3UStrEnumENV@@A+164, 42 ; 0000002aH

; 1104 : 	enumENV.FREE_HANDS = ENV_FREE_HANDS;

  0227e	c7 05 a8 00 00
	00 2b 00 00 00	 mov	 DWORD PTR ?enumENV@@3UStrEnumENV@@A+168, 43 ; 0000002bH

; 1105 : 	enumENV.UNDERWATER = ENV_UNDERWATER;

  02288	c7 05 ac 00 00
	00 2c 00 00 00	 mov	 DWORD PTR ?enumENV@@3UStrEnumENV@@A+172, 44 ; 0000002cH

; 1106 : 	enumENV.FLOATING = ENV_FLOATING;

  02292	c7 05 b0 00 00
	00 2d 00 00 00	 mov	 DWORD PTR ?enumENV@@3UStrEnumENV@@A+176, 45 ; 0000002dH

; 1107 : 	enumENV.ONLAND = ENV_ONLAND;

  0229c	c7 05 b4 00 00
	00 2e 00 00 00	 mov	 DWORD PTR ?enumENV@@3UStrEnumENV@@A+180, 46 ; 0000002eH

; 1108 : 	enumENV.IS_STILL = ENV_IS_STILL;

  022a6	c7 05 b8 00 00
	00 2f 00 00 00	 mov	 DWORD PTR ?enumENV@@3UStrEnumENV@@A+184, 47 ; 0000002fH

; 1109 : 	enumENV.ANIM_COMPLETE = ENV_ANIM_COMPLETE;

  022b0	c7 05 bc 00 00
	00 30 00 00 00	 mov	 DWORD PTR ?enumENV@@3UStrEnumENV@@A+188, 48 ; 00000030H

; 1110 : 	enumENV.FLYING_UP = ENV_FLYING_UP;

  022ba	c7 05 c0 00 00
	00 31 00 00 00	 mov	 DWORD PTR ?enumENV@@3UStrEnumENV@@A+192, 49 ; 00000031H

; 1111 : 	enumENV.FLYING_DOWN = ENV_FLYING_DOWN;

  022c4	c7 05 c4 00 00
	00 32 00 00 00	 mov	 DWORD PTR ?enumENV@@3UStrEnumENV@@A+196, 50 ; 00000032H

; 1112 : 	enumENV.WALL_HOLE_IN_FRONT = ENV_WALL_HOLE_IN_FRONT;

  022ce	c7 05 c8 00 00
	00 33 00 00 00	 mov	 DWORD PTR ?enumENV@@3UStrEnumENV@@A+200, 51 ; 00000033H

; 1113 : 	enumENV.IN_LEFT_SIDE_SECTOR = ENV_IN_LEFT_SIDE_SECTOR;

  022d8	c7 05 cc 00 00
	00 34 00 00 00	 mov	 DWORD PTR ?enumENV@@3UStrEnumENV@@A+204, 52 ; 00000034H

; 1114 : 	enumENV.IN_RIGHT_SIDE_SECTOR = ENV_IN_RIGHT_SIDE_SECTOR;

  022e2	c7 05 d0 00 00
	00 35 00 00 00	 mov	 DWORD PTR ?enumENV@@3UStrEnumENV@@A+208, 53 ; 00000035H

; 1115 : 	enumENV.ITEM_EXTRA_AT_LEFT = ENV_ITEM_EXTRA_AT_LEFT;

  022ec	c7 05 d4 00 00
	00 36 00 00 00	 mov	 DWORD PTR ?enumENV@@3UStrEnumENV@@A+212, 54 ; 00000036H

; 1116 : 	enumENV.ITEM_EXTRA_AT_RIGHT = ENV_ITEM_EXTRA_AT_RIGHT;

  022f6	c7 05 d8 00 00
	00 37 00 00 00	 mov	 DWORD PTR ?enumENV@@3UStrEnumENV@@A+216, 55 ; 00000037H

; 1117 : 	enumENV.ITEM_TEST_POSITION = ENV_ITEM_TEST_POSITION;

  02300	c7 05 dc 00 00
	00 38 00 00 00	 mov	 DWORD PTR ?enumENV@@3UStrEnumENV@@A+220, 56 ; 00000038H

; 1118 : 	enumENV.HOLD_EXTRA_ITEM_IN_HANDS = ENV_HOLD_EXTRA_ITEM_IN_HANDS;

  0230a	c7 05 e0 00 00
	00 39 00 00 00	 mov	 DWORD PTR ?enumENV@@3UStrEnumENV@@A+224, 57 ; 00000039H

; 1119 : 	enumENV.CONDITION_TRIGGER_GROUP = ENV_CONDITION_TRIGGER_GROUP;

  02314	c7 05 e4 00 00
	00 3a 00 00 00	 mov	 DWORD PTR ?enumENV@@3UStrEnumENV@@A+228, 58 ; 0000003aH

; 1120 : 	enumENV.ROOM_IS = ENV_ROOM_IS;

  0231e	c7 05 e8 00 00
	00 3b 00 00 00	 mov	 DWORD PTR ?enumENV@@3UStrEnumENV@@A+232, 59 ; 0000003bH

; 1121 : 	enumENV.PLAYER_IS_SLEEPING = ENV_PLAYER_IS_SLEEPING;

  02328	c7 05 ec 00 00
	00 3c 00 00 00	 mov	 DWORD PTR ?enumENV@@3UStrEnumENV@@A+236, 60 ; 0000003cH

; 1122 : 	enumENV.PLAYER_WOKE_UP = ENV_PLAYER_WOKE_UP;

  02332	c7 05 f0 00 00
	00 3d 00 00 00	 mov	 DWORD PTR ?enumENV@@3UStrEnumENV@@A+240, 61 ; 0000003dH

; 1123 : 	enumENV.DISTANCE_NORTH_WALL = ENV_DISTANCE_NORTH_WALL;

  0233c	c7 05 f4 00 00
	00 3e 00 00 00	 mov	 DWORD PTR ?enumENV@@3UStrEnumENV@@A+244, 62 ; 0000003eH

; 1124 : 	enumENV.DISTANCE_SOUTH_WALL = ENV_DISTANCE_SOUTH_WALL;

  02346	c7 05 f8 00 00
	00 3f 00 00 00	 mov	 DWORD PTR ?enumENV@@3UStrEnumENV@@A+248, 63 ; 0000003fH

; 1125 : 	enumENV.DISTANCE_EAST_WALL = ENV_DISTANCE_EAST_WALL;

  02350	c7 05 fc 00 00
	00 40 00 00 00	 mov	 DWORD PTR ?enumENV@@3UStrEnumENV@@A+252, 64 ; 00000040H

; 1126 : 	enumENV.DISTANCE_WEST_WALL = ENV_DISTANCE_WEST_WALL;

  0235a	c7 05 00 01 00
	00 41 00 00 00	 mov	 DWORD PTR ?enumENV@@3UStrEnumENV@@A+256, 65 ; 00000041H

; 1127 : 	enumENV.LARA_IN_MICRO_STRIP = ENV_LARA_IN_MICRO_STRIP;

  02364	c7 05 04 01 00
	00 42 00 00 00	 mov	 DWORD PTR ?enumENV@@3UStrEnumENV@@A+260, 66 ; 00000042H

; 1128 : 	enumENV.NO_BOX_IN_FRONT = ENV_NO_BOX_IN_FRONT;

  0236e	c7 05 08 01 00
	00 43 00 00 00	 mov	 DWORD PTR ?enumENV@@3UStrEnumENV@@A+264, 67 ; 00000043H

; 1129 : 	enumENV.NO_BOX_AT_LEFT = ENV_NO_BOX_AT_LEFT;

  02378	c7 05 0c 01 00
	00 44 00 00 00	 mov	 DWORD PTR ?enumENV@@3UStrEnumENV@@A+268, 68 ; 00000044H

; 1130 : 	enumENV.NO_BOX_AT_RIGHT = ENV_NO_BOX_AT_RIGHT;

  02382	c7 05 10 01 00
	00 45 00 00 00	 mov	 DWORD PTR ?enumENV@@3UStrEnumENV@@A+272, 69 ; 00000045H

; 1131 : 	enumENV.NO_BOX_BACK = ENV_NO_BOX_BACK;

  0238c	c7 05 14 01 00
	00 46 00 00 00	 mov	 DWORD PTR ?enumENV@@3UStrEnumENV@@A+276, 70 ; 00000046H

; 1132 : 	enumENV.ENEMY_SEE_LARA = ENV_ENEMY_SEE_LARA;

  02396	c7 05 18 01 00
	00 47 00 00 00	 mov	 DWORD PTR ?enumENV@@3UStrEnumENV@@A+280, 71 ; 00000047H

; 1133 : 	enumENV.FRAME_RANGE = ENV_FRAME_RANGE;

  023a0	c7 05 1c 01 00
	00 48 00 00 00	 mov	 DWORD PTR ?enumENV@@3UStrEnumENV@@A+284, 72 ; 00000048H

; 1134 : 	enumENV.NON_TRUE = ENV_NON_TRUE;

  023aa	c7 05 20 01 00
	00 80 00 00 00	 mov	 DWORD PTR ?enumENV@@3UStrEnumENV@@A+288, 128 ; 00000080H

; 1135 : 	enumENV.POS_LEFT_CORNER = ENV_POS_LEFT_CORNER;

  023b4	c7 05 24 01 00
	00 00 01 00 00	 mov	 DWORD PTR ?enumENV@@3UStrEnumENV@@A+292, 256 ; 00000100H

; 1136 : 	enumENV.POS_RIGHT_CORNER = ENV_POS_RIGHT_CORNER;

  023be	c7 05 28 01 00
	00 00 02 00 00	 mov	 DWORD PTR ?enumENV@@3UStrEnumENV@@A+296, 512 ; 00000200H

; 1137 : 	enumENV.POS_CENTRAL = ENV_POS_CENTRAL;

  023c8	c7 05 2c 01 00
	00 00 04 00 00	 mov	 DWORD PTR ?enumENV@@3UStrEnumENV@@A+300, 1024 ; 00000400H

; 1138 : 	enumENV.POS_HORTOGONAL = ENV_POS_HORTOGONAL;

  023d2	c7 05 30 01 00
	00 00 08 00 00	 mov	 DWORD PTR ?enumENV@@3UStrEnumENV@@A+304, 2048 ; 00000800H

; 1139 : 	enumENV.POS_IN_THE_MIDDLE = ENV_POS_IN_THE_MIDDLE;

  023dc	c7 05 34 01 00
	00 00 10 00 00	 mov	 DWORD PTR ?enumENV@@3UStrEnumENV@@A+308, 4096 ; 00001000H

; 1140 : 	enumENV.POS_STRIP_3 = ENV_POS_STRIP_3;

  023e6	c7 05 38 01 00
	00 00 20 00 00	 mov	 DWORD PTR ?enumENV@@3UStrEnumENV@@A+312, 8192 ; 00002000H

; 1141 : 	enumENV.POS_STRIP_2 = ENV_POS_STRIP_2;

  023f0	c7 05 3c 01 00
	00 00 40 00 00	 mov	 DWORD PTR ?enumENV@@3UStrEnumENV@@A+316, 16384 ; 00004000H

; 1142 : 	enumENV.POS_STRIP_1 = ENV_POS_STRIP_1;

  023fa	c7 05 40 01 00
	00 00 80 00 00	 mov	 DWORD PTR ?enumENV@@3UStrEnumENV@@A+320, 32768 ; 00008000H

; 1143 : 	enumENV.MASK_CONDITION = ENV_MASK_CONDITION;

  02404	c7 05 44 01 00
	00 7f 00 00 00	 mov	 DWORD PTR ?enumENV@@3UStrEnumENV@@A+324, 127 ; 0000007fH

; 1144 : 	enumENV.MASK_FLAGS = ENV_MASK_FLAGS;

  0240e	c7 05 48 01 00
	00 80 ff 00 00	 mov	 DWORD PTR ?enumENV@@3UStrEnumENV@@A+328, 65408 ; 0000ff80H

; 1145 : 
; 1146 : //  --------------- LOAD CONSTANTS FOR ENUM STRUCTURE: enumCBT----------------------
; 1147 : 	enumCBT.FIRST = CBT_FIRST;

  02418	c7 05 00 00 00
	00 01 00 00 00	 mov	 DWORD PTR ?enumCBT@@3UStrEnumCBT@@A, 1

; 1148 : 	enumCBT.AFTER = CBT_AFTER;

  02422	c7 05 04 00 00
	00 02 00 00 00	 mov	 DWORD PTR ?enumCBT@@3UStrEnumCBT@@A+4, 2

; 1149 : 	enumCBT.REPLACE = CBT_REPLACE;

  0242c	c7 05 08 00 00
	00 04 00 00 00	 mov	 DWORD PTR ?enumCBT@@3UStrEnumCBT@@A+8, 4

; 1150 : 	enumCBT.ASM = CBT_ASM;

  02436	c7 05 0c 00 00
	00 08 00 00 00	 mov	 DWORD PTR ?enumCBT@@3UStrEnumCBT@@A+12, 8

; 1151 : 	enumCBT.PRESENT = CBT_PRESENT;

  02440	c7 05 10 00 00
	00 10 00 00 00	 mov	 DWORD PTR ?enumCBT@@3UStrEnumCBT@@A+16, 16 ; 00000010H

; 1152 : 	enumCBT.LOOPED = CBT_LOOPED;

  0244a	c7 05 14 00 00
	00 20 00 00 00	 mov	 DWORD PTR ?enumCBT@@3UStrEnumCBT@@A+20, 32 ; 00000020H

; 1153 : 	enumCBT.ANY = CBT_ANY;

  02454	c7 05 18 00 00
	00 ff ff 00 00	 mov	 DWORD PTR ?enumCBT@@3UStrEnumCBT@@A+24, 65535 ; 0000ffffH

; 1154 : 
; 1155 : //  --------------- LOAD CONSTANTS FOR ENUM STRUCTURE: enumFAN----------------------
; 1156 : 	enumFAN.MASK_FPS_UV = FAN_MASK_FPS_UV;

  0245e	c7 05 00 00 00
	00 00 1f 00 00	 mov	 DWORD PTR ?enumFAN@@3UStrEnumFAN@@A, 7936 ; 00001f00H

; 1157 : 	enumFAN.MASK_UVROTATE = FAN_MASK_UVROTATE;

  02468	c7 05 04 00 00
	00 ff 00 00 00	 mov	 DWORD PTR ?enumFAN@@3UStrEnumFAN@@A+4, 255 ; 000000ffH

; 1158 : 	enumFAN.MASK_DELAY = FAN_MASK_DELAY;

  02472	c7 05 08 00 00
	00 ff 1f 00 00	 mov	 DWORD PTR ?enumFAN@@3UStrEnumFAN@@A+8, 8191 ; 00001fffH

; 1159 : 	enumFAN.MASK_ANIM = FAN_MASK_ANIM;

  0247c	c7 05 0c 00 00
	00 00 e0 00 00	 mov	 DWORD PTR ?enumFAN@@3UStrEnumFAN@@A+12, 57344 ; 0000e000H

; 1160 : 	enumFAN.FRAMES = FAN_FRAMES;

  02486	c7 05 10 00 00
	00 00 00 00 00	 mov	 DWORD PTR ?enumFAN@@3UStrEnumFAN@@A+16, 0

; 1161 : 	enumFAN.P_FRAMES = FAN_P_FRAMES;

  02490	c7 05 14 00 00
	00 00 40 00 00	 mov	 DWORD PTR ?enumFAN@@3UStrEnumFAN@@A+20, 16384 ; 00004000H

; 1162 : 	enumFAN.FULL_ROTATE = FAN_FULL_ROTATE;

  0249a	c7 05 18 00 00
	00 00 80 00 00	 mov	 DWORD PTR ?enumFAN@@3UStrEnumFAN@@A+24, 32768 ; 00008000H

; 1163 : 	enumFAN.RIVER_ROTATE = FAN_RIVER_ROTATE;

  024a4	c7 05 1c 00 00
	00 00 a0 00 00	 mov	 DWORD PTR ?enumFAN@@3UStrEnumFAN@@A+28, 40960 ; 0000a000H

; 1164 : 	enumFAN.HALF_ROTATE = FAN_HALF_ROTATE;

  024ae	c7 05 20 00 00
	00 00 c0 00 00	 mov	 DWORD PTR ?enumFAN@@3UStrEnumFAN@@A+32, 49152 ; 0000c000H

; 1165 : 	enumFAN.ANY_ROTATE = FAN_ANY_ROTATE;

  024b8	c7 05 24 00 00
	00 00 80 00 00	 mov	 DWORD PTR ?enumFAN@@3UStrEnumFAN@@A+36, 32768 ; 00008000H

; 1166 : 	enumFAN.SET_FREE_HANDS = FAN_SET_FREE_HANDS;

  024c2	c7 05 28 00 00
	00 01 00 00 00	 mov	 DWORD PTR ?enumFAN@@3UStrEnumFAN@@A+40, 1

; 1167 : 	enumFAN.START_FROM_EXTRA_FRAME = FAN_START_FROM_EXTRA_FRAME;

  024cc	c7 05 2c 00 00
	00 02 00 00 00	 mov	 DWORD PTR ?enumFAN@@3UStrEnumFAN@@A+44, 2

; 1168 : 	enumFAN.SET_NEUTRAL_STATE_ID = FAN_SET_NEUTRAL_STATE_ID;

  024d6	c7 05 30 00 00
	00 04 00 00 00	 mov	 DWORD PTR ?enumFAN@@3UStrEnumFAN@@A+48, 4

; 1169 : 	enumFAN.KEYS_AS_SCANCODE = FAN_KEYS_AS_SCANCODE;

  024e0	c7 05 34 00 00
	00 08 00 00 00	 mov	 DWORD PTR ?enumFAN@@3UStrEnumFAN@@A+52, 8

; 1170 : 	enumFAN.DISABLE_PUSH_AWAY = FAN_DISABLE_PUSH_AWAY;

  024ea	c7 05 38 00 00
	00 10 00 00 00	 mov	 DWORD PTR ?enumFAN@@3UStrEnumFAN@@A+56, 16 ; 00000010H

; 1171 : 	enumFAN.KEEP_NEXT_STATEID = FAN_KEEP_NEXT_STATEID;

  024f4	c7 05 3c 00 00
	00 20 00 00 00	 mov	 DWORD PTR ?enumFAN@@3UStrEnumFAN@@A+60, 32 ; 00000020H

; 1172 : 	enumFAN.ENABLE_GRAVITY = FAN_ENABLE_GRAVITY;

  024fe	c7 05 40 00 00
	00 40 00 00 00	 mov	 DWORD PTR ?enumFAN@@3UStrEnumFAN@@A+64, 64 ; 00000040H

; 1173 : 	enumFAN.DISABLE_GRAVITY = FAN_DISABLE_GRAVITY;

  02508	c7 05 44 00 00
	00 80 00 00 00	 mov	 DWORD PTR ?enumFAN@@3UStrEnumFAN@@A+68, 128 ; 00000080H

; 1174 : 	enumFAN.PERFORM_TRIGGER_GROUP = FAN_PERFORM_TRIGGER_GROUP;

  02512	c7 05 48 00 00
	00 00 01 00 00	 mov	 DWORD PTR ?enumFAN@@3UStrEnumFAN@@A+72, 256 ; 00000100H

; 1175 : 	enumFAN.SET_FREE_HANDS_TEMP = FAN_SET_FREE_HANDS_TEMP;

  0251c	c7 05 4c 00 00
	00 00 02 00 00	 mov	 DWORD PTR ?enumFAN@@3UStrEnumFAN@@A+76, 512 ; 00000200H

; 1176 : 	enumFAN.SET_BUSY_HANDS = FAN_SET_BUSY_HANDS;

  02526	c7 05 50 00 00
	00 00 04 00 00	 mov	 DWORD PTR ?enumFAN@@3UStrEnumFAN@@A+80, 1024 ; 00000400H

; 1177 : 	enumFAN.ALIGN_TO_ENV_POS = FAN_ALIGN_TO_ENV_POS;

  02530	c7 05 54 00 00
	00 00 08 00 00	 mov	 DWORD PTR ?enumFAN@@3UStrEnumFAN@@A+84, 2048 ; 00000800H

; 1178 : 	enumFAN.SET_ADDEFFECT = FAN_SET_ADDEFFECT;

  0253a	c7 05 58 00 00
	00 00 10 00 00	 mov	 DWORD PTR ?enumFAN@@3UStrEnumFAN@@A+88, 4096 ; 00001000H

; 1179 : 	enumFAN.RANDOM = FAN_RANDOM;

  02544	c7 05 5c 00 00
	00 00 20 00 00	 mov	 DWORD PTR ?enumFAN@@3UStrEnumFAN@@A+92, 8192 ; 00002000H

; 1180 : 	enumFAN.SET_LARA_PLACE = FAN_SET_LARA_PLACE;

  0254e	c7 05 60 00 00
	00 00 40 00 00	 mov	 DWORD PTR ?enumFAN@@3UStrEnumFAN@@A+96, 16384 ; 00004000H

; 1181 : 
; 1182 : //  --------------- LOAD CONSTANTS FOR ENUM STRUCTURE: enumFLH----------------------
; 1183 : 	enumFLH.ALMOST_FREE_HANDS = FLH_ALMOST_FREE_HANDS;

  02558	c7 05 00 00 00
	00 00 00 00 00	 mov	 DWORD PTR ?enumFLH@@3UStrEnumFLH@@A, 0

; 1184 : 	enumFLH.IS_GRABBING = FLH_IS_GRABBING;

  02562	c7 05 04 00 00
	00 01 00 00 00	 mov	 DWORD PTR ?enumFLH@@3UStrEnumFLH@@A+4, 1

; 1185 : 	enumFLH.IS_EXTRACTING = FLH_IS_EXTRACTING;

  0256c	c7 05 08 00 00
	00 02 00 00 00	 mov	 DWORD PTR ?enumFLH@@3UStrEnumFLH@@A+8, 2

; 1186 : 	enumFLH.IS_THROWING = FLH_IS_THROWING;

  02576	c7 05 0c 00 00
	00 03 00 00 00	 mov	 DWORD PTR ?enumFLH@@3UStrEnumFLH@@A+12, 3

; 1187 : 	enumFLH.HOLDS_ITEM = FLH_HOLDS_ITEM;

  02580	c7 05 10 00 00
	00 04 00 00 00	 mov	 DWORD PTR ?enumFLH@@3UStrEnumFLH@@A+16, 4

; 1188 : 
; 1189 : //  --------------- LOAD CONSTANTS FOR ENUM STRUCTURE: enumCMD----------------------
; 1190 : 	enumCMD.ALL = CMD_ALL;

  0258a	c7 05 00 00 00
	00 ff ff ff ff	 mov	 DWORD PTR ?enumCMD@@3UStrEnumCMD@@A, -1

; 1191 : 	enumCMD.UP = CMD_UP;

  02594	c7 05 04 00 00
	00 01 00 00 00	 mov	 DWORD PTR ?enumCMD@@3UStrEnumCMD@@A+4, 1

; 1192 : 	enumCMD.DOWN = CMD_DOWN;

  0259e	c7 05 08 00 00
	00 02 00 00 00	 mov	 DWORD PTR ?enumCMD@@3UStrEnumCMD@@A+8, 2

; 1193 : 	enumCMD.LEFT = CMD_LEFT;

  025a8	c7 05 0c 00 00
	00 04 00 00 00	 mov	 DWORD PTR ?enumCMD@@3UStrEnumCMD@@A+12, 4

; 1194 : 	enumCMD.RIGHT = CMD_RIGHT;

  025b2	c7 05 10 00 00
	00 08 00 00 00	 mov	 DWORD PTR ?enumCMD@@3UStrEnumCMD@@A+16, 8

; 1195 : 	enumCMD.DUCK = CMD_DUCK;

  025bc	c7 05 14 00 00
	00 00 00 00 20	 mov	 DWORD PTR ?enumCMD@@3UStrEnumCMD@@A+20, 536870912 ; 20000000H

; 1196 : 	enumCMD.DASH = CMD_DASH;

  025c6	c7 05 18 00 00
	00 00 00 00 40	 mov	 DWORD PTR ?enumCMD@@3UStrEnumCMD@@A+24, 1073741824 ; 40000000H

; 1197 : 	enumCMD.WALK = CMD_WALK;

  025d0	c7 05 1c 00 00
	00 80 00 00 00	 mov	 DWORD PTR ?enumCMD@@3UStrEnumCMD@@A+28, 128 ; 00000080H

; 1198 : 	enumCMD.JUMP = CMD_JUMP;

  025da	c7 05 20 00 00
	00 10 00 00 00	 mov	 DWORD PTR ?enumCMD@@3UStrEnumCMD@@A+32, 16 ; 00000010H

; 1199 : 	enumCMD.ACTION = CMD_ACTION;

  025e4	c7 05 24 00 00
	00 40 00 00 00	 mov	 DWORD PTR ?enumCMD@@3UStrEnumCMD@@A+36, 64 ; 00000040H

; 1200 : 	enumCMD.DRAW_WEAPON = CMD_DRAW_WEAPON;

  025ee	c7 05 28 00 00
	00 20 00 00 00	 mov	 DWORD PTR ?enumCMD@@3UStrEnumCMD@@A+40, 32 ; 00000020H

; 1201 : 	enumCMD.USE_FLARE = CMD_USE_FLARE;

  025f8	c7 05 2c 00 00
	00 00 00 08 00	 mov	 DWORD PTR ?enumCMD@@3UStrEnumCMD@@A+44, 524288 ; 00080000H

; 1202 : 	enumCMD.LOOK = CMD_LOOK;

  02602	c7 05 30 00 00
	00 00 02 00 00	 mov	 DWORD PTR ?enumCMD@@3UStrEnumCMD@@A+48, 512 ; 00000200H

; 1203 : 	enumCMD.ROLL = CMD_ROLL;

  0260c	c7 05 34 00 00
	00 00 10 00 00	 mov	 DWORD PTR ?enumCMD@@3UStrEnumCMD@@A+52, 4096 ; 00001000H

; 1204 : 	enumCMD.INVENTORY = CMD_INVENTORY;

  02616	c7 05 38 00 00
	00 00 01 20 00	 mov	 DWORD PTR ?enumCMD@@3UStrEnumCMD@@A+56, 2097408 ; 00200100H

; 1205 : 	enumCMD.STEP_LEFT = CMD_STEP_LEFT;

  02620	c7 05 3c 00 00
	00 80 04 00 00	 mov	 DWORD PTR ?enumCMD@@3UStrEnumCMD@@A+60, 1152 ; 00000480H

; 1206 : 	enumCMD.STEP_RIGHT = CMD_STEP_RIGHT;

  0262a	c7 05 40 00 00
	00 80 08 00 00	 mov	 DWORD PTR ?enumCMD@@3UStrEnumCMD@@A+64, 2176 ; 00000880H

; 1207 : 	enumCMD.PAUSE = CMD_PAUSE;

  02634	c7 05 44 00 00
	00 00 20 00 00	 mov	 DWORD PTR ?enumCMD@@3UStrEnumCMD@@A+68, 8192 ; 00002000H

; 1208 : 	enumCMD.SAVE_GAME = CMD_SAVE_GAME;

  0263e	c7 05 48 00 00
	00 00 00 40 00	 mov	 DWORD PTR ?enumCMD@@3UStrEnumCMD@@A+72, 4194304 ; 00400000H

; 1209 : 	enumCMD.LOAD_GAME = CMD_LOAD_GAME;

  02648	c7 05 4c 00 00
	00 00 00 80 00	 mov	 DWORD PTR ?enumCMD@@3UStrEnumCMD@@A+76, 8388608 ; 00800000H

; 1210 : 	enumCMD.WEAPON_KEYS = CMD_WEAPON_KEYS;

  02652	c7 05 50 00 00
	00 00 00 00 10	 mov	 DWORD PTR ?enumCMD@@3UStrEnumCMD@@A+80, 268435456 ; 10000000H

; 1211 : 	enumCMD.ENTER = CMD_ENTER;

  0265c	c7 05 54 00 00
	00 00 00 10 00	 mov	 DWORD PTR ?enumCMD@@3UStrEnumCMD@@A+84, 1048576 ; 00100000H

; 1212 : 
; 1213 : //  --------------- LOAD CONSTANTS FOR ENUM STRUCTURE: enumSRV----------------------
; 1214 : 	enumSRV.PERFORM_FLIPEFFECT = SRV_PERFORM_FLIPEFFECT;

  02666	c7 05 00 00 00
	00 00 00 00 00	 mov	 DWORD PTR ?enumSRV@@3UStrEnumSRV@@A, 0

; 1215 : 	enumSRV.PERFORM_ACTION = SRV_PERFORM_ACTION;

  02670	c7 05 04 00 00
	00 01 00 00 00	 mov	 DWORD PTR ?enumSRV@@3UStrEnumSRV@@A+4, 1

; 1216 : 	enumSRV.PERFORM_CONDITION = SRV_PERFORM_CONDITION;

  0267a	c7 05 08 00 00
	00 02 00 00 00	 mov	 DWORD PTR ?enumSRV@@3UStrEnumSRV@@A+8, 2

; 1217 : 	enumSRV.PERFORM_TRIGGERGROUP_ID = SRV_PERFORM_TRIGGERGROUP_ID;

  02684	c7 05 0c 00 00
	00 03 00 00 00	 mov	 DWORD PTR ?enumSRV@@3UStrEnumSRV@@A+12, 3

; 1218 : 	enumSRV.PERFORM_EXPORTED_TRIGGER = SRV_PERFORM_EXPORTED_TRIGGER;

  0268e	c7 05 10 00 00
	00 04 00 00 00	 mov	 DWORD PTR ?enumSRV@@3UStrEnumSRV@@A+16, 4

; 1219 : 	enumSRV.CREATE_TRIGGERGROUP = SRV_CREATE_TRIGGERGROUP;

  02698	c7 05 14 00 00
	00 05 00 00 00	 mov	 DWORD PTR ?enumSRV@@3UStrEnumSRV@@A+20, 5

; 1220 : 	enumSRV.CREATE_ANIMATION = SRV_CREATE_ANIMATION;

  026a2	c7 05 18 00 00
	00 07 00 00 00	 mov	 DWORD PTR ?enumSRV@@3UStrEnumSRV@@A+24, 7

; 1221 : 	enumSRV.CREATE_ANIMATIONSLOT = SRV_CREATE_ANIMATIONSLOT;

  026ac	c7 05 1c 00 00
	00 08 00 00 00	 mov	 DWORD PTR ?enumSRV@@3UStrEnumSRV@@A+28, 8

; 1222 : 	enumSRV.CREATE_MULTENVCONDITION = SRV_CREATE_MULTENVCONDITION;

  026b6	c7 05 20 00 00
	00 09 00 00 00	 mov	 DWORD PTR ?enumSRV@@3UStrEnumSRV@@A+32, 9

; 1223 : 	enumSRV.CREATE_TESTPOSITION = SRV_CREATE_TESTPOSITION;

  026c0	c7 05 24 00 00
	00 0a 00 00 00	 mov	 DWORD PTR ?enumSRV@@3UStrEnumSRV@@A+36, 10 ; 0000000aH

; 1224 : 	enumSRV.CREATE_ADDEFFECT = SRV_CREATE_ADDEFFECT;

  026ca	c7 05 28 00 00
	00 0c 00 00 00	 mov	 DWORD PTR ?enumSRV@@3UStrEnumSRV@@A+40, 12 ; 0000000cH

; 1225 : 	enumSRV.SetReservedDataZone = SRV_SetReservedDataZone;

  026d4	c7 05 2c 00 00
	00 0d 00 00 00	 mov	 DWORD PTR ?enumSRV@@3UStrEnumSRV@@A+44, 13 ; 0000000dH

; 1226 : 	enumSRV.F_ProporzioneDistanza = SRV_F_ProporzioneDistanza;

  026de	c7 05 30 00 00
	00 0e 00 00 00	 mov	 DWORD PTR ?enumSRV@@3UStrEnumSRV@@A+48, 14 ; 0000000eH

; 1227 : 	enumSRV.F_EseguiTriggerGroup = SRV_F_EseguiTriggerGroup;

  026e8	c7 05 34 00 00
	00 0f 00 00 00	 mov	 DWORD PTR ?enumSRV@@3UStrEnumSRV@@A+52, 15 ; 0000000fH

; 1228 : 	enumSRV.F_DetectedGlobalTriggerEvent = SRV_F_DetectedGlobalTriggerEvent;

  026f2	c7 05 38 00 00
	00 10 00 00 00	 mov	 DWORD PTR ?enumSRV@@3UStrEnumSRV@@A+56, 16 ; 00000010H

; 1229 : 	enumSRV.F_InviaErroreLog = SRV_F_InviaErroreLog;

  026fc	c7 05 3c 00 00
	00 11 00 00 00	 mov	 DWORD PTR ?enumSRV@@3UStrEnumSRV@@A+60, 17 ; 00000011H

; 1230 : 	enumSRV.CREATE_PARAM_COMMAND = SRV_CREATE_PARAM_COMMAND;

  02706	c7 05 40 00 00
	00 12 00 00 00	 mov	 DWORD PTR ?enumSRV@@3UStrEnumSRV@@A+64, 18 ; 00000012H

; 1231 : 	enumSRV.F_TestEnvCondition = SRV_F_TestEnvCondition;

  02710	c7 05 44 00 00
	00 13 00 00 00	 mov	 DWORD PTR ?enumSRV@@3UStrEnumSRV@@A+68, 19 ; 00000013H

; 1232 : 	enumSRV.F_IsBoxSettore = SRV_F_IsBoxSettore;

  0271a	c7 05 48 00 00
	00 14 00 00 00	 mov	 DWORD PTR ?enumSRV@@3UStrEnumSRV@@A+72, 20 ; 00000014H

; 1233 : 	enumSRV.F_VerificaTestPosition = SRV_F_VerificaTestPosition;

  02724	c7 05 4c 00 00
	00 15 00 00 00	 mov	 DWORD PTR ?enumSRV@@3UStrEnumSRV@@A+76, 21 ; 00000015H

; 1234 : 	enumSRV.F_CollideItemConCustom = SRV_F_CollideItemConCustom;

  0272e	c7 05 50 00 00
	00 16 00 00 00	 mov	 DWORD PTR ?enumSRV@@3UStrEnumSRV@@A+80, 22 ; 00000016H

; 1235 : 	enumSRV.F_IsCollisioneConItems = SRV_F_IsCollisioneConItems;

  02738	c7 05 54 00 00
	00 17 00 00 00	 mov	 DWORD PTR ?enumSRV@@3UStrEnumSRV@@A+84, 23 ; 00000017H

; 1236 : 	enumSRV.F_InviaLog = SRV_F_InviaLog;

  02742	c7 05 58 00 00
	00 18 00 00 00	 mov	 DWORD PTR ?enumSRV@@3UStrEnumSRV@@A+88, 24 ; 00000018H

; 1237 : 	enumSRV.F_EseguiAnimNemico = SRV_F_EseguiAnimNemico;

  0274c	c7 05 5c 00 00
	00 19 00 00 00	 mov	 DWORD PTR ?enumSRV@@3UStrEnumSRV@@A+92, 25 ; 00000019H

; 1238 : 	enumSRV.F_CreateAIRecord = SRV_F_CreateAIRecord;

  02756	c7 05 60 00 00
	00 1a 00 00 00	 mov	 DWORD PTR ?enumSRV@@3UStrEnumSRV@@A+96, 26 ; 0000001aH

; 1239 : 	enumSRV.F_DeleteAIRecord = SRV_F_DeleteAIRecord;

  02760	c7 05 64 00 00
	00 1b 00 00 00	 mov	 DWORD PTR ?enumSRV@@3UStrEnumSRV@@A+100, 27 ; 0000001bH

; 1240 : 	enumSRV.F_CreateNewMoveable = SRV_F_CreateNewMoveable;

  0276a	c7 05 68 00 00
	00 1c 00 00 00	 mov	 DWORD PTR ?enumSRV@@3UStrEnumSRV@@A+104, 28 ; 0000001cH

; 1241 : 	enumSRV.F_DeleteNewMoveable = SRV_F_DeleteNewMoveable;

  02774	c7 05 6c 00 00
	00 1d 00 00 00	 mov	 DWORD PTR ?enumSRV@@3UStrEnumSRV@@A+108, 29 ; 0000001dH

; 1242 : 	enumSRV.CREATE_COLOR_RGB_COMMAND = SRV_CREATE_COLOR_RGB_COMMAND;

  0277e	c7 05 70 00 00
	00 1e 00 00 00	 mov	 DWORD PTR ?enumSRV@@3UStrEnumSRV@@A+112, 30 ; 0000001eH

; 1243 : 	enumSRV.DeleteParamCommand = SRV_DeleteParamCommand;

  02788	c7 05 74 00 00
	00 1f 00 00 00	 mov	 DWORD PTR ?enumSRV@@3UStrEnumSRV@@A+116, 31 ; 0000001fH

; 1244 : 	enumSRV.DeleteTriggerGroup = SRV_DeleteTriggerGroup;

  02792	c7 05 78 00 00
	00 20 00 00 00	 mov	 DWORD PTR ?enumSRV@@3UStrEnumSRV@@A+120, 32 ; 00000020H

; 1245 : 	enumSRV.DeleteColorRgb = SRV_DeleteColorRgb;

  0279c	c7 05 7c 00 00
	00 21 00 00 00	 mov	 DWORD PTR ?enumSRV@@3UStrEnumSRV@@A+124, 33 ; 00000021H

; 1246 : 	enumSRV.DeleteMultEnvCondition = SRV_DeleteMultEnvCondition;

  027a6	c7 05 80 00 00
	00 22 00 00 00	 mov	 DWORD PTR ?enumSRV@@3UStrEnumSRV@@A+128, 34 ; 00000022H

; 1247 : 	enumSRV.DeleteTestPosition = SRV_DeleteTestPosition;

  027b0	c7 05 84 00 00
	00 23 00 00 00	 mov	 DWORD PTR ?enumSRV@@3UStrEnumSRV@@A+132, 35 ; 00000023H

; 1248 : 	enumSRV.DeleteAddEffect = SRV_DeleteAddEffect;

  027ba	c7 05 88 00 00
	00 24 00 00 00	 mov	 DWORD PTR ?enumSRV@@3UStrEnumSRV@@A+136, 36 ; 00000024H

; 1249 : 	enumSRV.F_DisableSaving = SRV_F_DisableSaving;

  027c4	c7 05 8c 00 00
	00 25 00 00 00	 mov	 DWORD PTR ?enumSRV@@3UStrEnumSRV@@A+140, 37 ; 00000025H

; 1250 : 	enumSRV.F_AggiungiItemMosso = SRV_F_AggiungiItemMosso;

  027ce	c7 05 90 00 00
	00 26 00 00 00	 mov	 DWORD PTR ?enumSRV@@3UStrEnumSRV@@A+144, 38 ; 00000026H

; 1251 : 	enumSRV.F_CheckForStartMovePushable = SRV_F_CheckForStartMovePushable;

  027d8	c7 05 94 00 00
	00 27 00 00 00	 mov	 DWORD PTR ?enumSRV@@3UStrEnumSRV@@A+148, 39 ; 00000027H

; 1252 : 	enumSRV.F_CheckForEndMovePushable = SRV_F_CheckForEndMovePushable;

  027e2	c7 05 98 00 00
	00 28 00 00 00	 mov	 DWORD PTR ?enumSRV@@3UStrEnumSRV@@A+152, 40 ; 00000028H

; 1253 : 	enumSRV.F_ExplosionOnVehicle = SRV_F_ExplosionOnVehicle;

  027ec	c7 05 9c 00 00
	00 29 00 00 00	 mov	 DWORD PTR ?enumSRV@@3UStrEnumSRV@@A+156, 41 ; 00000029H

; 1254 : 	enumSRV.F_ConvertMicroUnits = SRV_F_ConvertMicroUnits;

  027f6	c7 05 a0 00 00
	00 2a 00 00 00	 mov	 DWORD PTR ?enumSRV@@3UStrEnumSRV@@A+160, 42 ; 0000002aH

; 1255 : 	enumSRV.F_AllocateImage = SRV_F_AllocateImage;

  02800	c7 05 a4 00 00
	00 2b 00 00 00	 mov	 DWORD PTR ?enumSRV@@3UStrEnumSRV@@A+164, 43 ; 0000002bH

; 1256 : 	enumSRV.F_FreeImage = SRV_F_FreeImage;

  0280a	c7 05 a8 00 00
	00 2c 00 00 00	 mov	 DWORD PTR ?enumSRV@@3UStrEnumSRV@@A+168, 44 ; 0000002cH

; 1257 : 	enumSRV.F_AllocateTombHdc = SRV_F_AllocateTombHdc;

  02814	c7 05 ac 00 00
	00 2d 00 00 00	 mov	 DWORD PTR ?enumSRV@@3UStrEnumSRV@@A+172, 45 ; 0000002dH

; 1258 : 	enumSRV.F_FreeTombHdc = SRV_F_FreeTombHdc;

  0281e	c7 05 b0 00 00
	00 2e 00 00 00	 mov	 DWORD PTR ?enumSRV@@3UStrEnumSRV@@A+176, 46 ; 0000002eH

; 1259 : 	enumSRV.F_DrawSprite2D = SRV_F_DrawSprite2D;

  02828	c7 05 b4 00 00
	00 2f 00 00 00	 mov	 DWORD PTR ?enumSRV@@3UStrEnumSRV@@A+180, 47 ; 0000002fH

; 1260 : 	enumSRV.F_DrawMesh3D = SRV_F_DrawMesh3D;

  02832	c7 05 b8 00 00
	00 30 00 00 00	 mov	 DWORD PTR ?enumSRV@@3UStrEnumSRV@@A+184, 48 ; 00000030H

; 1261 : 	enumSRV.F_DrawObject2D = SRV_F_DrawObject2D;

  0283c	c7 05 bc 00 00
	00 31 00 00 00	 mov	 DWORD PTR ?enumSRV@@3UStrEnumSRV@@A+188, 49 ; 00000031H

; 1262 : 	enumSRV.F_PrintText = SRV_F_PrintText;

  02846	c7 05 c0 00 00
	00 32 00 00 00	 mov	 DWORD PTR ?enumSRV@@3UStrEnumSRV@@A+192, 50 ; 00000032H

; 1263 : 	enumSRV.F_ReadDxInput = SRV_F_ReadDxInput;

  02850	c7 05 c4 00 00
	00 33 00 00 00	 mov	 DWORD PTR ?enumSRV@@3UStrEnumSRV@@A+196, 51 ; 00000033H

; 1264 : 	enumSRV.F_SuspendAudioTrack = SRV_F_SuspendAudioTrack;

  0285a	c7 05 c8 00 00
	00 34 00 00 00	 mov	 DWORD PTR ?enumSRV@@3UStrEnumSRV@@A+200, 52 ; 00000034H

; 1265 : 	enumSRV.F_ResumeAudioTrack = SRV_F_ResumeAudioTrack;

  02864	c7 05 cc 00 00
	00 35 00 00 00	 mov	 DWORD PTR ?enumSRV@@3UStrEnumSRV@@A+204, 53 ; 00000035H

; 1266 : 	enumSRV.F_CreateWindowsFont = SRV_F_CreateWindowsFont;

  0286e	c7 05 d0 00 00
	00 36 00 00 00	 mov	 DWORD PTR ?enumSRV@@3UStrEnumSRV@@A+208, 54 ; 00000036H

; 1267 : 	enumSRV.F_FreeWindowsFont = SRV_F_FreeWindowsFont;

  02878	c7 05 d4 00 00
	00 37 00 00 00	 mov	 DWORD PTR ?enumSRV@@3UStrEnumSRV@@A+212, 55 ; 00000037H

; 1268 : 	enumSRV.F_ReadInputBox = SRV_F_ReadInputBox;

  02882	c7 05 d8 00 00
	00 38 00 00 00	 mov	 DWORD PTR ?enumSRV@@3UStrEnumSRV@@A+216, 56 ; 00000038H

; 1269 : 	enumSRV.F_ReadNumVariable = SRV_F_ReadNumVariable;

  0288c	c7 05 dc 00 00
	00 39 00 00 00	 mov	 DWORD PTR ?enumSRV@@3UStrEnumSRV@@A+220, 57 ; 00000039H

; 1270 : 	enumSRV.F_WriteNumVariable = SRV_F_WriteNumVariable;

  02896	c7 05 e0 00 00
	00 3a 00 00 00	 mov	 DWORD PTR ?enumSRV@@3UStrEnumSRV@@A+224, 58 ; 0000003aH

; 1271 : 	enumSRV.F_ReadTextVariable = SRV_F_ReadTextVariable;

  028a0	c7 05 e4 00 00
	00 3b 00 00 00	 mov	 DWORD PTR ?enumSRV@@3UStrEnumSRV@@A+228, 59 ; 0000003bH

; 1272 : 	enumSRV.F_WriteTextVariable = SRV_F_WriteTextVariable;

  028aa	c7 05 e8 00 00
	00 3c 00 00 00	 mov	 DWORD PTR ?enumSRV@@3UStrEnumSRV@@A+232, 60 ; 0000003cH

; 1273 : 	enumSRV.F_ReadMemVariable = SRV_F_ReadMemVariable;

  028b4	c7 05 ec 00 00
	00 3d 00 00 00	 mov	 DWORD PTR ?enumSRV@@3UStrEnumSRV@@A+236, 61 ; 0000003dH

; 1274 : 	enumSRV.F_WriteMemVariable = SRV_F_WriteMemVariable;

  028be	c7 05 f0 00 00
	00 3e 00 00 00	 mov	 DWORD PTR ?enumSRV@@3UStrEnumSRV@@A+240, 62 ; 0000003eH

; 1275 : 
; 1276 : //  --------------- LOAD CONSTANTS FOR ENUM STRUCTURE: enumSLEV----------------------
; 1277 : 	enumSLEV.YOUNG_LARA = SLEV_YOUNG_LARA;

  028c8	c7 05 00 00 00
	00 01 00 00 00	 mov	 DWORD PTR ?enumSLEV@@3UStrEnumSLEV@@A, 1

; 1278 : 	enumSLEV.WEATHER = SLEV_WEATHER;

  028d2	c7 05 04 00 00
	00 02 00 00 00	 mov	 DWORD PTR ?enumSLEV@@3UStrEnumSLEV@@A+4, 2

; 1279 : 	enumSLEV.HORIZON = SLEV_HORIZON;

  028dc	c7 05 08 00 00
	00 04 00 00 00	 mov	 DWORD PTR ?enumSLEV@@3UStrEnumSLEV@@A+8, 4

; 1280 : 	enumSLEV.LAYER1 = SLEV_LAYER1;

  028e6	c7 05 0c 00 00
	00 08 00 00 00	 mov	 DWORD PTR ?enumSLEV@@3UStrEnumSLEV@@A+12, 8

; 1281 : 	enumSLEV.LAYER2 = SLEV_LAYER2;

  028f0	c7 05 10 00 00
	00 10 00 00 00	 mov	 DWORD PTR ?enumSLEV@@3UStrEnumSLEV@@A+16, 16 ; 00000010H

; 1282 : 	enumSLEV.STAR_FIELD = SLEV_STAR_FIELD;

  028fa	c7 05 14 00 00
	00 20 00 00 00	 mov	 DWORD PTR ?enumSLEV@@3UStrEnumSLEV@@A+20, 32 ; 00000020H

; 1283 : 	enumSLEV.LIGHTNING = SLEV_LIGHTNING;

  02904	c7 05 18 00 00
	00 40 00 00 00	 mov	 DWORD PTR ?enumSLEV@@3UStrEnumSLEV@@A+24, 64 ; 00000040H

; 1284 : 	enumSLEV.TRAIN = SLEV_TRAIN;

  0290e	c7 05 1c 00 00
	00 80 00 00 00	 mov	 DWORD PTR ?enumSLEV@@3UStrEnumSLEV@@A+28, 128 ; 00000080H

; 1285 : 	enumSLEV.PULSE = SLEV_PULSE;

  02918	c7 05 20 00 00
	00 00 01 00 00	 mov	 DWORD PTR ?enumSLEV@@3UStrEnumSLEV@@A+32, 256 ; 00000100H

; 1286 : 	enumSLEV.COL_ADD_HORIZON = SLEV_COL_ADD_HORIZON;

  02922	c7 05 24 00 00
	00 00 02 00 00	 mov	 DWORD PTR ?enumSLEV@@3UStrEnumSLEV@@A+36, 512 ; 00000200H

; 1287 : 	enumSLEV.RESET_HUB = SLEV_RESET_HUB;

  0292c	c7 05 28 00 00
	00 00 04 00 00	 mov	 DWORD PTR ?enumSLEV@@3UStrEnumSLEV@@A+40, 1024 ; 00000400H

; 1288 : 	enumSLEV.LENS_FLARE = SLEV_LENS_FLARE;

  02936	c7 05 2c 00 00
	00 00 08 00 00	 mov	 DWORD PTR ?enumSLEV@@3UStrEnumSLEV@@A+44, 2048 ; 00000800H

; 1289 : 	enumSLEV.TIMER = SLEV_TIMER;

  02940	c7 05 30 00 00
	00 00 10 00 00	 mov	 DWORD PTR ?enumSLEV@@3UStrEnumSLEV@@A+48, 4096 ; 00001000H

; 1290 : 	enumSLEV.MIRROR = SLEV_MIRROR;

  0294a	c7 05 34 00 00
	00 00 20 00 00	 mov	 DWORD PTR ?enumSLEV@@3UStrEnumSLEV@@A+52, 8192 ; 00002000H

; 1291 : 	enumSLEV.REMOVE_AMULET = SLEV_REMOVE_AMULET;

  02954	c7 05 38 00 00
	00 00 40 00 00	 mov	 DWORD PTR ?enumSLEV@@3UStrEnumSLEV@@A+56, 16384 ; 00004000H

; 1292 : 	enumSLEV.NO_LEVEL = SLEV_NO_LEVEL;

  0295e	c7 05 3c 00 00
	00 00 80 00 00	 mov	 DWORD PTR ?enumSLEV@@3UStrEnumSLEV@@A+60, 32768 ; 00008000H

; 1293 : 
; 1294 : //  --------------- LOAD CONSTANTS FOR ENUM STRUCTURE: enumSMAIN----------------------
; 1295 : 	enumSMAIN.FLY_CHEAT = SMAIN_FLY_CHEAT;

  02968	c7 05 00 00 00
	00 01 00 00 00	 mov	 DWORD PTR ?enumSMAIN@@3UStrEnumSMAIN@@A, 1

; 1296 : 	enumSMAIN.LOAD_SAVE = SMAIN_LOAD_SAVE;

  02972	c7 05 04 00 00
	00 02 00 00 00	 mov	 DWORD PTR ?enumSMAIN@@3UStrEnumSMAIN@@A+4, 2

; 1297 : 	enumSMAIN.TITLE = SMAIN_TITLE;

  0297c	c7 05 08 00 00
	00 04 00 00 00	 mov	 DWORD PTR ?enumSMAIN@@3UStrEnumSMAIN@@A+8, 4

; 1298 : 	enumSMAIN.PLAY_ANY_LEVEL = SMAIN_PLAY_ANY_LEVEL;

  02986	c7 05 0c 00 00
	00 08 00 00 00	 mov	 DWORD PTR ?enumSMAIN@@3UStrEnumSMAIN@@A+12, 8

; 1299 : 	enumSMAIN.DEMO_DISK = SMAIN_DEMO_DISK;

  02990	c7 05 10 00 00
	00 80 00 00 00	 mov	 DWORD PTR ?enumSMAIN@@3UStrEnumSMAIN@@A+16, 128 ; 00000080H

; 1300 : 
; 1301 : //  --------------- LOAD CONSTANTS FOR ENUM STRUCTURE: enumEDGX----------------------
; 1302 : 	enumEDGX.CONCISE_SCRIPT_LOG = EDGX_CONCISE_SCRIPT_LOG;

  0299a	c7 05 00 00 00
	00 01 00 00 00	 mov	 DWORD PTR ?enumEDGX@@3UStrEnumEDGX@@A, 1

; 1303 : 	enumEDGX.SLOW_MOTION = EDGX_SLOW_MOTION;

  029a4	c7 05 04 00 00
	00 02 00 00 00	 mov	 DWORD PTR ?enumEDGX@@3UStrEnumEDGX@@A+4, 2

; 1304 : 	enumEDGX.SWAP_VIEW = EDGX_SWAP_VIEW;

  029ae	c7 05 08 00 00
	00 04 00 00 00	 mov	 DWORD PTR ?enumEDGX@@3UStrEnumEDGX@@A+8, 4

; 1305 : 	enumEDGX.LARA_CORD_IN_LOG = EDGX_LARA_CORD_IN_LOG;

  029b8	c7 05 0c 00 00
	00 08 00 00 00	 mov	 DWORD PTR ?enumEDGX@@3UStrEnumEDGX@@A+12, 8

; 1306 : 	enumEDGX.TRIGGER_TIMING = EDGX_TRIGGER_TIMING;

  029c2	c7 05 10 00 00
	00 10 00 00 00	 mov	 DWORD PTR ?enumEDGX@@3UStrEnumEDGX@@A+16, 16 ; 00000010H

; 1307 : 	enumEDGX.RECORDING_DEMO = EDGX_RECORDING_DEMO;

  029cc	c7 05 14 00 00
	00 20 00 00 00	 mov	 DWORD PTR ?enumEDGX@@3UStrEnumEDGX@@A+20, 32 ; 00000020H

; 1308 : 	enumEDGX.CUTSCENE_LOG = EDGX_CUTSCENE_LOG;

  029d6	c7 05 18 00 00
	00 40 00 00 00	 mov	 DWORD PTR ?enumEDGX@@3UStrEnumEDGX@@A+24, 64 ; 00000040H

; 1309 : 	enumEDGX.ANIMATION_SLOT = EDGX_ANIMATION_SLOT;

  029e0	c7 05 1c 00 00
	00 80 00 00 00	 mov	 DWORD PTR ?enumEDGX@@3UStrEnumEDGX@@A+28, 128 ; 00000080H

; 1310 : 
; 1311 : //  --------------- LOAD CONSTANTS FOR ENUM STRUCTURE: enumDGX----------------------
; 1312 : 	enumDGX.LARA = DGX_LARA;

  029ea	c7 05 00 00 00
	00 01 00 00 00	 mov	 DWORD PTR ?enumDGX@@3UStrEnumDGX@@A, 1

; 1313 : 	enumDGX.ANIMATION = DGX_ANIMATION;

  029f4	c7 05 04 00 00
	00 02 00 00 00	 mov	 DWORD PTR ?enumDGX@@3UStrEnumDGX@@A+4, 2

; 1314 : 	enumDGX.SFX_SOUNDS = DGX_SFX_SOUNDS;

  029fe	c7 05 08 00 00
	00 04 00 00 00	 mov	 DWORD PTR ?enumDGX@@3UStrEnumDGX@@A+8, 4

; 1315 : 	enumDGX.FAR_VIEW = DGX_FAR_VIEW;

  02a08	c7 05 0c 00 00
	00 08 00 00 00	 mov	 DWORD PTR ?enumDGX@@3UStrEnumDGX@@A+12, 8

; 1316 : 	enumDGX.AUDIO_TRACKS = DGX_AUDIO_TRACKS;

  02a12	c7 05 10 00 00
	00 10 00 00 00	 mov	 DWORD PTR ?enumDGX@@3UStrEnumDGX@@A+16, 16 ; 00000010H

; 1317 : 	enumDGX.CHEATS = DGX_CHEATS;

  02a1c	c7 05 14 00 00
	00 20 00 00 00	 mov	 DWORD PTR ?enumDGX@@3UStrEnumDGX@@A+20, 32 ; 00000020H

; 1318 : 	enumDGX.FOG = DGX_FOG;

  02a26	c7 05 18 00 00
	00 40 00 00 00	 mov	 DWORD PTR ?enumDGX@@3UStrEnumDGX@@A+24, 64 ; 00000040H

; 1319 : 	enumDGX.COMMON_VARIABLES = DGX_COMMON_VARIABLES;

  02a30	c7 05 1c 00 00
	00 80 00 00 00	 mov	 DWORD PTR ?enumDGX@@3UStrEnumDGX@@A+28, 128 ; 00000080H

; 1320 : 	enumDGX.STORE_VARIABLES = DGX_STORE_VARIABLES;

  02a3a	c7 05 20 00 00
	00 00 01 00 00	 mov	 DWORD PTR ?enumDGX@@3UStrEnumDGX@@A+32, 256 ; 00000100H

; 1321 : 	enumDGX.FLYBY = DGX_FLYBY;

  02a44	c7 05 24 00 00
	00 00 02 00 00	 mov	 DWORD PTR ?enumDGX@@3UStrEnumDGX@@A+36, 512 ; 00000200H

; 1322 : 	enumDGX.TEXT_VARIABLES = DGX_TEXT_VARIABLES;

  02a4e	c7 05 28 00 00
	00 00 04 00 00	 mov	 DWORD PTR ?enumDGX@@3UStrEnumDGX@@A+40, 1024 ; 00000400H

; 1323 : 	enumDGX.LOG_SCRIPT_COMMANDS = DGX_LOG_SCRIPT_COMMANDS;

  02a58	c7 05 2c 00 00
	00 00 08 00 00	 mov	 DWORD PTR ?enumDGX@@3UStrEnumDGX@@A+44, 2048 ; 00000800H

; 1324 : 	enumDGX.WEAPON_ANIMATION = DGX_WEAPON_ANIMATION;

  02a62	c7 05 30 00 00
	00 00 10 00 00	 mov	 DWORD PTR ?enumDGX@@3UStrEnumDGX@@A+48, 4096 ; 00001000H

; 1325 : 	enumDGX.ADJUSTMENT_MODE = DGX_ADJUSTMENT_MODE;

  02a6c	c7 05 34 00 00
	00 00 20 00 00	 mov	 DWORD PTR ?enumDGX@@3UStrEnumDGX@@A+52, 8192 ; 00002000H

; 1326 : 	enumDGX.FPS = DGX_FPS;

  02a76	c7 05 38 00 00
	00 00 40 00 00	 mov	 DWORD PTR ?enumDGX@@3UStrEnumDGX@@A+56, 16384 ; 00004000H

; 1327 : 	enumDGX.ERRORS = DGX_ERRORS;

  02a80	c7 05 3c 00 00
	00 00 80 00 00	 mov	 DWORD PTR ?enumDGX@@3UStrEnumDGX@@A+60, 32768 ; 00008000H

; 1328 : 
; 1329 : //  --------------- LOAD CONSTANTS FOR ENUM STRUCTURE: enumFROOM----------------------
; 1330 : 	enumFROOM.COLD = FROOM_COLD;

  02a8a	c7 05 00 00 00
	00 00 10 00 00	 mov	 DWORD PTR ?enumFROOM@@3UStrEnumFROOM@@A, 4096 ; 00001000H

; 1331 : 	enumFROOM.RAIN = FROOM_RAIN;

  02a94	c7 05 04 00 00
	00 00 08 00 00	 mov	 DWORD PTR ?enumFROOM@@3UStrEnumFROOM@@A+4, 2048 ; 00000800H

; 1332 : 	enumFROOM.SNOW = FROOM_SNOW;

  02a9e	c7 05 08 00 00
	00 00 04 00 00	 mov	 DWORD PTR ?enumFROOM@@3UStrEnumFROOM@@A+8, 1024 ; 00000400H

; 1333 : 	enumFROOM.REFLECTION = FROOM_REFLECTION;

  02aa8	c7 05 0c 00 00
	00 00 02 00 00	 mov	 DWORD PTR ?enumFROOM@@3UStrEnumFROOM@@A+12, 512 ; 00000200H

; 1334 : 	enumFROOM.MIST = FROOM_MIST;

  02ab2	c7 05 10 00 00
	00 00 01 00 00	 mov	 DWORD PTR ?enumFROOM@@3UStrEnumFROOM@@A+16, 256 ; 00000100H

; 1335 : 	enumFROOM.NON_LENS_FLARE = FROOM_NON_LENS_FLARE;

  02abc	c7 05 14 00 00
	00 80 00 00 00	 mov	 DWORD PTR ?enumFROOM@@3UStrEnumFROOM@@A+20, 128 ; 00000080H

; 1336 : 	enumFROOM.MISTERY = FROOM_MISTERY;

  02ac6	c7 05 18 00 00
	00 40 00 00 00	 mov	 DWORD PTR ?enumFROOM@@3UStrEnumFROOM@@A+24, 64 ; 00000040H

; 1337 : 	enumFROOM.OUTSIDE = FROOM_OUTSIDE;

  02ad0	c7 05 1c 00 00
	00 20 00 00 00	 mov	 DWORD PTR ?enumFROOM@@3UStrEnumFROOM@@A+28, 32 ; 00000020H

; 1338 : 	enumFROOM.DAMAGE = FROOM_DAMAGE;

  02ada	c7 05 20 00 00
	00 10 00 00 00	 mov	 DWORD PTR ?enumFROOM@@3UStrEnumFROOM@@A+32, 16 ; 00000010H

; 1339 : 	enumFROOM.HORIZON = FROOM_HORIZON;

  02ae4	c7 05 24 00 00
	00 08 00 00 00	 mov	 DWORD PTR ?enumFROOM@@3UStrEnumFROOM@@A+36, 8

; 1340 : 	enumFROOM.QUICKSAND = FROOM_QUICKSAND;

  02aee	c7 05 28 00 00
	00 04 00 00 00	 mov	 DWORD PTR ?enumFROOM@@3UStrEnumFROOM@@A+40, 4

; 1341 : 	enumFROOM.IS_FLIPROOM = FROOM_IS_FLIPROOM;

  02af8	c7 05 2c 00 00
	00 02 00 00 00	 mov	 DWORD PTR ?enumFROOM@@3UStrEnumFROOM@@A+44, 2

; 1342 : 	enumFROOM.WATER = FROOM_WATER;

  02b02	c7 05 30 00 00
	00 01 00 00 00	 mov	 DWORD PTR ?enumFROOM@@3UStrEnumFROOM@@A+48, 1

; 1343 : 
; 1344 : //  --------------- LOAD CONSTANTS FOR ENUM STRUCTURE: enumFIND----------------------
; 1345 : 	enumFIND.ITEM = FIND_ITEM;

  02b0c	c7 05 00 00 00
	00 00 00 00 00	 mov	 DWORD PTR ?enumFIND@@3UStrEnumFIND@@A, 0

; 1346 : 	enumFIND.STATIC = FIND_STATIC;

  02b16	c7 05 04 00 00
	00 01 00 00 00	 mov	 DWORD PTR ?enumFIND@@3UStrEnumFIND@@A+4, 1

; 1347 : 	enumFIND.AI = FIND_AI;

  02b20	c7 05 08 00 00
	00 02 00 00 00	 mov	 DWORD PTR ?enumFIND@@3UStrEnumFIND@@A+8, 2

; 1348 : 	enumFIND.LIGHT = FIND_LIGHT;

  02b2a	c7 05 0c 00 00
	00 03 00 00 00	 mov	 DWORD PTR ?enumFIND@@3UStrEnumFIND@@A+12, 3

; 1349 : 	enumFIND.CAMERA_FIXED = FIND_CAMERA_FIXED;

  02b34	c7 05 10 00 00
	00 04 00 00 00	 mov	 DWORD PTR ?enumFIND@@3UStrEnumFIND@@A+16, 4

; 1350 : 	enumFIND.CAMERA_FLY = FIND_CAMERA_FLY;

  02b3e	c7 05 14 00 00
	00 05 00 00 00	 mov	 DWORD PTR ?enumFIND@@3UStrEnumFIND@@A+20, 5

; 1351 : 	enumFIND.ITEMS_NEARBY = FIND_ITEMS_NEARBY;

  02b48	c7 05 18 00 00
	00 06 00 00 00	 mov	 DWORD PTR ?enumFIND@@3UStrEnumFIND@@A+24, 6

; 1352 : 	enumFIND.ITEMS_SECTOR = FIND_ITEMS_SECTOR;

  02b52	c7 05 1c 00 00
	00 07 00 00 00	 mov	 DWORD PTR ?enumFIND@@3UStrEnumFIND@@A+28, 7

; 1353 : 	enumFIND.STATICS_NEARBY = FIND_STATICS_NEARBY;

  02b5c	c7 05 20 00 00
	00 08 00 00 00	 mov	 DWORD PTR ?enumFIND@@3UStrEnumFIND@@A+32, 8

; 1354 : 	enumFIND.STATICS_SECTOR = FIND_STATICS_SECTOR;

  02b66	c7 05 24 00 00
	00 09 00 00 00	 mov	 DWORD PTR ?enumFIND@@3UStrEnumFIND@@A+36, 9

; 1355 : 	enumFIND.ENEMY_COMMAND = FIND_ENEMY_COMMAND;

  02b70	c7 05 28 00 00
	00 0a 00 00 00	 mov	 DWORD PTR ?enumFIND@@3UStrEnumFIND@@A+40, 10 ; 0000000aH

; 1356 : 	enumFIND.IMAGE_COMMAND = FIND_IMAGE_COMMAND;

  02b7a	c7 05 2c 00 00
	00 0b 00 00 00	 mov	 DWORD PTR ?enumFIND@@3UStrEnumFIND@@A+44, 11 ; 0000000bH

; 1357 : 	enumFIND.WINDOWS_FONT = FIND_WINDOWS_FONT;

  02b84	c7 05 30 00 00
	00 0c 00 00 00	 mov	 DWORD PTR ?enumFIND@@3UStrEnumFIND@@A+48, 12 ; 0000000cH

; 1358 : 	enumFIND.DIAGNOSTIC = FIND_DIAGNOSTIC;

  02b8e	c7 05 34 00 00
	00 0d 00 00 00	 mov	 DWORD PTR ?enumFIND@@3UStrEnumFIND@@A+52, 13 ; 0000000dH

; 1359 : 	enumFIND.PROGR_ACTION_TRNG = FIND_PROGR_ACTION_TRNG;

  02b98	c7 05 38 00 00
	00 0e 00 00 00	 mov	 DWORD PTR ?enumFIND@@3UStrEnumFIND@@A+56, 14 ; 0000000eH

; 1360 : 	enumFIND.PROGR_ACTION_MINE = FIND_PROGR_ACTION_MINE;

  02ba2	c7 05 3c 00 00
	00 0f 00 00 00	 mov	 DWORD PTR ?enumFIND@@3UStrEnumFIND@@A+60, 15 ; 0000000fH

; 1361 : 	enumFIND.ASSIGN_SLOT_MINE = FIND_ASSIGN_SLOT_MINE;

  02bac	c7 05 40 00 00
	00 10 00 00 00	 mov	 DWORD PTR ?enumFIND@@3UStrEnumFIND@@A+64, 16 ; 00000010H

; 1362 : 
; 1363 : //  --------------- LOAD CONSTANTS FOR ENUM STRUCTURE: enumSSLOT----------------------
; 1364 : 	enumSSLOT.PLANT0 = SSLOT_PLANT0;

  02bb6	c7 05 00 00 00
	00 00 00 00 00	 mov	 DWORD PTR ?enumSSLOT@@3UStrEnumSSLOT@@A, 0

; 1365 : 	enumSSLOT.PLANT1 = SSLOT_PLANT1;

  02bc0	c7 05 04 00 00
	00 01 00 00 00	 mov	 DWORD PTR ?enumSSLOT@@3UStrEnumSSLOT@@A+4, 1

; 1366 : 	enumSSLOT.PLANT2 = SSLOT_PLANT2;

  02bca	c7 05 08 00 00
	00 02 00 00 00	 mov	 DWORD PTR ?enumSSLOT@@3UStrEnumSSLOT@@A+8, 2

; 1367 : 	enumSSLOT.PLANT3 = SSLOT_PLANT3;

  02bd4	c7 05 0c 00 00
	00 03 00 00 00	 mov	 DWORD PTR ?enumSSLOT@@3UStrEnumSSLOT@@A+12, 3

; 1368 : 	enumSSLOT.PLANT4 = SSLOT_PLANT4;

  02bde	c7 05 10 00 00
	00 04 00 00 00	 mov	 DWORD PTR ?enumSSLOT@@3UStrEnumSSLOT@@A+16, 4

; 1369 : 	enumSSLOT.PLANT5 = SSLOT_PLANT5;

  02be8	c7 05 14 00 00
	00 05 00 00 00	 mov	 DWORD PTR ?enumSSLOT@@3UStrEnumSSLOT@@A+20, 5

; 1370 : 	enumSSLOT.PLANT6 = SSLOT_PLANT6;

  02bf2	c7 05 18 00 00
	00 06 00 00 00	 mov	 DWORD PTR ?enumSSLOT@@3UStrEnumSSLOT@@A+24, 6

; 1371 : 	enumSSLOT.PLANT7 = SSLOT_PLANT7;

  02bfc	c7 05 1c 00 00
	00 07 00 00 00	 mov	 DWORD PTR ?enumSSLOT@@3UStrEnumSSLOT@@A+28, 7

; 1372 : 	enumSSLOT.PLANT8 = SSLOT_PLANT8;

  02c06	c7 05 20 00 00
	00 08 00 00 00	 mov	 DWORD PTR ?enumSSLOT@@3UStrEnumSSLOT@@A+32, 8

; 1373 : 	enumSSLOT.PLANT9 = SSLOT_PLANT9;

  02c10	c7 05 24 00 00
	00 09 00 00 00	 mov	 DWORD PTR ?enumSSLOT@@3UStrEnumSSLOT@@A+36, 9

; 1374 : 	enumSSLOT.FURNITURE0 = SSLOT_FURNITURE0;

  02c1a	c7 05 28 00 00
	00 0a 00 00 00	 mov	 DWORD PTR ?enumSSLOT@@3UStrEnumSSLOT@@A+40, 10 ; 0000000aH

; 1375 : 	enumSSLOT.FURNITURE1 = SSLOT_FURNITURE1;

  02c24	c7 05 2c 00 00
	00 0b 00 00 00	 mov	 DWORD PTR ?enumSSLOT@@3UStrEnumSSLOT@@A+44, 11 ; 0000000bH

; 1376 : 	enumSSLOT.FURNITURE2 = SSLOT_FURNITURE2;

  02c2e	c7 05 30 00 00
	00 0c 00 00 00	 mov	 DWORD PTR ?enumSSLOT@@3UStrEnumSSLOT@@A+48, 12 ; 0000000cH

; 1377 : 	enumSSLOT.FURNITURE3 = SSLOT_FURNITURE3;

  02c38	c7 05 34 00 00
	00 0d 00 00 00	 mov	 DWORD PTR ?enumSSLOT@@3UStrEnumSSLOT@@A+52, 13 ; 0000000dH

; 1378 : 	enumSSLOT.FURNITURE4 = SSLOT_FURNITURE4;

  02c42	c7 05 38 00 00
	00 0e 00 00 00	 mov	 DWORD PTR ?enumSSLOT@@3UStrEnumSSLOT@@A+56, 14 ; 0000000eH

; 1379 : 	enumSSLOT.FURNITURE5 = SSLOT_FURNITURE5;

  02c4c	c7 05 3c 00 00
	00 0f 00 00 00	 mov	 DWORD PTR ?enumSSLOT@@3UStrEnumSSLOT@@A+60, 15 ; 0000000fH

; 1380 : 	enumSSLOT.FURNITURE6 = SSLOT_FURNITURE6;

  02c56	c7 05 40 00 00
	00 10 00 00 00	 mov	 DWORD PTR ?enumSSLOT@@3UStrEnumSSLOT@@A+64, 16 ; 00000010H

; 1381 : 	enumSSLOT.FURNITURE7 = SSLOT_FURNITURE7;

  02c60	c7 05 44 00 00
	00 11 00 00 00	 mov	 DWORD PTR ?enumSSLOT@@3UStrEnumSSLOT@@A+68, 17 ; 00000011H

; 1382 : 	enumSSLOT.FURNITURE8 = SSLOT_FURNITURE8;

  02c6a	c7 05 48 00 00
	00 12 00 00 00	 mov	 DWORD PTR ?enumSSLOT@@3UStrEnumSSLOT@@A+72, 18 ; 00000012H

; 1383 : 	enumSSLOT.FURNITURE9 = SSLOT_FURNITURE9;

  02c74	c7 05 4c 00 00
	00 13 00 00 00	 mov	 DWORD PTR ?enumSSLOT@@3UStrEnumSSLOT@@A+76, 19 ; 00000013H

; 1384 : 	enumSSLOT.ROCK0 = SSLOT_ROCK0;

  02c7e	c7 05 50 00 00
	00 14 00 00 00	 mov	 DWORD PTR ?enumSSLOT@@3UStrEnumSSLOT@@A+80, 20 ; 00000014H

; 1385 : 	enumSSLOT.ROCK1 = SSLOT_ROCK1;

  02c88	c7 05 54 00 00
	00 15 00 00 00	 mov	 DWORD PTR ?enumSSLOT@@3UStrEnumSSLOT@@A+84, 21 ; 00000015H

; 1386 : 	enumSSLOT.ROCK2 = SSLOT_ROCK2;

  02c92	c7 05 58 00 00
	00 16 00 00 00	 mov	 DWORD PTR ?enumSSLOT@@3UStrEnumSSLOT@@A+88, 22 ; 00000016H

; 1387 : 	enumSSLOT.ROCK3 = SSLOT_ROCK3;

  02c9c	c7 05 5c 00 00
	00 17 00 00 00	 mov	 DWORD PTR ?enumSSLOT@@3UStrEnumSSLOT@@A+92, 23 ; 00000017H

; 1388 : 	enumSSLOT.ROCK4 = SSLOT_ROCK4;

  02ca6	c7 05 60 00 00
	00 18 00 00 00	 mov	 DWORD PTR ?enumSSLOT@@3UStrEnumSSLOT@@A+96, 24 ; 00000018H

; 1389 : 	enumSSLOT.ROCK5 = SSLOT_ROCK5;

  02cb0	c7 05 64 00 00
	00 19 00 00 00	 mov	 DWORD PTR ?enumSSLOT@@3UStrEnumSSLOT@@A+100, 25 ; 00000019H

; 1390 : 	enumSSLOT.ROCK6 = SSLOT_ROCK6;

  02cba	c7 05 68 00 00
	00 1a 00 00 00	 mov	 DWORD PTR ?enumSSLOT@@3UStrEnumSSLOT@@A+104, 26 ; 0000001aH

; 1391 : 	enumSSLOT.ROCK7 = SSLOT_ROCK7;

  02cc4	c7 05 6c 00 00
	00 1b 00 00 00	 mov	 DWORD PTR ?enumSSLOT@@3UStrEnumSSLOT@@A+108, 27 ; 0000001bH

; 1392 : 	enumSSLOT.ROCK8 = SSLOT_ROCK8;

  02cce	c7 05 70 00 00
	00 1c 00 00 00	 mov	 DWORD PTR ?enumSSLOT@@3UStrEnumSSLOT@@A+112, 28 ; 0000001cH

; 1393 : 	enumSSLOT.ROCK9 = SSLOT_ROCK9;

  02cd8	c7 05 74 00 00
	00 1d 00 00 00	 mov	 DWORD PTR ?enumSSLOT@@3UStrEnumSSLOT@@A+116, 29 ; 0000001dH

; 1394 : 	enumSSLOT.ARCHITECTURE0 = SSLOT_ARCHITECTURE0;

  02ce2	c7 05 78 00 00
	00 1e 00 00 00	 mov	 DWORD PTR ?enumSSLOT@@3UStrEnumSSLOT@@A+120, 30 ; 0000001eH

; 1395 : 	enumSSLOT.ARCHITECTURE1 = SSLOT_ARCHITECTURE1;

  02cec	c7 05 7c 00 00
	00 1f 00 00 00	 mov	 DWORD PTR ?enumSSLOT@@3UStrEnumSSLOT@@A+124, 31 ; 0000001fH

; 1396 : 	enumSSLOT.ARCHITECTURE2 = SSLOT_ARCHITECTURE2;

  02cf6	c7 05 80 00 00
	00 20 00 00 00	 mov	 DWORD PTR ?enumSSLOT@@3UStrEnumSSLOT@@A+128, 32 ; 00000020H

; 1397 : 	enumSSLOT.ARCHITECTURE3 = SSLOT_ARCHITECTURE3;

  02d00	c7 05 84 00 00
	00 21 00 00 00	 mov	 DWORD PTR ?enumSSLOT@@3UStrEnumSSLOT@@A+132, 33 ; 00000021H

; 1398 : 	enumSSLOT.ARCHITECTURE4 = SSLOT_ARCHITECTURE4;

  02d0a	c7 05 88 00 00
	00 22 00 00 00	 mov	 DWORD PTR ?enumSSLOT@@3UStrEnumSSLOT@@A+136, 34 ; 00000022H

; 1399 : 	enumSSLOT.ARCHITECTURE5 = SSLOT_ARCHITECTURE5;

  02d14	c7 05 8c 00 00
	00 23 00 00 00	 mov	 DWORD PTR ?enumSSLOT@@3UStrEnumSSLOT@@A+140, 35 ; 00000023H

; 1400 : 	enumSSLOT.ARCHITECTURE6 = SSLOT_ARCHITECTURE6;

  02d1e	c7 05 90 00 00
	00 24 00 00 00	 mov	 DWORD PTR ?enumSSLOT@@3UStrEnumSSLOT@@A+144, 36 ; 00000024H

; 1401 : 	enumSSLOT.ARCHITECTURE7 = SSLOT_ARCHITECTURE7;

  02d28	c7 05 94 00 00
	00 25 00 00 00	 mov	 DWORD PTR ?enumSSLOT@@3UStrEnumSSLOT@@A+148, 37 ; 00000025H

; 1402 : 	enumSSLOT.ARCHITECTURE8 = SSLOT_ARCHITECTURE8;

  02d32	c7 05 98 00 00
	00 26 00 00 00	 mov	 DWORD PTR ?enumSSLOT@@3UStrEnumSSLOT@@A+152, 38 ; 00000026H

; 1403 : 	enumSSLOT.ARCHITECTURE9 = SSLOT_ARCHITECTURE9;

  02d3c	c7 05 9c 00 00
	00 27 00 00 00	 mov	 DWORD PTR ?enumSSLOT@@3UStrEnumSSLOT@@A+156, 39 ; 00000027H

; 1404 : 	enumSSLOT.DEBRIS0 = SSLOT_DEBRIS0;

  02d46	c7 05 a0 00 00
	00 28 00 00 00	 mov	 DWORD PTR ?enumSSLOT@@3UStrEnumSSLOT@@A+160, 40 ; 00000028H

; 1405 : 	enumSSLOT.DEBRIS1 = SSLOT_DEBRIS1;

  02d50	c7 05 a4 00 00
	00 29 00 00 00	 mov	 DWORD PTR ?enumSSLOT@@3UStrEnumSSLOT@@A+164, 41 ; 00000029H

; 1406 : 	enumSSLOT.DEBRIS2 = SSLOT_DEBRIS2;

  02d5a	c7 05 a8 00 00
	00 2a 00 00 00	 mov	 DWORD PTR ?enumSSLOT@@3UStrEnumSSLOT@@A+168, 42 ; 0000002aH

; 1407 : 	enumSSLOT.DEBRIS3 = SSLOT_DEBRIS3;

  02d64	c7 05 ac 00 00
	00 2b 00 00 00	 mov	 DWORD PTR ?enumSSLOT@@3UStrEnumSSLOT@@A+172, 43 ; 0000002bH

; 1408 : 	enumSSLOT.DEBRIS4 = SSLOT_DEBRIS4;

  02d6e	c7 05 b0 00 00
	00 2c 00 00 00	 mov	 DWORD PTR ?enumSSLOT@@3UStrEnumSSLOT@@A+176, 44 ; 0000002cH

; 1409 : 	enumSSLOT.DEBRIS5 = SSLOT_DEBRIS5;

  02d78	c7 05 b4 00 00
	00 2d 00 00 00	 mov	 DWORD PTR ?enumSSLOT@@3UStrEnumSSLOT@@A+180, 45 ; 0000002dH

; 1410 : 	enumSSLOT.DEBRIS6 = SSLOT_DEBRIS6;

  02d82	c7 05 b8 00 00
	00 2e 00 00 00	 mov	 DWORD PTR ?enumSSLOT@@3UStrEnumSSLOT@@A+184, 46 ; 0000002eH

; 1411 : 	enumSSLOT.DEBRIS7 = SSLOT_DEBRIS7;

  02d8c	c7 05 bc 00 00
	00 2f 00 00 00	 mov	 DWORD PTR ?enumSSLOT@@3UStrEnumSSLOT@@A+188, 47 ; 0000002fH

; 1412 : 	enumSSLOT.DEBRIS8 = SSLOT_DEBRIS8;

  02d96	c7 05 c0 00 00
	00 30 00 00 00	 mov	 DWORD PTR ?enumSSLOT@@3UStrEnumSSLOT@@A+192, 48 ; 00000030H

; 1413 : 	enumSSLOT.DEBRIS9 = SSLOT_DEBRIS9;

  02da0	c7 05 c4 00 00
	00 31 00 00 00	 mov	 DWORD PTR ?enumSSLOT@@3UStrEnumSSLOT@@A+196, 49 ; 00000031H

; 1414 : 	enumSSLOT.SHATTER0 = SSLOT_SHATTER0;

  02daa	c7 05 c8 00 00
	00 32 00 00 00	 mov	 DWORD PTR ?enumSSLOT@@3UStrEnumSSLOT@@A+200, 50 ; 00000032H

; 1415 : 	enumSSLOT.SHATTER1 = SSLOT_SHATTER1;

  02db4	c7 05 cc 00 00
	00 33 00 00 00	 mov	 DWORD PTR ?enumSSLOT@@3UStrEnumSSLOT@@A+204, 51 ; 00000033H

; 1416 : 	enumSSLOT.SHATTER2 = SSLOT_SHATTER2;

  02dbe	c7 05 d0 00 00
	00 34 00 00 00	 mov	 DWORD PTR ?enumSSLOT@@3UStrEnumSSLOT@@A+208, 52 ; 00000034H

; 1417 : 	enumSSLOT.SHATTER3 = SSLOT_SHATTER3;

  02dc8	c7 05 d4 00 00
	00 35 00 00 00	 mov	 DWORD PTR ?enumSSLOT@@3UStrEnumSSLOT@@A+212, 53 ; 00000035H

; 1418 : 	enumSSLOT.SHATTER4 = SSLOT_SHATTER4;

  02dd2	c7 05 d8 00 00
	00 36 00 00 00	 mov	 DWORD PTR ?enumSSLOT@@3UStrEnumSSLOT@@A+216, 54 ; 00000036H

; 1419 : 	enumSSLOT.SHATTER5 = SSLOT_SHATTER5;

  02ddc	c7 05 dc 00 00
	00 37 00 00 00	 mov	 DWORD PTR ?enumSSLOT@@3UStrEnumSSLOT@@A+220, 55 ; 00000037H

; 1420 : 	enumSSLOT.SHATTER6 = SSLOT_SHATTER6;

  02de6	c7 05 e0 00 00
	00 38 00 00 00	 mov	 DWORD PTR ?enumSSLOT@@3UStrEnumSSLOT@@A+224, 56 ; 00000038H

; 1421 : 	enumSSLOT.SHATTER7 = SSLOT_SHATTER7;

  02df0	c7 05 e4 00 00
	00 39 00 00 00	 mov	 DWORD PTR ?enumSSLOT@@3UStrEnumSSLOT@@A+228, 57 ; 00000039H

; 1422 : 	enumSSLOT.SHATTER8 = SSLOT_SHATTER8;

  02dfa	c7 05 e8 00 00
	00 3a 00 00 00	 mov	 DWORD PTR ?enumSSLOT@@3UStrEnumSSLOT@@A+232, 58 ; 0000003aH

; 1423 : 	enumSSLOT.SHATTER9 = SSLOT_SHATTER9;

  02e04	c7 05 ec 00 00
	00 3b 00 00 00	 mov	 DWORD PTR ?enumSSLOT@@3UStrEnumSSLOT@@A+236, 59 ; 0000003bH

; 1424 : 	enumSSLOT.EXTRA00 = SSLOT_EXTRA00;

  02e0e	c7 05 f0 00 00
	00 3c 00 00 00	 mov	 DWORD PTR ?enumSSLOT@@3UStrEnumSSLOT@@A+240, 60 ; 0000003cH

; 1425 : 	enumSSLOT.EXTRA01 = SSLOT_EXTRA01;

  02e18	c7 05 f4 00 00
	00 3d 00 00 00	 mov	 DWORD PTR ?enumSSLOT@@3UStrEnumSSLOT@@A+244, 61 ; 0000003dH

; 1426 : 	enumSSLOT.EXTRA02 = SSLOT_EXTRA02;

  02e22	c7 05 f8 00 00
	00 3e 00 00 00	 mov	 DWORD PTR ?enumSSLOT@@3UStrEnumSSLOT@@A+248, 62 ; 0000003eH

; 1427 : 	enumSSLOT.EXTRA03 = SSLOT_EXTRA03;

  02e2c	c7 05 fc 00 00
	00 3f 00 00 00	 mov	 DWORD PTR ?enumSSLOT@@3UStrEnumSSLOT@@A+252, 63 ; 0000003fH

; 1428 : 	enumSSLOT.EXTRA04 = SSLOT_EXTRA04;

  02e36	c7 05 00 01 00
	00 40 00 00 00	 mov	 DWORD PTR ?enumSSLOT@@3UStrEnumSSLOT@@A+256, 64 ; 00000040H

; 1429 : 	enumSSLOT.EXTRA05 = SSLOT_EXTRA05;

  02e40	c7 05 04 01 00
	00 41 00 00 00	 mov	 DWORD PTR ?enumSSLOT@@3UStrEnumSSLOT@@A+260, 65 ; 00000041H

; 1430 : 	enumSSLOT.EXTRA06 = SSLOT_EXTRA06;

  02e4a	c7 05 08 01 00
	00 42 00 00 00	 mov	 DWORD PTR ?enumSSLOT@@3UStrEnumSSLOT@@A+264, 66 ; 00000042H

; 1431 : 	enumSSLOT.EXTRA07 = SSLOT_EXTRA07;

  02e54	c7 05 0c 01 00
	00 43 00 00 00	 mov	 DWORD PTR ?enumSSLOT@@3UStrEnumSSLOT@@A+268, 67 ; 00000043H

; 1432 : 	enumSSLOT.EXTRA08 = SSLOT_EXTRA08;

  02e5e	c7 05 10 01 00
	00 44 00 00 00	 mov	 DWORD PTR ?enumSSLOT@@3UStrEnumSSLOT@@A+272, 68 ; 00000044H

; 1433 : 	enumSSLOT.EXTRA09 = SSLOT_EXTRA09;

  02e68	c7 05 14 01 00
	00 45 00 00 00	 mov	 DWORD PTR ?enumSSLOT@@3UStrEnumSSLOT@@A+276, 69 ; 00000045H

; 1434 : 	enumSSLOT.EXTRA10 = SSLOT_EXTRA10;

  02e72	c7 05 18 01 00
	00 46 00 00 00	 mov	 DWORD PTR ?enumSSLOT@@3UStrEnumSSLOT@@A+280, 70 ; 00000046H

; 1435 : 	enumSSLOT.EXTRA11 = SSLOT_EXTRA11;

  02e7c	c7 05 1c 01 00
	00 47 00 00 00	 mov	 DWORD PTR ?enumSSLOT@@3UStrEnumSSLOT@@A+284, 71 ; 00000047H

; 1436 : 	enumSSLOT.EXTRA12 = SSLOT_EXTRA12;

  02e86	c7 05 20 01 00
	00 48 00 00 00	 mov	 DWORD PTR ?enumSSLOT@@3UStrEnumSSLOT@@A+288, 72 ; 00000048H

; 1437 : 	enumSSLOT.EXTRA13 = SSLOT_EXTRA13;

  02e90	c7 05 24 01 00
	00 49 00 00 00	 mov	 DWORD PTR ?enumSSLOT@@3UStrEnumSSLOT@@A+292, 73 ; 00000049H

; 1438 : 	enumSSLOT.EXTRA14 = SSLOT_EXTRA14;

  02e9a	c7 05 28 01 00
	00 4a 00 00 00	 mov	 DWORD PTR ?enumSSLOT@@3UStrEnumSSLOT@@A+296, 74 ; 0000004aH

; 1439 : 	enumSSLOT.EXTRA15 = SSLOT_EXTRA15;

  02ea4	c7 05 2c 01 00
	00 4b 00 00 00	 mov	 DWORD PTR ?enumSSLOT@@3UStrEnumSSLOT@@A+300, 75 ; 0000004bH

; 1440 : 	enumSSLOT.EXTRA16 = SSLOT_EXTRA16;

  02eae	c7 05 30 01 00
	00 4c 00 00 00	 mov	 DWORD PTR ?enumSSLOT@@3UStrEnumSSLOT@@A+304, 76 ; 0000004cH

; 1441 : 	enumSSLOT.EXTRA17 = SSLOT_EXTRA17;

  02eb8	c7 05 34 01 00
	00 4d 00 00 00	 mov	 DWORD PTR ?enumSSLOT@@3UStrEnumSSLOT@@A+308, 77 ; 0000004dH

; 1442 : 	enumSSLOT.EXTRA18 = SSLOT_EXTRA18;

  02ec2	c7 05 38 01 00
	00 4e 00 00 00	 mov	 DWORD PTR ?enumSSLOT@@3UStrEnumSSLOT@@A+312, 78 ; 0000004eH

; 1443 : 	enumSSLOT.EXTRA19 = SSLOT_EXTRA19;

  02ecc	c7 05 3c 01 00
	00 4f 00 00 00	 mov	 DWORD PTR ?enumSSLOT@@3UStrEnumSSLOT@@A+316, 79 ; 0000004fH

; 1444 : 	enumSSLOT.EXTRA20 = SSLOT_EXTRA20;

  02ed6	c7 05 40 01 00
	00 50 00 00 00	 mov	 DWORD PTR ?enumSSLOT@@3UStrEnumSSLOT@@A+320, 80 ; 00000050H

; 1445 : 	enumSSLOT.EXTRA21 = SSLOT_EXTRA21;

  02ee0	c7 05 44 01 00
	00 51 00 00 00	 mov	 DWORD PTR ?enumSSLOT@@3UStrEnumSSLOT@@A+324, 81 ; 00000051H

; 1446 : 	enumSSLOT.EXTRA22 = SSLOT_EXTRA22;

  02eea	c7 05 48 01 00
	00 52 00 00 00	 mov	 DWORD PTR ?enumSSLOT@@3UStrEnumSSLOT@@A+328, 82 ; 00000052H

; 1447 : 	enumSSLOT.EXTRA23 = SSLOT_EXTRA23;

  02ef4	c7 05 4c 01 00
	00 53 00 00 00	 mov	 DWORD PTR ?enumSSLOT@@3UStrEnumSSLOT@@A+332, 83 ; 00000053H

; 1448 : 	enumSSLOT.EXTRA24 = SSLOT_EXTRA24;

  02efe	c7 05 50 01 00
	00 54 00 00 00	 mov	 DWORD PTR ?enumSSLOT@@3UStrEnumSSLOT@@A+336, 84 ; 00000054H

; 1449 : 	enumSSLOT.EXTRA25 = SSLOT_EXTRA25;

  02f08	c7 05 54 01 00
	00 55 00 00 00	 mov	 DWORD PTR ?enumSSLOT@@3UStrEnumSSLOT@@A+340, 85 ; 00000055H

; 1450 : 	enumSSLOT.EXTRA26 = SSLOT_EXTRA26;

  02f12	c7 05 58 01 00
	00 56 00 00 00	 mov	 DWORD PTR ?enumSSLOT@@3UStrEnumSSLOT@@A+344, 86 ; 00000056H

; 1451 : 	enumSSLOT.EXTRA27 = SSLOT_EXTRA27;

  02f1c	c7 05 5c 01 00
	00 57 00 00 00	 mov	 DWORD PTR ?enumSSLOT@@3UStrEnumSSLOT@@A+348, 87 ; 00000057H

; 1452 : 	enumSSLOT.EXTRA28 = SSLOT_EXTRA28;

  02f26	c7 05 60 01 00
	00 58 00 00 00	 mov	 DWORD PTR ?enumSSLOT@@3UStrEnumSSLOT@@A+352, 88 ; 00000058H

; 1453 : 	enumSSLOT.EXTRA29 = SSLOT_EXTRA29;

  02f30	c7 05 64 01 00
	00 59 00 00 00	 mov	 DWORD PTR ?enumSSLOT@@3UStrEnumSSLOT@@A+356, 89 ; 00000059H

; 1454 : 	enumSSLOT.EXTRA30 = SSLOT_EXTRA30;

  02f3a	c7 05 68 01 00
	00 5a 00 00 00	 mov	 DWORD PTR ?enumSSLOT@@3UStrEnumSSLOT@@A+360, 90 ; 0000005aH

; 1455 : 	enumSSLOT.EXTRA31 = SSLOT_EXTRA31;

  02f44	c7 05 6c 01 00
	00 5b 00 00 00	 mov	 DWORD PTR ?enumSSLOT@@3UStrEnumSSLOT@@A+364, 91 ; 0000005bH

; 1456 : 	enumSSLOT.EXTRA32 = SSLOT_EXTRA32;

  02f4e	c7 05 70 01 00
	00 5c 00 00 00	 mov	 DWORD PTR ?enumSSLOT@@3UStrEnumSSLOT@@A+368, 92 ; 0000005cH

; 1457 : 	enumSSLOT.EXTRA33 = SSLOT_EXTRA33;

  02f58	c7 05 74 01 00
	00 5d 00 00 00	 mov	 DWORD PTR ?enumSSLOT@@3UStrEnumSSLOT@@A+372, 93 ; 0000005dH

; 1458 : 	enumSSLOT.EXTRA34 = SSLOT_EXTRA34;

  02f62	c7 05 78 01 00
	00 5e 00 00 00	 mov	 DWORD PTR ?enumSSLOT@@3UStrEnumSSLOT@@A+376, 94 ; 0000005eH

; 1459 : 	enumSSLOT.EXTRA35 = SSLOT_EXTRA35;

  02f6c	c7 05 7c 01 00
	00 5f 00 00 00	 mov	 DWORD PTR ?enumSSLOT@@3UStrEnumSSLOT@@A+380, 95 ; 0000005fH

; 1460 : 	enumSSLOT.EXTRA36 = SSLOT_EXTRA36;

  02f76	c7 05 80 01 00
	00 60 00 00 00	 mov	 DWORD PTR ?enumSSLOT@@3UStrEnumSSLOT@@A+384, 96 ; 00000060H

; 1461 : 	enumSSLOT.EXTRA37 = SSLOT_EXTRA37;

  02f80	c7 05 84 01 00
	00 61 00 00 00	 mov	 DWORD PTR ?enumSSLOT@@3UStrEnumSSLOT@@A+388, 97 ; 00000061H

; 1462 : 	enumSSLOT.EXTRA38 = SSLOT_EXTRA38;

  02f8a	c7 05 88 01 00
	00 62 00 00 00	 mov	 DWORD PTR ?enumSSLOT@@3UStrEnumSSLOT@@A+392, 98 ; 00000062H

; 1463 : 	enumSSLOT.EXTRA39 = SSLOT_EXTRA39;

  02f94	c7 05 8c 01 00
	00 63 00 00 00	 mov	 DWORD PTR ?enumSSLOT@@3UStrEnumSSLOT@@A+396, 99 ; 00000063H

; 1464 : 	enumSSLOT.EXTRA40 = SSLOT_EXTRA40;

  02f9e	c7 05 90 01 00
	00 64 00 00 00	 mov	 DWORD PTR ?enumSSLOT@@3UStrEnumSSLOT@@A+400, 100 ; 00000064H

; 1465 : 	enumSSLOT.EXTRA41 = SSLOT_EXTRA41;

  02fa8	c7 05 94 01 00
	00 65 00 00 00	 mov	 DWORD PTR ?enumSSLOT@@3UStrEnumSSLOT@@A+404, 101 ; 00000065H

; 1466 : 	enumSSLOT.EXTRA42 = SSLOT_EXTRA42;

  02fb2	c7 05 98 01 00
	00 66 00 00 00	 mov	 DWORD PTR ?enumSSLOT@@3UStrEnumSSLOT@@A+408, 102 ; 00000066H

; 1467 : 	enumSSLOT.EXTRA43 = SSLOT_EXTRA43;

  02fbc	c7 05 9c 01 00
	00 67 00 00 00	 mov	 DWORD PTR ?enumSSLOT@@3UStrEnumSSLOT@@A+412, 103 ; 00000067H

; 1468 : 	enumSSLOT.EXTRA44 = SSLOT_EXTRA44;

  02fc6	c7 05 a0 01 00
	00 68 00 00 00	 mov	 DWORD PTR ?enumSSLOT@@3UStrEnumSSLOT@@A+416, 104 ; 00000068H

; 1469 : 	enumSSLOT.EXTRA45 = SSLOT_EXTRA45;

  02fd0	c7 05 a4 01 00
	00 69 00 00 00	 mov	 DWORD PTR ?enumSSLOT@@3UStrEnumSSLOT@@A+420, 105 ; 00000069H

; 1470 : 	enumSSLOT.EXTRA46 = SSLOT_EXTRA46;

  02fda	c7 05 a8 01 00
	00 6a 00 00 00	 mov	 DWORD PTR ?enumSSLOT@@3UStrEnumSSLOT@@A+424, 106 ; 0000006aH

; 1471 : 	enumSSLOT.EXTRA47 = SSLOT_EXTRA47;

  02fe4	c7 05 ac 01 00
	00 6b 00 00 00	 mov	 DWORD PTR ?enumSSLOT@@3UStrEnumSSLOT@@A+428, 107 ; 0000006bH

; 1472 : 	enumSSLOT.EXTRA48 = SSLOT_EXTRA48;

  02fee	c7 05 b0 01 00
	00 6c 00 00 00	 mov	 DWORD PTR ?enumSSLOT@@3UStrEnumSSLOT@@A+432, 108 ; 0000006cH

; 1473 : 	enumSSLOT.EXTRA49 = SSLOT_EXTRA49;

  02ff8	c7 05 b4 01 00
	00 6d 00 00 00	 mov	 DWORD PTR ?enumSSLOT@@3UStrEnumSSLOT@@A+436, 109 ; 0000006dH

; 1474 : 	enumSSLOT.EXTRA50 = SSLOT_EXTRA50;

  03002	c7 05 b8 01 00
	00 6e 00 00 00	 mov	 DWORD PTR ?enumSSLOT@@3UStrEnumSSLOT@@A+440, 110 ; 0000006eH

; 1475 : 	enumSSLOT.EXTRA51 = SSLOT_EXTRA51;

  0300c	c7 05 bc 01 00
	00 6f 00 00 00	 mov	 DWORD PTR ?enumSSLOT@@3UStrEnumSSLOT@@A+444, 111 ; 0000006fH

; 1476 : 	enumSSLOT.EXTRA52 = SSLOT_EXTRA52;

  03016	c7 05 c0 01 00
	00 70 00 00 00	 mov	 DWORD PTR ?enumSSLOT@@3UStrEnumSSLOT@@A+448, 112 ; 00000070H

; 1477 : 	enumSSLOT.EXTRA53 = SSLOT_EXTRA53;

  03020	c7 05 c4 01 00
	00 71 00 00 00	 mov	 DWORD PTR ?enumSSLOT@@3UStrEnumSSLOT@@A+452, 113 ; 00000071H

; 1478 : 	enumSSLOT.EXTRA54 = SSLOT_EXTRA54;

  0302a	c7 05 c8 01 00
	00 72 00 00 00	 mov	 DWORD PTR ?enumSSLOT@@3UStrEnumSSLOT@@A+456, 114 ; 00000072H

; 1479 : 	enumSSLOT.EXTRA55 = SSLOT_EXTRA55;

  03034	c7 05 cc 01 00
	00 73 00 00 00	 mov	 DWORD PTR ?enumSSLOT@@3UStrEnumSSLOT@@A+460, 115 ; 00000073H

; 1480 : 	enumSSLOT.EXTRA56 = SSLOT_EXTRA56;

  0303e	c7 05 d0 01 00
	00 74 00 00 00	 mov	 DWORD PTR ?enumSSLOT@@3UStrEnumSSLOT@@A+464, 116 ; 00000074H

; 1481 : 	enumSSLOT.EXTRA57 = SSLOT_EXTRA57;

  03048	c7 05 d4 01 00
	00 75 00 00 00	 mov	 DWORD PTR ?enumSSLOT@@3UStrEnumSSLOT@@A+468, 117 ; 00000075H

; 1482 : 	enumSSLOT.EXTRA58 = SSLOT_EXTRA58;

  03052	c7 05 d8 01 00
	00 76 00 00 00	 mov	 DWORD PTR ?enumSSLOT@@3UStrEnumSSLOT@@A+472, 118 ; 00000076H

; 1483 : 	enumSSLOT.EXTRA59 = SSLOT_EXTRA59;

  0305c	c7 05 dc 01 00
	00 77 00 00 00	 mov	 DWORD PTR ?enumSSLOT@@3UStrEnumSSLOT@@A+476, 119 ; 00000077H

; 1484 : 	enumSSLOT.EXTRA60 = SSLOT_EXTRA60;

  03066	c7 05 e0 01 00
	00 78 00 00 00	 mov	 DWORD PTR ?enumSSLOT@@3UStrEnumSSLOT@@A+480, 120 ; 00000078H

; 1485 : 	enumSSLOT.EXTRA61 = SSLOT_EXTRA61;

  03070	c7 05 e4 01 00
	00 79 00 00 00	 mov	 DWORD PTR ?enumSSLOT@@3UStrEnumSSLOT@@A+484, 121 ; 00000079H

; 1486 : 	enumSSLOT.EXTRA62 = SSLOT_EXTRA62;

  0307a	c7 05 e8 01 00
	00 7a 00 00 00	 mov	 DWORD PTR ?enumSSLOT@@3UStrEnumSSLOT@@A+488, 122 ; 0000007aH

; 1487 : 	enumSSLOT.EXTRA63 = SSLOT_EXTRA63;

  03084	c7 05 ec 01 00
	00 7b 00 00 00	 mov	 DWORD PTR ?enumSSLOT@@3UStrEnumSSLOT@@A+492, 123 ; 0000007bH

; 1488 : 	enumSSLOT.EXTRA64 = SSLOT_EXTRA64;

  0308e	c7 05 f0 01 00
	00 7c 00 00 00	 mov	 DWORD PTR ?enumSSLOT@@3UStrEnumSSLOT@@A+496, 124 ; 0000007cH

; 1489 : 	enumSSLOT.EXTRA65 = SSLOT_EXTRA65;

  03098	c7 05 f4 01 00
	00 7d 00 00 00	 mov	 DWORD PTR ?enumSSLOT@@3UStrEnumSSLOT@@A+500, 125 ; 0000007dH

; 1490 : 	enumSSLOT.EXTRA66 = SSLOT_EXTRA66;

  030a2	c7 05 f8 01 00
	00 7e 00 00 00	 mov	 DWORD PTR ?enumSSLOT@@3UStrEnumSSLOT@@A+504, 126 ; 0000007eH

; 1491 : 	enumSSLOT.EXTRA67 = SSLOT_EXTRA67;

  030ac	c7 05 fc 01 00
	00 7f 00 00 00	 mov	 DWORD PTR ?enumSSLOT@@3UStrEnumSSLOT@@A+508, 127 ; 0000007fH

; 1492 : 	enumSSLOT.EXTRA68 = SSLOT_EXTRA68;

  030b6	c7 05 00 02 00
	00 80 00 00 00	 mov	 DWORD PTR ?enumSSLOT@@3UStrEnumSSLOT@@A+512, 128 ; 00000080H

; 1493 : 	enumSSLOT.EXTRA69 = SSLOT_EXTRA69;

  030c0	c7 05 04 02 00
	00 81 00 00 00	 mov	 DWORD PTR ?enumSSLOT@@3UStrEnumSSLOT@@A+516, 129 ; 00000081H

; 1494 : 	enumSSLOT.EXTRA70 = SSLOT_EXTRA70;

  030ca	c7 05 08 02 00
	00 82 00 00 00	 mov	 DWORD PTR ?enumSSLOT@@3UStrEnumSSLOT@@A+520, 130 ; 00000082H

; 1495 : 	enumSSLOT.EXTRA71 = SSLOT_EXTRA71;

  030d4	c7 05 0c 02 00
	00 83 00 00 00	 mov	 DWORD PTR ?enumSSLOT@@3UStrEnumSSLOT@@A+524, 131 ; 00000083H

; 1496 : 	enumSSLOT.EXTRA72 = SSLOT_EXTRA72;

  030de	c7 05 10 02 00
	00 84 00 00 00	 mov	 DWORD PTR ?enumSSLOT@@3UStrEnumSSLOT@@A+528, 132 ; 00000084H

; 1497 : 	enumSSLOT.EXTRA73 = SSLOT_EXTRA73;

  030e8	c7 05 14 02 00
	00 85 00 00 00	 mov	 DWORD PTR ?enumSSLOT@@3UStrEnumSSLOT@@A+532, 133 ; 00000085H

; 1498 : 	enumSSLOT.EXTRA74 = SSLOT_EXTRA74;

  030f2	c7 05 18 02 00
	00 86 00 00 00	 mov	 DWORD PTR ?enumSSLOT@@3UStrEnumSSLOT@@A+536, 134 ; 00000086H

; 1499 : 	enumSSLOT.EXTRA75 = SSLOT_EXTRA75;

  030fc	c7 05 1c 02 00
	00 87 00 00 00	 mov	 DWORD PTR ?enumSSLOT@@3UStrEnumSSLOT@@A+540, 135 ; 00000087H

; 1500 : 	enumSSLOT.EXTRA76 = SSLOT_EXTRA76;

  03106	c7 05 20 02 00
	00 88 00 00 00	 mov	 DWORD PTR ?enumSSLOT@@3UStrEnumSSLOT@@A+544, 136 ; 00000088H

; 1501 : 	enumSSLOT.EXTRA77 = SSLOT_EXTRA77;

  03110	c7 05 24 02 00
	00 89 00 00 00	 mov	 DWORD PTR ?enumSSLOT@@3UStrEnumSSLOT@@A+548, 137 ; 00000089H

; 1502 : 	enumSSLOT.EXTRA78 = SSLOT_EXTRA78;

  0311a	c7 05 28 02 00
	00 8a 00 00 00	 mov	 DWORD PTR ?enumSSLOT@@3UStrEnumSSLOT@@A+552, 138 ; 0000008aH

; 1503 : 	enumSSLOT.EXTRA79 = SSLOT_EXTRA79;

  03124	c7 05 2c 02 00
	00 8b 00 00 00	 mov	 DWORD PTR ?enumSSLOT@@3UStrEnumSSLOT@@A+556, 139 ; 0000008bH

; 1504 : 	enumSSLOT.EXTRA80 = SSLOT_EXTRA80;

  0312e	c7 05 30 02 00
	00 8c 00 00 00	 mov	 DWORD PTR ?enumSSLOT@@3UStrEnumSSLOT@@A+560, 140 ; 0000008cH

; 1505 : 	enumSSLOT.EXTRA81 = SSLOT_EXTRA81;

  03138	c7 05 34 02 00
	00 8d 00 00 00	 mov	 DWORD PTR ?enumSSLOT@@3UStrEnumSSLOT@@A+564, 141 ; 0000008dH

; 1506 : 	enumSSLOT.EXTRA82 = SSLOT_EXTRA82;

  03142	c7 05 38 02 00
	00 8e 00 00 00	 mov	 DWORD PTR ?enumSSLOT@@3UStrEnumSSLOT@@A+568, 142 ; 0000008eH

; 1507 : 	enumSSLOT.EXTRA83 = SSLOT_EXTRA83;

  0314c	c7 05 3c 02 00
	00 8f 00 00 00	 mov	 DWORD PTR ?enumSSLOT@@3UStrEnumSSLOT@@A+572, 143 ; 0000008fH

; 1508 : 	enumSSLOT.EXTRA84 = SSLOT_EXTRA84;

  03156	c7 05 40 02 00
	00 90 00 00 00	 mov	 DWORD PTR ?enumSSLOT@@3UStrEnumSSLOT@@A+576, 144 ; 00000090H

; 1509 : 	enumSSLOT.EXTRA85 = SSLOT_EXTRA85;

  03160	c7 05 44 02 00
	00 91 00 00 00	 mov	 DWORD PTR ?enumSSLOT@@3UStrEnumSSLOT@@A+580, 145 ; 00000091H

; 1510 : 	enumSSLOT.EXTRA86 = SSLOT_EXTRA86;

  0316a	c7 05 48 02 00
	00 92 00 00 00	 mov	 DWORD PTR ?enumSSLOT@@3UStrEnumSSLOT@@A+584, 146 ; 00000092H

; 1511 : 	enumSSLOT.EXTRA87 = SSLOT_EXTRA87;

  03174	c7 05 4c 02 00
	00 93 00 00 00	 mov	 DWORD PTR ?enumSSLOT@@3UStrEnumSSLOT@@A+588, 147 ; 00000093H

; 1512 : 	enumSSLOT.EXTRA88 = SSLOT_EXTRA88;

  0317e	c7 05 50 02 00
	00 94 00 00 00	 mov	 DWORD PTR ?enumSSLOT@@3UStrEnumSSLOT@@A+592, 148 ; 00000094H

; 1513 : 	enumSSLOT.EXTRA89 = SSLOT_EXTRA89;

  03188	c7 05 54 02 00
	00 95 00 00 00	 mov	 DWORD PTR ?enumSSLOT@@3UStrEnumSSLOT@@A+596, 149 ; 00000095H

; 1514 : 	enumSSLOT.EXTRA90 = SSLOT_EXTRA90;

  03192	c7 05 58 02 00
	00 96 00 00 00	 mov	 DWORD PTR ?enumSSLOT@@3UStrEnumSSLOT@@A+600, 150 ; 00000096H

; 1515 : 	enumSSLOT.EXTRA91 = SSLOT_EXTRA91;

  0319c	c7 05 5c 02 00
	00 97 00 00 00	 mov	 DWORD PTR ?enumSSLOT@@3UStrEnumSSLOT@@A+604, 151 ; 00000097H

; 1516 : 	enumSSLOT.EXTRA92 = SSLOT_EXTRA92;

  031a6	c7 05 60 02 00
	00 98 00 00 00	 mov	 DWORD PTR ?enumSSLOT@@3UStrEnumSSLOT@@A+608, 152 ; 00000098H

; 1517 : 	enumSSLOT.EXTRA93 = SSLOT_EXTRA93;

  031b0	c7 05 64 02 00
	00 99 00 00 00	 mov	 DWORD PTR ?enumSSLOT@@3UStrEnumSSLOT@@A+612, 153 ; 00000099H

; 1518 : 	enumSSLOT.EXTRA94 = SSLOT_EXTRA94;

  031ba	c7 05 68 02 00
	00 9a 00 00 00	 mov	 DWORD PTR ?enumSSLOT@@3UStrEnumSSLOT@@A+616, 154 ; 0000009aH

; 1519 : 	enumSSLOT.EXTRA95 = SSLOT_EXTRA95;

  031c4	c7 05 6c 02 00
	00 9b 00 00 00	 mov	 DWORD PTR ?enumSSLOT@@3UStrEnumSSLOT@@A+620, 155 ; 0000009bH

; 1520 : 	enumSSLOT.EXTRA96 = SSLOT_EXTRA96;

  031ce	c7 05 70 02 00
	00 9c 00 00 00	 mov	 DWORD PTR ?enumSSLOT@@3UStrEnumSSLOT@@A+624, 156 ; 0000009cH

; 1521 : 	enumSSLOT.EXTRA97 = SSLOT_EXTRA97;

  031d8	c7 05 74 02 00
	00 9d 00 00 00	 mov	 DWORD PTR ?enumSSLOT@@3UStrEnumSSLOT@@A+628, 157 ; 0000009dH

; 1522 : 	enumSSLOT.EXTRA98 = SSLOT_EXTRA98;

  031e2	c7 05 78 02 00
	00 9e 00 00 00	 mov	 DWORD PTR ?enumSSLOT@@3UStrEnumSSLOT@@A+632, 158 ; 0000009eH

; 1523 : 	enumSSLOT.EXTRA99 = SSLOT_EXTRA99;

  031ec	c7 05 7c 02 00
	00 9f 00 00 00	 mov	 DWORD PTR ?enumSSLOT@@3UStrEnumSSLOT@@A+636, 159 ; 0000009fH

; 1524 : 	enumSSLOT.NUMBER_STATIC_OBJECTS = SSLOT_NUMBER_STATIC_OBJECTS;

  031f6	c7 05 80 02 00
	00 a0 00 00 00	 mov	 DWORD PTR ?enumSSLOT@@3UStrEnumSSLOT@@A+640, 160 ; 000000a0H

; 1525 : 
; 1526 : //  --------------- LOAD CONSTANTS FOR ENUM STRUCTURE: enumFWEAP----------------------
; 1527 : 	enumFWEAP.PRESENT = FWEAP_PRESENT;

  03200	c7 05 00 00 00
	00 01 00 00 00	 mov	 DWORD PTR ?enumFWEAP@@3UStrEnumFWEAP@@A, 1

; 1528 : 	enumFWEAP.LASERSIGHT = FWEAP_LASERSIGHT;

  0320a	c7 05 04 00 00
	00 04 00 00 00	 mov	 DWORD PTR ?enumFWEAP@@3UStrEnumFWEAP@@A+4, 4

; 1529 : 	enumFWEAP.AMMO_NORMAL = FWEAP_AMMO_NORMAL;

  03214	c7 05 08 00 00
	00 08 00 00 00	 mov	 DWORD PTR ?enumFWEAP@@3UStrEnumFWEAP@@A+8, 8

; 1530 : 	enumFWEAP.AMMO_SUPER = FWEAP_AMMO_SUPER;

  0321e	c7 05 0c 00 00
	00 10 00 00 00	 mov	 DWORD PTR ?enumFWEAP@@3UStrEnumFWEAP@@A+12, 16 ; 00000010H

; 1531 : 	enumFWEAP.AMMO_EXPLOSIVE = FWEAP_AMMO_EXPLOSIVE;

  03228	c7 05 10 00 00
	00 20 00 00 00	 mov	 DWORD PTR ?enumFWEAP@@3UStrEnumFWEAP@@A+16, 32 ; 00000020H

; 1532 : 
; 1533 : //  --------------- LOAD CONSTANTS FOR ENUM STRUCTURE: enumCBEET----------------------
; 1534 : 	enumCBEET.BEETLE_WITH_KEY = CBEET_BEETLE_WITH_KEY;

  03232	c7 05 00 00 00
	00 01 00 00 00	 mov	 DWORD PTR ?enumCBEET@@3UStrEnumCBEET@@A, 1

; 1535 : 	enumCBEET.KEY_SINGLE = CBEET_KEY_SINGLE;

  0323c	c7 05 04 00 00
	00 02 00 00 00	 mov	 DWORD PTR ?enumCBEET@@3UStrEnumCBEET@@A+4, 2

; 1536 : 	enumCBEET.BEETLE_SINGLE = CBEET_BEETLE_SINGLE;

  03246	c7 05 08 00 00
	00 04 00 00 00	 mov	 DWORD PTR ?enumCBEET@@3UStrEnumCBEET@@A+8, 4

; 1537 : 
; 1538 : //  --------------- LOAD CONSTANTS FOR ENUM STRUCTURE: enumWSKIN----------------------
; 1539 : 	enumWSKIN.MISSING = WSKIN_MISSING;

  03250	c7 05 00 00 00
	00 00 00 00 00	 mov	 DWORD PTR ?enumWSKIN@@3UStrEnumWSKIN@@A, 0

; 1540 : 	enumWSKIN.EMPTY_WATER_SKIN = WSKIN_EMPTY_WATER_SKIN;

  0325a	c7 05 04 00 00
	00 01 00 00 00	 mov	 DWORD PTR ?enumWSKIN@@3UStrEnumWSKIN@@A+4, 1

; 1541 : 	enumWSKIN.ONE_LITER = WSKIN_ONE_LITER;

  03264	c7 05 08 00 00
	00 02 00 00 00	 mov	 DWORD PTR ?enumWSKIN@@3UStrEnumWSKIN@@A+8, 2

; 1542 : 	enumWSKIN.THREE_LITERS = WSKIN_THREE_LITERS;

  0326e	c7 05 0c 00 00
	00 04 00 00 00	 mov	 DWORD PTR ?enumWSKIN@@3UStrEnumWSKIN@@A+12, 4

; 1543 : 	enumWSKIN.FIVE_LITERS = WSKIN_FIVE_LITERS;

  03278	c7 05 10 00 00
	00 06 00 00 00	 mov	 DWORD PTR ?enumWSKIN@@3UStrEnumWSKIN@@A+16, 6

; 1544 : 
; 1545 : //  --------------- LOAD CONSTANTS FOR ENUM STRUCTURE: enumCOMBO----------------------
; 1546 : 	enumCOMBO.ITEM1_FOR_PUZZLE_1 = COMBO_ITEM1_FOR_PUZZLE_1;

  03282	c7 05 00 00 00
	00 01 00 00 00	 mov	 DWORD PTR ?enumCOMBO@@3UStrEnumCOMBO@@A, 1

; 1547 : 	enumCOMBO.ITEM2_FOR_PUZZLE_1 = COMBO_ITEM2_FOR_PUZZLE_1;

  0328c	c7 05 04 00 00
	00 02 00 00 00	 mov	 DWORD PTR ?enumCOMBO@@3UStrEnumCOMBO@@A+4, 2

; 1548 : 	enumCOMBO.ITEM1_FOR_PUZZLE_2 = COMBO_ITEM1_FOR_PUZZLE_2;

  03296	c7 05 08 00 00
	00 04 00 00 00	 mov	 DWORD PTR ?enumCOMBO@@3UStrEnumCOMBO@@A+8, 4

; 1549 : 	enumCOMBO.ITEM2_FOR_PUZZLE_2 = COMBO_ITEM2_FOR_PUZZLE_2;

  032a0	c7 05 0c 00 00
	00 08 00 00 00	 mov	 DWORD PTR ?enumCOMBO@@3UStrEnumCOMBO@@A+12, 8

; 1550 : 	enumCOMBO.ITEM1_FOR_PUZZLE_3 = COMBO_ITEM1_FOR_PUZZLE_3;

  032aa	c7 05 10 00 00
	00 10 00 00 00	 mov	 DWORD PTR ?enumCOMBO@@3UStrEnumCOMBO@@A+16, 16 ; 00000010H

; 1551 : 	enumCOMBO.ITEM2_FOR_PUZZLE_3 = COMBO_ITEM2_FOR_PUZZLE_3;

  032b4	c7 05 14 00 00
	00 20 00 00 00	 mov	 DWORD PTR ?enumCOMBO@@3UStrEnumCOMBO@@A+20, 32 ; 00000020H

; 1552 : 	enumCOMBO.ITEM1_FOR_PUZZLE_4 = COMBO_ITEM1_FOR_PUZZLE_4;

  032be	c7 05 18 00 00
	00 40 00 00 00	 mov	 DWORD PTR ?enumCOMBO@@3UStrEnumCOMBO@@A+24, 64 ; 00000040H

; 1553 : 	enumCOMBO.ITEM2_FOR_PUZZLE_4 = COMBO_ITEM2_FOR_PUZZLE_4;

  032c8	c7 05 1c 00 00
	00 80 00 00 00	 mov	 DWORD PTR ?enumCOMBO@@3UStrEnumCOMBO@@A+28, 128 ; 00000080H

; 1554 : 	enumCOMBO.ITEM1_FOR_PUZZLE_5 = COMBO_ITEM1_FOR_PUZZLE_5;

  032d2	c7 05 20 00 00
	00 00 01 00 00	 mov	 DWORD PTR ?enumCOMBO@@3UStrEnumCOMBO@@A+32, 256 ; 00000100H

; 1555 : 	enumCOMBO.ITEM2_FOR_PUZZLE_5 = COMBO_ITEM2_FOR_PUZZLE_5;

  032dc	c7 05 24 00 00
	00 00 02 00 00	 mov	 DWORD PTR ?enumCOMBO@@3UStrEnumCOMBO@@A+36, 512 ; 00000200H

; 1556 : 	enumCOMBO.ITEM1_FOR_PUZZLE_6 = COMBO_ITEM1_FOR_PUZZLE_6;

  032e6	c7 05 28 00 00
	00 00 04 00 00	 mov	 DWORD PTR ?enumCOMBO@@3UStrEnumCOMBO@@A+40, 1024 ; 00000400H

; 1557 : 	enumCOMBO.ITEM2_FOR_PUZZLE_6 = COMBO_ITEM2_FOR_PUZZLE_6;

  032f0	c7 05 2c 00 00
	00 00 08 00 00	 mov	 DWORD PTR ?enumCOMBO@@3UStrEnumCOMBO@@A+44, 2048 ; 00000800H

; 1558 : 	enumCOMBO.ITEM1_FOR_PUZZLE_7 = COMBO_ITEM1_FOR_PUZZLE_7;

  032fa	c7 05 30 00 00
	00 00 10 00 00	 mov	 DWORD PTR ?enumCOMBO@@3UStrEnumCOMBO@@A+48, 4096 ; 00001000H

; 1559 : 	enumCOMBO.ITEM2_FOR_PUZZLE_7 = COMBO_ITEM2_FOR_PUZZLE_7;

  03304	c7 05 34 00 00
	00 00 20 00 00	 mov	 DWORD PTR ?enumCOMBO@@3UStrEnumCOMBO@@A+52, 8192 ; 00002000H

; 1560 : 	enumCOMBO.ITEM1_FOR_PUZZLE_8 = COMBO_ITEM1_FOR_PUZZLE_8;

  0330e	c7 05 38 00 00
	00 00 40 00 00	 mov	 DWORD PTR ?enumCOMBO@@3UStrEnumCOMBO@@A+56, 16384 ; 00004000H

; 1561 : 	enumCOMBO.ITEM2_FOR_PUZZLE_8 = COMBO_ITEM2_FOR_PUZZLE_8;

  03318	c7 05 3c 00 00
	00 00 80 00 00	 mov	 DWORD PTR ?enumCOMBO@@3UStrEnumCOMBO@@A+60, 32768 ; 00008000H

; 1562 : 
; 1563 : //  --------------- LOAD CONSTANTS FOR ENUM STRUCTURE: enumKCOMBO----------------------
; 1564 : 	enumKCOMBO.ITEM1_FOR_KEY_1 = KCOMBO_ITEM1_FOR_KEY_1;

  03322	c7 05 00 00 00
	00 01 00 00 00	 mov	 DWORD PTR ?enumKCOMBO@@3UStrEnumKCOMBO@@A, 1

; 1565 : 	enumKCOMBO.ITEM2_FOR_KEY_1 = KCOMBO_ITEM2_FOR_KEY_1;

  0332c	c7 05 04 00 00
	00 02 00 00 00	 mov	 DWORD PTR ?enumKCOMBO@@3UStrEnumKCOMBO@@A+4, 2

; 1566 : 	enumKCOMBO.ITEM1_FOR_KEY_2 = KCOMBO_ITEM1_FOR_KEY_2;

  03336	c7 05 08 00 00
	00 04 00 00 00	 mov	 DWORD PTR ?enumKCOMBO@@3UStrEnumKCOMBO@@A+8, 4

; 1567 : 	enumKCOMBO.ITEM2_FOR_KEY_2 = KCOMBO_ITEM2_FOR_KEY_2;

  03340	c7 05 0c 00 00
	00 08 00 00 00	 mov	 DWORD PTR ?enumKCOMBO@@3UStrEnumKCOMBO@@A+12, 8

; 1568 : 	enumKCOMBO.ITEM1_FOR_KEY_3 = KCOMBO_ITEM1_FOR_KEY_3;

  0334a	c7 05 10 00 00
	00 10 00 00 00	 mov	 DWORD PTR ?enumKCOMBO@@3UStrEnumKCOMBO@@A+16, 16 ; 00000010H

; 1569 : 	enumKCOMBO.ITEM2_FOR_KEY_3 = KCOMBO_ITEM2_FOR_KEY_3;

  03354	c7 05 14 00 00
	00 20 00 00 00	 mov	 DWORD PTR ?enumKCOMBO@@3UStrEnumKCOMBO@@A+20, 32 ; 00000020H

; 1570 : 	enumKCOMBO.ITEM1_FOR_KEY_4 = KCOMBO_ITEM1_FOR_KEY_4;

  0335e	c7 05 18 00 00
	00 40 00 00 00	 mov	 DWORD PTR ?enumKCOMBO@@3UStrEnumKCOMBO@@A+24, 64 ; 00000040H

; 1571 : 	enumKCOMBO.ITEM2_FOR_KEY_4 = KCOMBO_ITEM2_FOR_KEY_4;

  03368	c7 05 1c 00 00
	00 80 00 00 00	 mov	 DWORD PTR ?enumKCOMBO@@3UStrEnumKCOMBO@@A+28, 128 ; 00000080H

; 1572 : 	enumKCOMBO.ITEM1_FOR_KEY_5 = KCOMBO_ITEM1_FOR_KEY_5;

  03372	c7 05 20 00 00
	00 00 01 00 00	 mov	 DWORD PTR ?enumKCOMBO@@3UStrEnumKCOMBO@@A+32, 256 ; 00000100H

; 1573 : 	enumKCOMBO.ITEM2_FOR_KEY_5 = KCOMBO_ITEM2_FOR_KEY_5;

  0337c	c7 05 24 00 00
	00 00 02 00 00	 mov	 DWORD PTR ?enumKCOMBO@@3UStrEnumKCOMBO@@A+36, 512 ; 00000200H

; 1574 : 	enumKCOMBO.ITEM1_FOR_KEY_6 = KCOMBO_ITEM1_FOR_KEY_6;

  03386	c7 05 28 00 00
	00 00 04 00 00	 mov	 DWORD PTR ?enumKCOMBO@@3UStrEnumKCOMBO@@A+40, 1024 ; 00000400H

; 1575 : 	enumKCOMBO.ITEM2_FOR_KEY_6 = KCOMBO_ITEM2_FOR_KEY_6;

  03390	c7 05 2c 00 00
	00 00 08 00 00	 mov	 DWORD PTR ?enumKCOMBO@@3UStrEnumKCOMBO@@A+44, 2048 ; 00000800H

; 1576 : 	enumKCOMBO.ITEM1_FOR_KEY_7 = KCOMBO_ITEM1_FOR_KEY_7;

  0339a	c7 05 30 00 00
	00 00 10 00 00	 mov	 DWORD PTR ?enumKCOMBO@@3UStrEnumKCOMBO@@A+48, 4096 ; 00001000H

; 1577 : 	enumKCOMBO.ITEM2_FOR_KEY_7 = KCOMBO_ITEM2_FOR_KEY_7;

  033a4	c7 05 34 00 00
	00 00 20 00 00	 mov	 DWORD PTR ?enumKCOMBO@@3UStrEnumKCOMBO@@A+52, 8192 ; 00002000H

; 1578 : 	enumKCOMBO.ITEM1_FOR_KEY_8 = KCOMBO_ITEM1_FOR_KEY_8;

  033ae	c7 05 38 00 00
	00 00 40 00 00	 mov	 DWORD PTR ?enumKCOMBO@@3UStrEnumKCOMBO@@A+56, 16384 ; 00004000H

; 1579 : 	enumKCOMBO.ITEM2_FOR_KEY_8 = KCOMBO_ITEM2_FOR_KEY_8;

  033b8	c7 05 3c 00 00
	00 00 80 00 00	 mov	 DWORD PTR ?enumKCOMBO@@3UStrEnumKCOMBO@@A+60, 32768 ; 00008000H

; 1580 : 
; 1581 : //  --------------- LOAD CONSTANTS FOR ENUM STRUCTURE: enumEX16----------------------
; 1582 : 	enumEX16.EXIST_1 = EX16_EXIST_1;

  033c2	c7 05 00 00 00
	00 01 00 00 00	 mov	 DWORD PTR ?enumEX16@@3UStrEnumEX16@@A, 1

; 1583 : 	enumEX16.EXIST_2 = EX16_EXIST_2;

  033cc	c7 05 04 00 00
	00 02 00 00 00	 mov	 DWORD PTR ?enumEX16@@3UStrEnumEX16@@A+4, 2

; 1584 : 	enumEX16.EXIST_3 = EX16_EXIST_3;

  033d6	c7 05 08 00 00
	00 04 00 00 00	 mov	 DWORD PTR ?enumEX16@@3UStrEnumEX16@@A+8, 4

; 1585 : 	enumEX16.EXIST_4 = EX16_EXIST_4;

  033e0	c7 05 0c 00 00
	00 08 00 00 00	 mov	 DWORD PTR ?enumEX16@@3UStrEnumEX16@@A+12, 8

; 1586 : 	enumEX16.EXIST_5 = EX16_EXIST_5;

  033ea	c7 05 10 00 00
	00 10 00 00 00	 mov	 DWORD PTR ?enumEX16@@3UStrEnumEX16@@A+16, 16 ; 00000010H

; 1587 : 	enumEX16.EXIST_6 = EX16_EXIST_6;

  033f4	c7 05 14 00 00
	00 20 00 00 00	 mov	 DWORD PTR ?enumEX16@@3UStrEnumEX16@@A+20, 32 ; 00000020H

; 1588 : 	enumEX16.EXIST_7 = EX16_EXIST_7;

  033fe	c7 05 18 00 00
	00 40 00 00 00	 mov	 DWORD PTR ?enumEX16@@3UStrEnumEX16@@A+24, 64 ; 00000040H

; 1589 : 	enumEX16.EXIST_8 = EX16_EXIST_8;

  03408	c7 05 1c 00 00
	00 80 00 00 00	 mov	 DWORD PTR ?enumEX16@@3UStrEnumEX16@@A+28, 128 ; 00000080H

; 1590 : 	enumEX16.EXIST_9 = EX16_EXIST_9;

  03412	c7 05 20 00 00
	00 00 01 00 00	 mov	 DWORD PTR ?enumEX16@@3UStrEnumEX16@@A+32, 256 ; 00000100H

; 1591 : 	enumEX16.EXIST_10 = EX16_EXIST_10;

  0341c	c7 05 24 00 00
	00 00 02 00 00	 mov	 DWORD PTR ?enumEX16@@3UStrEnumEX16@@A+36, 512 ; 00000200H

; 1592 : 	enumEX16.EXIST_11 = EX16_EXIST_11;

  03426	c7 05 28 00 00
	00 00 04 00 00	 mov	 DWORD PTR ?enumEX16@@3UStrEnumEX16@@A+40, 1024 ; 00000400H

; 1593 : 	enumEX16.EXIST_12 = EX16_EXIST_12;

  03430	c7 05 2c 00 00
	00 00 08 00 00	 mov	 DWORD PTR ?enumEX16@@3UStrEnumEX16@@A+44, 2048 ; 00000800H

; 1594 : 	enumEX16.EXIST_13 = EX16_EXIST_13;

  0343a	c7 05 30 00 00
	00 00 10 00 00	 mov	 DWORD PTR ?enumEX16@@3UStrEnumEX16@@A+48, 4096 ; 00001000H

; 1595 : 	enumEX16.EXIST_14 = EX16_EXIST_14;

  03444	c7 05 34 00 00
	00 00 20 00 00	 mov	 DWORD PTR ?enumEX16@@3UStrEnumEX16@@A+52, 8192 ; 00002000H

; 1596 : 	enumEX16.EXIST_15 = EX16_EXIST_15;

  0344e	c7 05 38 00 00
	00 00 40 00 00	 mov	 DWORD PTR ?enumEX16@@3UStrEnumEX16@@A+56, 16384 ; 00004000H

; 1597 : 	enumEX16.EXIST_16 = EX16_EXIST_16;

  03458	c7 05 3c 00 00
	00 00 80 00 00	 mov	 DWORD PTR ?enumEX16@@3UStrEnumEX16@@A+60, 32768 ; 00008000H

; 1598 : 
; 1599 : //  --------------- LOAD CONSTANTS FOR ENUM STRUCTURE: enumPCOMBO----------------------
; 1600 : 	enumPCOMBO.ITEM1_FOR_PICKUP_1 = PCOMBO_ITEM1_FOR_PICKUP_1;

  03462	c7 05 00 00 00
	00 01 00 00 00	 mov	 DWORD PTR ?enumPCOMBO@@3UStrEnumPCOMBO@@A, 1

; 1601 : 	enumPCOMBO.ITEM2_FOR_PICKUP_1 = PCOMBO_ITEM2_FOR_PICKUP_1;

  0346c	c7 05 04 00 00
	00 02 00 00 00	 mov	 DWORD PTR ?enumPCOMBO@@3UStrEnumPCOMBO@@A+4, 2

; 1602 : 	enumPCOMBO.ITEM1_FOR_PICKUP_2 = PCOMBO_ITEM1_FOR_PICKUP_2;

  03476	c7 05 08 00 00
	00 04 00 00 00	 mov	 DWORD PTR ?enumPCOMBO@@3UStrEnumPCOMBO@@A+8, 4

; 1603 : 	enumPCOMBO.ITEM2_FOR_PICKUP_2 = PCOMBO_ITEM2_FOR_PICKUP_2;

  03480	c7 05 0c 00 00
	00 08 00 00 00	 mov	 DWORD PTR ?enumPCOMBO@@3UStrEnumPCOMBO@@A+12, 8

; 1604 : 	enumPCOMBO.ITEM1_FOR_PICKUP_3 = PCOMBO_ITEM1_FOR_PICKUP_3;

  0348a	c7 05 10 00 00
	00 10 00 00 00	 mov	 DWORD PTR ?enumPCOMBO@@3UStrEnumPCOMBO@@A+16, 16 ; 00000010H

; 1605 : 	enumPCOMBO.ITEM2_FOR_PICKUP_3 = PCOMBO_ITEM2_FOR_PICKUP_3;

  03494	c7 05 14 00 00
	00 20 00 00 00	 mov	 DWORD PTR ?enumPCOMBO@@3UStrEnumPCOMBO@@A+20, 32 ; 00000020H

; 1606 : 	enumPCOMBO.ITEM1_FOR_PICKUP_4 = PCOMBO_ITEM1_FOR_PICKUP_4;

  0349e	c7 05 18 00 00
	00 40 00 00 00	 mov	 DWORD PTR ?enumPCOMBO@@3UStrEnumPCOMBO@@A+24, 64 ; 00000040H

; 1607 : 	enumPCOMBO.ITEM2_FOR_PICKUP_4 = PCOMBO_ITEM2_FOR_PICKUP_4;

  034a8	c7 05 1c 00 00
	00 80 00 00 00	 mov	 DWORD PTR ?enumPCOMBO@@3UStrEnumPCOMBO@@A+28, 128 ; 00000080H

; 1608 : 	enumPCOMBO.ITEM1_FOR_PICKUP_5 = PCOMBO_ITEM1_FOR_PICKUP_5;

  034b2	c7 05 20 00 00
	00 00 01 00 00	 mov	 DWORD PTR ?enumPCOMBO@@3UStrEnumPCOMBO@@A+32, 256 ; 00000100H

; 1609 : 	enumPCOMBO.ITEM2_FOR_PICKUP_5 = PCOMBO_ITEM2_FOR_PICKUP_5;

  034bc	c7 05 24 00 00
	00 00 02 00 00	 mov	 DWORD PTR ?enumPCOMBO@@3UStrEnumPCOMBO@@A+36, 512 ; 00000200H

; 1610 : 	enumPCOMBO.ITEM1_FOR_PICKUP_6 = PCOMBO_ITEM1_FOR_PICKUP_6;

  034c6	c7 05 28 00 00
	00 00 04 00 00	 mov	 DWORD PTR ?enumPCOMBO@@3UStrEnumPCOMBO@@A+40, 1024 ; 00000400H

; 1611 : 	enumPCOMBO.ITEM2_FOR_PICKUP_6 = PCOMBO_ITEM2_FOR_PICKUP_6;

  034d0	c7 05 2c 00 00
	00 00 08 00 00	 mov	 DWORD PTR ?enumPCOMBO@@3UStrEnumPCOMBO@@A+44, 2048 ; 00000800H

; 1612 : 	enumPCOMBO.ITEM1_FOR_PICKUP_7 = PCOMBO_ITEM1_FOR_PICKUP_7;

  034da	c7 05 30 00 00
	00 00 10 00 00	 mov	 DWORD PTR ?enumPCOMBO@@3UStrEnumPCOMBO@@A+48, 4096 ; 00001000H

; 1613 : 	enumPCOMBO.ITEM2_FOR_PICKUP_7 = PCOMBO_ITEM2_FOR_PICKUP_7;

  034e4	c7 05 34 00 00
	00 00 20 00 00	 mov	 DWORD PTR ?enumPCOMBO@@3UStrEnumPCOMBO@@A+52, 8192 ; 00002000H

; 1614 : 	enumPCOMBO.ITEM1_FOR_PICKUP_8 = PCOMBO_ITEM1_FOR_PICKUP_8;

  034ee	c7 05 38 00 00
	00 00 40 00 00	 mov	 DWORD PTR ?enumPCOMBO@@3UStrEnumPCOMBO@@A+56, 16384 ; 00004000H

; 1615 : 	enumPCOMBO.ITEM2_FOR_PICKUP_8 = PCOMBO_ITEM2_FOR_PICKUP_8;

  034f8	c7 05 3c 00 00
	00 00 80 00 00	 mov	 DWORD PTR ?enumPCOMBO@@3UStrEnumPCOMBO@@A+60, 32768 ; 00008000H

; 1616 : 
; 1617 : //  --------------- LOAD CONSTANTS FOR ENUM STRUCTURE: enumDENV----------------------
; 1618 : 	enumDENV.FLAG_FACE2FACE = DENV_FLAG_FACE2FACE;

  03502	c7 05 00 00 00
	00 00 80 00 00	 mov	 DWORD PTR ?enumDENV@@3UStrEnumDENV@@A, 32768 ; 00008000H

; 1619 : 	enumDENV.FLAG_FACE2BACK = DENV_FLAG_FACE2BACK;

  0350c	c7 05 04 00 00
	00 00 40 00 00	 mov	 DWORD PTR ?enumDENV@@3UStrEnumDENV@@A+4, 16384 ; 00004000H

; 1620 : 	enumDENV.MASK_DISTANCE = DENV_MASK_DISTANCE;

  03516	c7 05 08 00 00
	00 ff 3f 00 00	 mov	 DWORD PTR ?enumDENV@@3UStrEnumDENV@@A+8, 16383 ; 00003fffH

; 1621 : 	enumDENV.MASK_FLAGS = DENV_MASK_FLAGS;

  03520	c7 05 0c 00 00
	00 00 c0 00 00	 mov	 DWORD PTR ?enumDENV@@3UStrEnumDENV@@A+12, 49152 ; 0000c000H

; 1622 : 
; 1623 : //  --------------- LOAD CONSTANTS FOR ENUM STRUCTURE: enumSLOPE----------------------
; 1624 : 	enumSLOPE.FLAT = SLOPE_FLAT;

  0352a	c7 05 00 00 00
	00 00 00 00 00	 mov	 DWORD PTR ?enumSLOPE@@3UStrEnumSLOPE@@A, 0

; 1625 : 	enumSLOPE.GENTLE_SLOPE = SLOPE_GENTLE_SLOPE;

  03534	c7 05 04 00 00
	00 01 00 00 00	 mov	 DWORD PTR ?enumSLOPE@@3UStrEnumSLOPE@@A+4, 1

; 1626 : 	enumSLOPE.STEEP_SLOPE = SLOPE_STEEP_SLOPE;

  0353e	c7 05 08 00 00
	00 02 00 00 00	 mov	 DWORD PTR ?enumSLOPE@@3UStrEnumSLOPE@@A+8, 2

; 1627 : 	enumSLOPE.GENTLE_CORNER = SLOPE_GENTLE_CORNER;

  03548	c7 05 0c 00 00
	00 03 00 00 00	 mov	 DWORD PTR ?enumSLOPE@@3UStrEnumSLOPE@@A+12, 3

; 1628 : 	enumSLOPE.STEEP_CORNER = SLOPE_STEEP_CORNER;

  03552	c7 05 10 00 00
	00 04 00 00 00	 mov	 DWORD PTR ?enumSLOPE@@3UStrEnumSLOPE@@A+16, 4

; 1629 : 
; 1630 : //  --------------- LOAD CONSTANTS FOR ENUM STRUCTURE: enumORIENT----------------------
; 1631 : 	enumORIENT.NORTH = ORIENT_NORTH;

  0355c	c7 05 00 00 00
	00 00 c0 ff ff	 mov	 DWORD PTR ?enumORIENT@@3UStrEnumORIENT@@A, -16384 ; ffffc000H

; 1632 : 	enumORIENT.SOUTH = ORIENT_SOUTH;

  03566	c7 05 04 00 00
	00 00 40 00 00	 mov	 DWORD PTR ?enumORIENT@@3UStrEnumORIENT@@A+4, 16384 ; 00004000H

; 1633 : 	enumORIENT.EAST = ORIENT_EAST;

  03570	c7 05 08 00 00
	00 00 00 00 00	 mov	 DWORD PTR ?enumORIENT@@3UStrEnumORIENT@@A+8, 0

; 1634 : 	enumORIENT.WEST = ORIENT_WEST;

  0357a	c7 05 0c 00 00
	00 00 80 ff ff	 mov	 DWORD PTR ?enumORIENT@@3UStrEnumORIENT@@A+12, -32768 ; ffff8000H

; 1635 : 	enumORIENT.SOUTH_EAST = ORIENT_SOUTH_EAST;

  03584	c7 05 10 00 00
	00 00 20 00 00	 mov	 DWORD PTR ?enumORIENT@@3UStrEnumORIENT@@A+16, 8192 ; 00002000H

; 1636 : 	enumORIENT.NORTH_EAST = ORIENT_NORTH_EAST;

  0358e	c7 05 14 00 00
	00 00 e0 ff ff	 mov	 DWORD PTR ?enumORIENT@@3UStrEnumORIENT@@A+20, -8192 ; ffffe000H

; 1637 : 	enumORIENT.SOUTH_WEST = ORIENT_SOUTH_WEST;

  03598	c7 05 18 00 00
	00 00 60 00 00	 mov	 DWORD PTR ?enumORIENT@@3UStrEnumORIENT@@A+24, 24576 ; 00006000H

; 1638 : 	enumORIENT.NORTH_WEST = ORIENT_NORTH_WEST;

  035a2	c7 05 1c 00 00
	00 00 a0 ff ff	 mov	 DWORD PTR ?enumORIENT@@3UStrEnumORIENT@@A+28, -24576 ; ffffa000H

; 1639 : 
; 1640 : //  --------------- LOAD CONSTANTS FOR ENUM STRUCTURE: enumFSLOT----------------------
; 1641 : 	enumFSLOT.NONE = FSLOT_NONE;

  035ac	c7 05 00 00 00
	00 00 00 00 00	 mov	 DWORD PTR ?enumFSLOT@@3UStrEnumFSLOT@@A, 0

; 1642 : 	enumFSLOT.PRESENT = FSLOT_PRESENT;

  035b6	c7 05 04 00 00
	00 01 00 00 00	 mov	 DWORD PTR ?enumFSLOT@@3UStrEnumFSLOT@@A+4, 1

; 1643 : 	enumFSLOT.AI_STANDARD = FSLOT_AI_STANDARD;

  035c0	c7 05 08 00 00
	00 02 00 00 00	 mov	 DWORD PTR ?enumFSLOT@@3UStrEnumFSLOT@@A+8, 2

; 1644 : 	enumFSLOT.CHANGE_POS_ITEM = FSLOT_CHANGE_POS_ITEM;

  035ca	c7 05 0c 00 00
	00 08 00 00 00	 mov	 DWORD PTR ?enumFSLOT@@3UStrEnumFSLOT@@A+12, 8

; 1645 : 	enumFSLOT.MOVED_BY_ANIMATIONS = FSLOT_MOVED_BY_ANIMATIONS;

  035d4	c7 05 10 00 00
	00 10 00 00 00	 mov	 DWORD PTR ?enumFSLOT@@3UStrEnumFSLOT@@A+16, 16 ; 00000010H

; 1646 : 	enumFSLOT.SAVE_ALL_DATA = FSLOT_SAVE_ALL_DATA;

  035de	c7 05 14 00 00
	00 20 00 00 00	 mov	 DWORD PTR ?enumFSLOT@@3UStrEnumFSLOT@@A+20, 32 ; 00000020H

; 1647 : 	enumFSLOT.AFFECT_LARA_AT_CONTACT = FSLOT_AFFECT_LARA_AT_CONTACT;

  035e8	c7 05 18 00 00
	00 40 00 00 00	 mov	 DWORD PTR ?enumFSLOT@@3UStrEnumFSLOT@@A+24, 64 ; 00000040H

; 1648 : 	enumFSLOT.SFX_LOCAL_SOUND = FSLOT_SFX_LOCAL_SOUND;

  035f2	c7 05 1c 00 00
	00 00 01 00 00	 mov	 DWORD PTR ?enumFSLOT@@3UStrEnumFSLOT@@A+28, 256 ; 00000100H

; 1649 : 	enumFSLOT.USE_COLLISION_BOX = FSLOT_USE_COLLISION_BOX;

  035fc	c7 05 20 00 00
	00 00 02 00 00	 mov	 DWORD PTR ?enumFSLOT@@3UStrEnumFSLOT@@A+32, 512 ; 00000200H

; 1650 : 	enumFSLOT.AMPHIBIOUS_CREATURE = FSLOT_AMPHIBIOUS_CREATURE;

  03606	c7 05 24 00 00
	00 00 04 00 00	 mov	 DWORD PTR ?enumFSLOT@@3UStrEnumFSLOT@@A+36, 1024 ; 00000400H

; 1651 : 	enumFSLOT.HIT_BUT_NOT_HURT_BY_SHOTGUN = FSLOT_HIT_BUT_NOT_HURT_BY_SHOTGUN;

  03610	c7 05 28 00 00
	00 00 08 00 00	 mov	 DWORD PTR ?enumFSLOT@@3UStrEnumFSLOT@@A+40, 2048 ; 00000800H

; 1652 : 	enumFSLOT.NO_DAMAGE_FOR_NO_EXPLOSIVE_AMMO = FSLOT_NO_DAMAGE_FOR_NO_EXPLOSIVE_AMMO;

  0361a	c7 05 2c 00 00
	00 00 10 00 00	 mov	 DWORD PTR ?enumFSLOT@@3UStrEnumFSLOT@@A+44, 4096 ; 00001000H

; 1653 : 	enumFSLOT.SAVE_MESH_MASK = FSLOT_SAVE_MESH_MASK;

  03624	c7 05 30 00 00
	00 00 20 00 00	 mov	 DWORD PTR ?enumFSLOT@@3UStrEnumFSLOT@@A+48, 8192 ; 00002000H

; 1654 : 
; 1655 : //  --------------- LOAD CONSTANTS FOR ENUM STRUCTURE: enumFITEM----------------------
; 1656 : 	enumFITEM.NONE = FITEM_NONE;

  0362e	c7 05 00 00 00
	00 00 00 00 00	 mov	 DWORD PTR ?enumFITEM@@3UStrEnumFITEM@@A, 0

; 1657 : 	enumFITEM.ACTIVE = FITEM_ACTIVE;

  03638	c7 05 04 00 00
	00 01 00 00 00	 mov	 DWORD PTR ?enumFITEM@@3UStrEnumFITEM@@A+4, 1

; 1658 : 	enumFITEM.CREATURE = FITEM_CREATURE;

  03642	c7 05 08 00 00
	00 02 00 00 00	 mov	 DWORD PTR ?enumFITEM@@3UStrEnumFITEM@@A+8, 2

; 1659 : 	enumFITEM.NOT_VISIBLE = FITEM_NOT_VISIBLE;

  0364c	c7 05 0c 00 00
	00 04 00 00 00	 mov	 DWORD PTR ?enumFITEM@@3UStrEnumFITEM@@A+12, 4

; 1660 : 	enumFITEM.GRAVITY_AFFECTED = FITEM_GRAVITY_AFFECTED;

  03656	c7 05 10 00 00
	00 08 00 00 00	 mov	 DWORD PTR ?enumFITEM@@3UStrEnumFITEM@@A+16, 8

; 1661 : 	enumFITEM.FLAG_10 = FITEM_FLAG_10;

  03660	c7 05 14 00 00
	00 10 00 00 00	 mov	 DWORD PTR ?enumFITEM@@3UStrEnumFITEM@@A+20, 16 ; 00000010H

; 1662 : 	enumFITEM.ITEM_HAS_BEEN_HIT = FITEM_ITEM_HAS_BEEN_HIT;

  0366a	c7 05 18 00 00
	00 10 00 00 00	 mov	 DWORD PTR ?enumFITEM@@3UStrEnumFITEM@@A+24, 16 ; 00000010H

; 1663 : 	enumFITEM.NOT_YET_ENABLED = FITEM_NOT_YET_ENABLED;

  03674	c7 05 1c 00 00
	00 20 00 00 00	 mov	 DWORD PTR ?enumFITEM@@3UStrEnumFITEM@@A+28, 32 ; 00000020H

; 1664 : 	enumFITEM.KILLED_WITH_EXPLOSION = FITEM_KILLED_WITH_EXPLOSION;

  0367e	c7 05 20 00 00
	00 40 00 00 00	 mov	 DWORD PTR ?enumFITEM@@3UStrEnumFITEM@@A+32, 64 ; 00000040H

; 1665 : 	enumFITEM.POISONED = FITEM_POISONED;

  03688	c7 05 24 00 00
	00 00 01 00 00	 mov	 DWORD PTR ?enumFITEM@@3UStrEnumFITEM@@A+36, 256 ; 00000100H

; 1666 : 	enumFITEM.AI_GUARD = FITEM_AI_GUARD;

  03692	c7 05 28 00 00
	00 00 02 00 00	 mov	 DWORD PTR ?enumFITEM@@3UStrEnumFITEM@@A+40, 512 ; 00000200H

; 1667 : 	enumFITEM.AI_AMBUSH = FITEM_AI_AMBUSH;

  0369c	c7 05 2c 00 00
	00 00 04 00 00	 mov	 DWORD PTR ?enumFITEM@@3UStrEnumFITEM@@A+44, 1024 ; 00000400H

; 1668 : 	enumFITEM.AI_PATROL1 = FITEM_AI_PATROL1;

  036a6	c7 05 30 00 00
	00 00 08 00 00	 mov	 DWORD PTR ?enumFITEM@@3UStrEnumFITEM@@A+48, 2048 ; 00000800H

; 1669 : 	enumFITEM.AI_MODIFY = FITEM_AI_MODIFY;

  036b0	c7 05 34 00 00
	00 00 10 00 00	 mov	 DWORD PTR ?enumFITEM@@3UStrEnumFITEM@@A+52, 4096 ; 00001000H

; 1670 : 	enumFITEM.AI_FOLLOW = FITEM_AI_FOLLOW;

  036ba	c7 05 38 00 00
	00 00 20 00 00	 mov	 DWORD PTR ?enumFITEM@@3UStrEnumFITEM@@A+56, 8192 ; 00002000H

; 1671 : 	enumFITEM.THROWN_AMMO = FITEM_THROWN_AMMO;

  036c4	c7 05 3c 00 00
	00 00 40 00 00	 mov	 DWORD PTR ?enumFITEM@@3UStrEnumFITEM@@A+60, 16384 ; 00004000H

; 1672 : 
; 1673 : //  --------------- LOAD CONSTANTS FOR ENUM STRUCTURE: enumMEMT----------------------
; 1674 : 	enumMEMT.SAVEGAME = MEMT_SAVEGAME;

  036ce	c7 05 00 00 00
	00 00 01 00 00	 mov	 DWORD PTR ?enumMEMT@@3UStrEnumMEMT@@A, 256 ; 00000100H

; 1675 : 	enumMEMT.CODE = MEMT_CODE;

  036d8	c7 05 04 00 00
	00 00 02 00 00	 mov	 DWORD PTR ?enumMEMT@@3UStrEnumMEMT@@A+4, 512 ; 00000200H

; 1676 : 	enumMEMT.ITEM = MEMT_ITEM;

  036e2	c7 05 08 00 00
	00 00 04 00 00	 mov	 DWORD PTR ?enumMEMT@@3UStrEnumMEMT@@A+8, 1024 ; 00000400H

; 1677 : 	enumMEMT.SLOT = MEMT_SLOT;

  036ec	c7 05 0c 00 00
	00 00 08 00 00	 mov	 DWORD PTR ?enumMEMT@@3UStrEnumMEMT@@A+12, 2048 ; 00000800H

; 1678 : 	enumMEMT.ANIMATION = MEMT_ANIMATION;

  036f6	c7 05 10 00 00
	00 00 10 00 00	 mov	 DWORD PTR ?enumMEMT@@3UStrEnumMEMT@@A+16, 4096 ; 00001000H

; 1679 : 	enumMEMT.INVENTORY = MEMT_INVENTORY;

  03700	c7 05 14 00 00
	00 00 20 00 00	 mov	 DWORD PTR ?enumMEMT@@3UStrEnumMEMT@@A+20, 8192 ; 00002000H

; 1680 : 
; 1681 : 
; 1682 : }

  0370a	5f		 pop	 edi
  0370b	5e		 pop	 esi
  0370c	5b		 pop	 ebx
  0370d	8b e5		 mov	 esp, ebp
  0370f	5d		 pop	 ebp
  03710	c3		 ret	 0
?InitialiseEnums@@YAXXZ ENDP				; InitialiseEnums
_TEXT	ENDS
PUBLIC	?Service@@YAHKZZ				; Service
EXTRN	__RTC_CheckEsp:PROC
; Function compile flags: /Odtp /RTCsu /ZI
;	COMDAT ?Service@@YAHKZZ
_TEXT	SEGMENT
_pArgs$ = -8						; size = 4
_SRV_Type$ = 8						; size = 4
?Service@@YAHKZZ PROC					; Service, COMDAT

; 1691 : {

  00000	55		 push	 ebp
  00001	8b ec		 mov	 ebp, esp
  00003	81 ec cc 00 00
	00		 sub	 esp, 204		; 000000ccH
  00009	53		 push	 ebx
  0000a	56		 push	 esi
  0000b	57		 push	 edi
  0000c	8d bd 34 ff ff
	ff		 lea	 edi, DWORD PTR [ebp-204]
  00012	b9 33 00 00 00	 mov	 ecx, 51			; 00000033H
  00017	b8 cc cc cc cc	 mov	 eax, -858993460		; ccccccccH
  0001c	f3 ab		 rep stosd

; 1692 : 	va_list pArgs;
; 1693 : 	
; 1694 : 	va_start(pArgs, SRV_Type);

  0001e	8d 45 0c	 lea	 eax, DWORD PTR _SRV_Type$[ebp+4]
  00021	89 45 f8	 mov	 DWORD PTR _pArgs$[ebp], eax

; 1695 : 	
; 1696 : 	
; 1697 : 
; 1698 : 	return Trng.Service(Trng.IdMyPlugin, SRV_Type, pArgs);

  00024	8b f4		 mov	 esi, esp
  00026	8b 45 f8	 mov	 eax, DWORD PTR _pArgs$[ebp]
  00029	50		 push	 eax
  0002a	8b 4d 08	 mov	 ecx, DWORD PTR _SRV_Type$[ebp]
  0002d	51		 push	 ecx
  0002e	8b 15 00 00 00
	00		 mov	 edx, DWORD PTR ?Trng@@3UStrTrngInfos@@A
  00034	52		 push	 edx
  00035	ff 15 10 00 00
	00		 call	 DWORD PTR ?Trng@@3UStrTrngInfos@@A+16
  0003b	3b f4		 cmp	 esi, esp
  0003d	e8 00 00 00 00	 call	 __RTC_CheckEsp

; 1699 : }

  00042	5f		 pop	 edi
  00043	5e		 pop	 esi
  00044	5b		 pop	 ebx
  00045	81 c4 cc 00 00
	00		 add	 esp, 204		; 000000ccH
  0004b	3b ec		 cmp	 ebp, esp
  0004d	e8 00 00 00 00	 call	 __RTC_CheckEsp
  00052	8b e5		 mov	 esp, ebp
  00054	5d		 pop	 ebp
  00055	c3		 ret	 0
?Service@@YAHKZZ ENDP					; Service
_TEXT	ENDS
PUBLIC	?CreateNewMoveable@@YAFGKHKH@Z			; CreateNewMoveable
; Function compile flags: /Odtp /RTCsu /ZI
;	COMDAT ?CreateNewMoveable@@YAFGKHKH@Z
_TEXT	SEGMENT
_Slot$ = 8						; size = 2
_CordX$ = 12						; size = 4
_CordY$ = 16						; size = 4
_CordZ$ = 20						; size = 4
_Room$ = 24						; size = 4
?CreateNewMoveable@@YAFGKHKH@Z PROC			; CreateNewMoveable, COMDAT

; 1702 : {

  00000	55		 push	 ebp
  00001	8b ec		 mov	 ebp, esp
  00003	81 ec c0 00 00
	00		 sub	 esp, 192		; 000000c0H
  00009	53		 push	 ebx
  0000a	56		 push	 esi
  0000b	57		 push	 edi
  0000c	8d bd 40 ff ff
	ff		 lea	 edi, DWORD PTR [ebp-192]
  00012	b9 30 00 00 00	 mov	 ecx, 48			; 00000030H
  00017	b8 cc cc cc cc	 mov	 eax, -858993460		; ccccccccH
  0001c	f3 ab		 rep stosd

; 1703 : 	return Service(SRV_F_CreateNewMoveable, Slot, CordX, CordY, CordZ, Room);

  0001e	8b 45 18	 mov	 eax, DWORD PTR _Room$[ebp]
  00021	50		 push	 eax
  00022	8b 4d 14	 mov	 ecx, DWORD PTR _CordZ$[ebp]
  00025	51		 push	 ecx
  00026	8b 55 10	 mov	 edx, DWORD PTR _CordY$[ebp]
  00029	52		 push	 edx
  0002a	8b 45 0c	 mov	 eax, DWORD PTR _CordX$[ebp]
  0002d	50		 push	 eax
  0002e	0f b7 4d 08	 movzx	 ecx, WORD PTR _Slot$[ebp]
  00032	51		 push	 ecx
  00033	6a 1c		 push	 28			; 0000001cH
  00035	e8 00 00 00 00	 call	 ?Service@@YAHKZZ	; Service
  0003a	83 c4 18	 add	 esp, 24			; 00000018H

; 1704 : }

  0003d	5f		 pop	 edi
  0003e	5e		 pop	 esi
  0003f	5b		 pop	 ebx
  00040	81 c4 c0 00 00
	00		 add	 esp, 192		; 000000c0H
  00046	3b ec		 cmp	 ebp, esp
  00048	e8 00 00 00 00	 call	 __RTC_CheckEsp
  0004d	8b e5		 mov	 esp, ebp
  0004f	5d		 pop	 ebp
  00050	c3		 ret	 0
?CreateNewMoveable@@YAFGKHKH@Z ENDP			; CreateNewMoveable
_TEXT	ENDS
PUBLIC	?DeleteNewMoveable@@YAXF@Z			; DeleteNewMoveable
; Function compile flags: /Odtp /RTCsu /ZI
;	COMDAT ?DeleteNewMoveable@@YAXF@Z
_TEXT	SEGMENT
_Index$ = 8						; size = 2
?DeleteNewMoveable@@YAXF@Z PROC				; DeleteNewMoveable, COMDAT

; 1709 : {

  00000	55		 push	 ebp
  00001	8b ec		 mov	 ebp, esp
  00003	81 ec c0 00 00
	00		 sub	 esp, 192		; 000000c0H
  00009	53		 push	 ebx
  0000a	56		 push	 esi
  0000b	57		 push	 edi
  0000c	8d bd 40 ff ff
	ff		 lea	 edi, DWORD PTR [ebp-192]
  00012	b9 30 00 00 00	 mov	 ecx, 48			; 00000030H
  00017	b8 cc cc cc cc	 mov	 eax, -858993460		; ccccccccH
  0001c	f3 ab		 rep stosd

; 1710 : 	Service(SRV_F_DeleteNewMoveable, Index);

  0001e	0f bf 45 08	 movsx	 eax, WORD PTR _Index$[ebp]
  00022	50		 push	 eax
  00023	6a 1d		 push	 29			; 0000001dH
  00025	e8 00 00 00 00	 call	 ?Service@@YAHKZZ	; Service
  0002a	83 c4 08	 add	 esp, 8

; 1711 : }

  0002d	5f		 pop	 edi
  0002e	5e		 pop	 esi
  0002f	5b		 pop	 ebx
  00030	81 c4 c0 00 00
	00		 add	 esp, 192		; 000000c0H
  00036	3b ec		 cmp	 ebp, esp
  00038	e8 00 00 00 00	 call	 __RTC_CheckEsp
  0003d	8b e5		 mov	 esp, ebp
  0003f	5d		 pop	 ebp
  00040	c3		 ret	 0
?DeleteNewMoveable@@YAXF@Z ENDP				; DeleteNewMoveable
_TEXT	ENDS
PUBLIC	?CreateAIObject@@YAHGKHKGHF@Z			; CreateAIObject
; Function compile flags: /Odtp /RTCsu /ZI
;	COMDAT ?CreateAIObject@@YAHGKHKGHF@Z
_TEXT	SEGMENT
_Slot$ = 8						; size = 2
_CordX$ = 12						; size = 4
_CordY$ = 16						; size = 4
_CordZ$ = 20						; size = 4
_Room$ = 24						; size = 2
_OcbValue$ = 28						; size = 4
_Facing$ = 32						; size = 2
?CreateAIObject@@YAHGKHKGHF@Z PROC			; CreateAIObject, COMDAT

; 1716 : {

  00000	55		 push	 ebp
  00001	8b ec		 mov	 ebp, esp
  00003	81 ec c0 00 00
	00		 sub	 esp, 192		; 000000c0H
  00009	53		 push	 ebx
  0000a	56		 push	 esi
  0000b	57		 push	 edi
  0000c	8d bd 40 ff ff
	ff		 lea	 edi, DWORD PTR [ebp-192]
  00012	b9 30 00 00 00	 mov	 ecx, 48			; 00000030H
  00017	b8 cc cc cc cc	 mov	 eax, -858993460		; ccccccccH
  0001c	f3 ab		 rep stosd

; 1717 : 	return Service(SRV_F_CreateAIRecord, Slot, CordX, CordY, CordZ, Room, OcbValue, Facing);

  0001e	0f bf 45 20	 movsx	 eax, WORD PTR _Facing$[ebp]
  00022	50		 push	 eax
  00023	8b 4d 1c	 mov	 ecx, DWORD PTR _OcbValue$[ebp]
  00026	51		 push	 ecx
  00027	0f b7 55 18	 movzx	 edx, WORD PTR _Room$[ebp]
  0002b	52		 push	 edx
  0002c	8b 45 14	 mov	 eax, DWORD PTR _CordZ$[ebp]
  0002f	50		 push	 eax
  00030	8b 4d 10	 mov	 ecx, DWORD PTR _CordY$[ebp]
  00033	51		 push	 ecx
  00034	8b 55 0c	 mov	 edx, DWORD PTR _CordX$[ebp]
  00037	52		 push	 edx
  00038	0f b7 45 08	 movzx	 eax, WORD PTR _Slot$[ebp]
  0003c	50		 push	 eax
  0003d	6a 1a		 push	 26			; 0000001aH
  0003f	e8 00 00 00 00	 call	 ?Service@@YAHKZZ	; Service
  00044	83 c4 20	 add	 esp, 32			; 00000020H

; 1718 : 
; 1719 : }

  00047	5f		 pop	 edi
  00048	5e		 pop	 esi
  00049	5b		 pop	 ebx
  0004a	81 c4 c0 00 00
	00		 add	 esp, 192		; 000000c0H
  00050	3b ec		 cmp	 ebp, esp
  00052	e8 00 00 00 00	 call	 __RTC_CheckEsp
  00057	8b e5		 mov	 esp, ebp
  00059	5d		 pop	 ebp
  0005a	c3		 ret	 0
?CreateAIObject@@YAHGKHKGHF@Z ENDP			; CreateAIObject
_TEXT	ENDS
PUBLIC	?DeleteAIObject@@YAXGG_N@Z			; DeleteAIObject
; Function compile flags: /Odtp /RTCsu /ZI
;	COMDAT ?DeleteAIObject@@YAXGG_N@Z
_TEXT	SEGMENT
_Slot$ = 8						; size = 2
_OcbValue$ = 12						; size = 2
_TestAlls$ = 16						; size = 1
?DeleteAIObject@@YAXGG_N@Z PROC				; DeleteAIObject, COMDAT

; 1724 : {

  00000	55		 push	 ebp
  00001	8b ec		 mov	 ebp, esp
  00003	81 ec c0 00 00
	00		 sub	 esp, 192		; 000000c0H
  00009	53		 push	 ebx
  0000a	56		 push	 esi
  0000b	57		 push	 edi
  0000c	8d bd 40 ff ff
	ff		 lea	 edi, DWORD PTR [ebp-192]
  00012	b9 30 00 00 00	 mov	 ecx, 48			; 00000030H
  00017	b8 cc cc cc cc	 mov	 eax, -858993460		; ccccccccH
  0001c	f3 ab		 rep stosd

; 1725 : 	Service(SRV_F_DeleteAIRecord, Slot, OcbValue, TestAlls);

  0001e	0f b6 45 10	 movzx	 eax, BYTE PTR _TestAlls$[ebp]
  00022	50		 push	 eax
  00023	0f b7 4d 0c	 movzx	 ecx, WORD PTR _OcbValue$[ebp]
  00027	51		 push	 ecx
  00028	0f b7 55 08	 movzx	 edx, WORD PTR _Slot$[ebp]
  0002c	52		 push	 edx
  0002d	6a 1b		 push	 27			; 0000001bH
  0002f	e8 00 00 00 00	 call	 ?Service@@YAHKZZ	; Service
  00034	83 c4 10	 add	 esp, 16			; 00000010H

; 1726 : 
; 1727 : }

  00037	5f		 pop	 edi
  00038	5e		 pop	 esi
  00039	5b		 pop	 ebx
  0003a	81 c4 c0 00 00
	00		 add	 esp, 192		; 000000c0H
  00040	3b ec		 cmp	 ebp, esp
  00042	e8 00 00 00 00	 call	 __RTC_CheckEsp
  00047	8b e5		 mov	 esp, ebp
  00049	5d		 pop	 ebp
  0004a	c3		 ret	 0
?DeleteAIObject@@YAXGG_N@Z ENDP				; DeleteAIObject
_TEXT	ENDS
PUBLIC	?DeleteParamCommand@@YAXHH@Z			; DeleteParamCommand
; Function compile flags: /Odtp /RTCsu /ZI
;	COMDAT ?DeleteParamCommand@@YAXHH@Z
_TEXT	SEGMENT
_ParamType$ = 8						; size = 4
_IdParam$ = 12						; size = 4
?DeleteParamCommand@@YAXHH@Z PROC			; DeleteParamCommand, COMDAT

; 1730 : {

  00000	55		 push	 ebp
  00001	8b ec		 mov	 ebp, esp
  00003	81 ec c0 00 00
	00		 sub	 esp, 192		; 000000c0H
  00009	53		 push	 ebx
  0000a	56		 push	 esi
  0000b	57		 push	 edi
  0000c	8d bd 40 ff ff
	ff		 lea	 edi, DWORD PTR [ebp-192]
  00012	b9 30 00 00 00	 mov	 ecx, 48			; 00000030H
  00017	b8 cc cc cc cc	 mov	 eax, -858993460		; ccccccccH
  0001c	f3 ab		 rep stosd

; 1731 : 	Service(SRV_DeleteParamCommand, ParamType, IdParam);

  0001e	8b 45 0c	 mov	 eax, DWORD PTR _IdParam$[ebp]
  00021	50		 push	 eax
  00022	8b 4d 08	 mov	 ecx, DWORD PTR _ParamType$[ebp]
  00025	51		 push	 ecx
  00026	6a 1f		 push	 31			; 0000001fH
  00028	e8 00 00 00 00	 call	 ?Service@@YAHKZZ	; Service
  0002d	83 c4 0c	 add	 esp, 12			; 0000000cH

; 1732 : 
; 1733 : }

  00030	5f		 pop	 edi
  00031	5e		 pop	 esi
  00032	5b		 pop	 ebx
  00033	81 c4 c0 00 00
	00		 add	 esp, 192		; 000000c0H
  00039	3b ec		 cmp	 ebp, esp
  0003b	e8 00 00 00 00	 call	 __RTC_CheckEsp
  00040	8b e5		 mov	 esp, ebp
  00042	5d		 pop	 ebp
  00043	c3		 ret	 0
?DeleteParamCommand@@YAXHH@Z ENDP			; DeleteParamCommand
_TEXT	ENDS
PUBLIC	?DeleteTriggerGroup@@YAXH@Z			; DeleteTriggerGroup
; Function compile flags: /Odtp /RTCsu /ZI
;	COMDAT ?DeleteTriggerGroup@@YAXH@Z
_TEXT	SEGMENT
_IdTriggerGroup$ = 8					; size = 4
?DeleteTriggerGroup@@YAXH@Z PROC			; DeleteTriggerGroup, COMDAT

; 1736 : {

  00000	55		 push	 ebp
  00001	8b ec		 mov	 ebp, esp
  00003	81 ec c0 00 00
	00		 sub	 esp, 192		; 000000c0H
  00009	53		 push	 ebx
  0000a	56		 push	 esi
  0000b	57		 push	 edi
  0000c	8d bd 40 ff ff
	ff		 lea	 edi, DWORD PTR [ebp-192]
  00012	b9 30 00 00 00	 mov	 ecx, 48			; 00000030H
  00017	b8 cc cc cc cc	 mov	 eax, -858993460		; ccccccccH
  0001c	f3 ab		 rep stosd

; 1737 : 	Service(SRV_DeleteTriggerGroup, IdTriggerGroup);

  0001e	8b 45 08	 mov	 eax, DWORD PTR _IdTriggerGroup$[ebp]
  00021	50		 push	 eax
  00022	6a 20		 push	 32			; 00000020H
  00024	e8 00 00 00 00	 call	 ?Service@@YAHKZZ	; Service
  00029	83 c4 08	 add	 esp, 8

; 1738 : }

  0002c	5f		 pop	 edi
  0002d	5e		 pop	 esi
  0002e	5b		 pop	 ebx
  0002f	81 c4 c0 00 00
	00		 add	 esp, 192		; 000000c0H
  00035	3b ec		 cmp	 ebp, esp
  00037	e8 00 00 00 00	 call	 __RTC_CheckEsp
  0003c	8b e5		 mov	 esp, ebp
  0003e	5d		 pop	 ebp
  0003f	c3		 ret	 0
?DeleteTriggerGroup@@YAXH@Z ENDP			; DeleteTriggerGroup
_TEXT	ENDS
PUBLIC	?DeleteColorRgb@@YAXH@Z				; DeleteColorRgb
; Function compile flags: /Odtp /RTCsu /ZI
;	COMDAT ?DeleteColorRgb@@YAXH@Z
_TEXT	SEGMENT
_IdColorRgb$ = 8					; size = 4
?DeleteColorRgb@@YAXH@Z PROC				; DeleteColorRgb, COMDAT

; 1741 : {

  00000	55		 push	 ebp
  00001	8b ec		 mov	 ebp, esp
  00003	81 ec c0 00 00
	00		 sub	 esp, 192		; 000000c0H
  00009	53		 push	 ebx
  0000a	56		 push	 esi
  0000b	57		 push	 edi
  0000c	8d bd 40 ff ff
	ff		 lea	 edi, DWORD PTR [ebp-192]
  00012	b9 30 00 00 00	 mov	 ecx, 48			; 00000030H
  00017	b8 cc cc cc cc	 mov	 eax, -858993460		; ccccccccH
  0001c	f3 ab		 rep stosd

; 1742 : 	Service(SRV_DeleteColorRgb, IdColorRgb);

  0001e	8b 45 08	 mov	 eax, DWORD PTR _IdColorRgb$[ebp]
  00021	50		 push	 eax
  00022	6a 21		 push	 33			; 00000021H
  00024	e8 00 00 00 00	 call	 ?Service@@YAHKZZ	; Service
  00029	83 c4 08	 add	 esp, 8

; 1743 : }

  0002c	5f		 pop	 edi
  0002d	5e		 pop	 esi
  0002e	5b		 pop	 ebx
  0002f	81 c4 c0 00 00
	00		 add	 esp, 192		; 000000c0H
  00035	3b ec		 cmp	 ebp, esp
  00037	e8 00 00 00 00	 call	 __RTC_CheckEsp
  0003c	8b e5		 mov	 esp, ebp
  0003e	5d		 pop	 ebp
  0003f	c3		 ret	 0
?DeleteColorRgb@@YAXH@Z ENDP				; DeleteColorRgb
_TEXT	ENDS
PUBLIC	?DeleteMultEnvCondition@@YAXH@Z			; DeleteMultEnvCondition
; Function compile flags: /Odtp /RTCsu /ZI
;	COMDAT ?DeleteMultEnvCondition@@YAXH@Z
_TEXT	SEGMENT
_IdMultEnv$ = 8						; size = 4
?DeleteMultEnvCondition@@YAXH@Z PROC			; DeleteMultEnvCondition, COMDAT

; 1746 : {

  00000	55		 push	 ebp
  00001	8b ec		 mov	 ebp, esp
  00003	81 ec c0 00 00
	00		 sub	 esp, 192		; 000000c0H
  00009	53		 push	 ebx
  0000a	56		 push	 esi
  0000b	57		 push	 edi
  0000c	8d bd 40 ff ff
	ff		 lea	 edi, DWORD PTR [ebp-192]
  00012	b9 30 00 00 00	 mov	 ecx, 48			; 00000030H
  00017	b8 cc cc cc cc	 mov	 eax, -858993460		; ccccccccH
  0001c	f3 ab		 rep stosd

; 1747 : 	Service(SRV_DeleteMultEnvCondition, IdMultEnv);

  0001e	8b 45 08	 mov	 eax, DWORD PTR _IdMultEnv$[ebp]
  00021	50		 push	 eax
  00022	6a 22		 push	 34			; 00000022H
  00024	e8 00 00 00 00	 call	 ?Service@@YAHKZZ	; Service
  00029	83 c4 08	 add	 esp, 8

; 1748 : }

  0002c	5f		 pop	 edi
  0002d	5e		 pop	 esi
  0002e	5b		 pop	 ebx
  0002f	81 c4 c0 00 00
	00		 add	 esp, 192		; 000000c0H
  00035	3b ec		 cmp	 ebp, esp
  00037	e8 00 00 00 00	 call	 __RTC_CheckEsp
  0003c	8b e5		 mov	 esp, ebp
  0003e	5d		 pop	 ebp
  0003f	c3		 ret	 0
?DeleteMultEnvCondition@@YAXH@Z ENDP			; DeleteMultEnvCondition
_TEXT	ENDS
PUBLIC	?DeleteTestPosition@@YAXH@Z			; DeleteTestPosition
; Function compile flags: /Odtp /RTCsu /ZI
;	COMDAT ?DeleteTestPosition@@YAXH@Z
_TEXT	SEGMENT
_IdTest$ = 8						; size = 4
?DeleteTestPosition@@YAXH@Z PROC			; DeleteTestPosition, COMDAT

; 1751 : {

  00000	55		 push	 ebp
  00001	8b ec		 mov	 ebp, esp
  00003	81 ec c0 00 00
	00		 sub	 esp, 192		; 000000c0H
  00009	53		 push	 ebx
  0000a	56		 push	 esi
  0000b	57		 push	 edi
  0000c	8d bd 40 ff ff
	ff		 lea	 edi, DWORD PTR [ebp-192]
  00012	b9 30 00 00 00	 mov	 ecx, 48			; 00000030H
  00017	b8 cc cc cc cc	 mov	 eax, -858993460		; ccccccccH
  0001c	f3 ab		 rep stosd

; 1752 : 	Service(SRV_DeleteTestPosition, IdTest);

  0001e	8b 45 08	 mov	 eax, DWORD PTR _IdTest$[ebp]
  00021	50		 push	 eax
  00022	6a 23		 push	 35			; 00000023H
  00024	e8 00 00 00 00	 call	 ?Service@@YAHKZZ	; Service
  00029	83 c4 08	 add	 esp, 8

; 1753 : }

  0002c	5f		 pop	 edi
  0002d	5e		 pop	 esi
  0002e	5b		 pop	 ebx
  0002f	81 c4 c0 00 00
	00		 add	 esp, 192		; 000000c0H
  00035	3b ec		 cmp	 ebp, esp
  00037	e8 00 00 00 00	 call	 __RTC_CheckEsp
  0003c	8b e5		 mov	 esp, ebp
  0003e	5d		 pop	 ebp
  0003f	c3		 ret	 0
?DeleteTestPosition@@YAXH@Z ENDP			; DeleteTestPosition
_TEXT	ENDS
PUBLIC	?DeleteAddEffect@@YAXH@Z			; DeleteAddEffect
; Function compile flags: /Odtp /RTCsu /ZI
;	COMDAT ?DeleteAddEffect@@YAXH@Z
_TEXT	SEGMENT
_IdEffect$ = 8						; size = 4
?DeleteAddEffect@@YAXH@Z PROC				; DeleteAddEffect, COMDAT

; 1756 : {

  00000	55		 push	 ebp
  00001	8b ec		 mov	 ebp, esp
  00003	81 ec c0 00 00
	00		 sub	 esp, 192		; 000000c0H
  00009	53		 push	 ebx
  0000a	56		 push	 esi
  0000b	57		 push	 edi
  0000c	8d bd 40 ff ff
	ff		 lea	 edi, DWORD PTR [ebp-192]
  00012	b9 30 00 00 00	 mov	 ecx, 48			; 00000030H
  00017	b8 cc cc cc cc	 mov	 eax, -858993460		; ccccccccH
  0001c	f3 ab		 rep stosd

; 1757 : 	Service(SRV_DeleteAddEffect,IdEffect);

  0001e	8b 45 08	 mov	 eax, DWORD PTR _IdEffect$[ebp]
  00021	50		 push	 eax
  00022	6a 24		 push	 36			; 00000024H
  00024	e8 00 00 00 00	 call	 ?Service@@YAHKZZ	; Service
  00029	83 c4 08	 add	 esp, 8

; 1758 : }

  0002c	5f		 pop	 edi
  0002d	5e		 pop	 esi
  0002e	5b		 pop	 ebx
  0002f	81 c4 c0 00 00
	00		 add	 esp, 192		; 000000c0H
  00035	3b ec		 cmp	 ebp, esp
  00037	e8 00 00 00 00	 call	 __RTC_CheckEsp
  0003c	8b e5		 mov	 esp, ebp
  0003e	5d		 pop	 ebp
  0003f	c3		 ret	 0
?DeleteAddEffect@@YAXH@Z ENDP				; DeleteAddEffect
_TEXT	ENDS
PUBLIC	?DisableSaving@@YAXH@Z				; DisableSaving
; Function compile flags: /Odtp /RTCsu /ZI
;	COMDAT ?DisableSaving@@YAXH@Z
_TEXT	SEGMENT
_FrameDurate$ = 8					; size = 4
?DisableSaving@@YAXH@Z PROC				; DisableSaving, COMDAT

; 1761 : {

  00000	55		 push	 ebp
  00001	8b ec		 mov	 ebp, esp
  00003	81 ec c0 00 00
	00		 sub	 esp, 192		; 000000c0H
  00009	53		 push	 ebx
  0000a	56		 push	 esi
  0000b	57		 push	 edi
  0000c	8d bd 40 ff ff
	ff		 lea	 edi, DWORD PTR [ebp-192]
  00012	b9 30 00 00 00	 mov	 ecx, 48			; 00000030H
  00017	b8 cc cc cc cc	 mov	 eax, -858993460		; ccccccccH
  0001c	f3 ab		 rep stosd

; 1762 : 	Service(SRV_F_DisableSaving, FrameDurate);

  0001e	8b 45 08	 mov	 eax, DWORD PTR _FrameDurate$[ebp]
  00021	50		 push	 eax
  00022	6a 25		 push	 37			; 00000025H
